Archive member included to satisfy reference by file (symbol)

c:/devkitPro/libctru/lib\libsfil.a(sfil_png.o)
                              main.o (sfil_load_PNG_buffer)
c:/devkitPro/portlibs/armv6k/lib\libpng.a(png.o)
                              c:/devkitPro/libctru/lib\libsfil.a(sfil_png.o) (png_set_sig_bytes)
c:/devkitPro/portlibs/armv6k/lib\libpng.a(pngerror.o)
                              c:/devkitPro/portlibs/armv6k/lib\libpng.a(png.o) (png_safecat)
c:/devkitPro/portlibs/armv6k/lib\libpng.a(pngget.o)
                              c:/devkitPro/libctru/lib\libsfil.a(sfil_png.o) (png_get_valid)
c:/devkitPro/portlibs/armv6k/lib\libpng.a(pngmem.o)
                              c:/devkitPro/portlibs/armv6k/lib\libpng.a(png.o) (png_calloc)
c:/devkitPro/portlibs/armv6k/lib\libpng.a(pngread.o)
                              c:/devkitPro/libctru/lib\libsfil.a(sfil_png.o) (png_create_read_struct)
c:/devkitPro/portlibs/armv6k/lib\libpng.a(pngrio.o)
                              c:/devkitPro/libctru/lib\libsfil.a(sfil_png.o) (png_set_read_fn)
c:/devkitPro/portlibs/armv6k/lib\libpng.a(pngrtran.o)
                              c:/devkitPro/portlibs/armv6k/lib\libpng.a(pngread.o) (png_set_background_fixed)
c:/devkitPro/portlibs/armv6k/lib\libpng.a(pngrutil.o)
                              c:/devkitPro/portlibs/armv6k/lib\libpng.a(pngread.o) (png_read_sig)
c:/devkitPro/portlibs/armv6k/lib\libpng.a(pngset.o)
                              c:/devkitPro/portlibs/armv6k/lib\libpng.a(pngrutil.o) (png_set_bKGD)
c:/devkitPro/portlibs/armv6k/lib\libpng.a(pngtrans.o)
                              c:/devkitPro/portlibs/armv6k/lib\libpng.a(pngread.o) (png_set_bgr)
c:/devkitPro/portlibs/armv6k/lib\libpng.a(pngwrite.o)
                              c:/devkitPro/portlibs/armv6k/lib\libpng.a(png.o) (png_destroy_write_struct)
c:/devkitPro/portlibs/armv6k/lib\libpng.a(pngwtran.o)
                              c:/devkitPro/portlibs/armv6k/lib\libpng.a(pngwrite.o) (png_do_write_transformations)
c:/devkitPro/portlibs/armv6k/lib\libpng.a(pngwutil.o)
                              c:/devkitPro/portlibs/armv6k/lib\libpng.a(png.o) (png_save_uint_32)
c:/devkitPro/portlibs/armv6k/lib\libpng.a(pngwio.o)
                              c:/devkitPro/portlibs/armv6k/lib\libpng.a(pngwutil.o) (png_write_data)
c:/devkitPro/libctru/lib\libsftd.a(sftd.o)
                              main.o (sftd_init)
c:/devkitPro/libctru/lib\libsftd.a(texture_atlas.o)
                              c:/devkitPro/libctru/lib\libsftd.a(sftd.o) (texture_atlas_create)
c:/devkitPro/libctru/lib\libsftd.a(bin_packing_2d.o)
                              c:/devkitPro/libctru/lib\libsftd.a(texture_atlas.o) (bp2d_create)
c:/devkitPro/libctru/lib\libsftd.a(int_htab.o)
                              c:/devkitPro/libctru/lib\libsftd.a(texture_atlas.o) (int_htab_create)
c:/devkitPro/portlibs/armv6k/lib\libfreetype.a(ftinit.o)
                              c:/devkitPro/libctru/lib\libsftd.a(sftd.o) (FT_Init_FreeType)
c:/devkitPro/portlibs/armv6k/lib\libfreetype.a(ftbase.o)
                              c:/devkitPro/libctru/lib\libsftd.a(sftd.o) (FT_Get_Kerning)
c:/devkitPro/portlibs/armv6k/lib\libfreetype.a(truetype.o)
                              c:/devkitPro/portlibs/armv6k/lib\libfreetype.a(ftinit.o) (tt_driver_class)
c:/devkitPro/portlibs/armv6k/lib\libfreetype.a(type1.o)
                              c:/devkitPro/portlibs/armv6k/lib\libfreetype.a(ftinit.o) (t1_driver_class)
c:/devkitPro/portlibs/armv6k/lib\libfreetype.a(cff.o)
                              c:/devkitPro/portlibs/armv6k/lib\libfreetype.a(ftinit.o) (cff_driver_class)
c:/devkitPro/portlibs/armv6k/lib\libfreetype.a(type1cid.o)
                              c:/devkitPro/portlibs/armv6k/lib\libfreetype.a(ftinit.o) (t1cid_driver_class)
c:/devkitPro/portlibs/armv6k/lib\libfreetype.a(pfr.o)
                              c:/devkitPro/portlibs/armv6k/lib\libfreetype.a(ftinit.o) (pfr_driver_class)
c:/devkitPro/portlibs/armv6k/lib\libfreetype.a(type42.o)
                              c:/devkitPro/portlibs/armv6k/lib\libfreetype.a(ftinit.o) (t42_driver_class)
c:/devkitPro/portlibs/armv6k/lib\libfreetype.a(winfnt.o)
                              c:/devkitPro/portlibs/armv6k/lib\libfreetype.a(ftinit.o) (winfnt_driver_class)
c:/devkitPro/portlibs/armv6k/lib\libfreetype.a(pcf.o)
                              c:/devkitPro/portlibs/armv6k/lib\libfreetype.a(ftinit.o) (pcf_driver_class)
c:/devkitPro/portlibs/armv6k/lib\libfreetype.a(bdf.o)
                              c:/devkitPro/portlibs/armv6k/lib\libfreetype.a(ftinit.o) (bdf_driver_class)
c:/devkitPro/portlibs/armv6k/lib\libfreetype.a(sfnt.o)
                              c:/devkitPro/portlibs/armv6k/lib\libfreetype.a(ftinit.o) (sfnt_module_class)
c:/devkitPro/portlibs/armv6k/lib\libfreetype.a(autofit.o)
                              c:/devkitPro/portlibs/armv6k/lib\libfreetype.a(ftinit.o) (autofit_module_class)
c:/devkitPro/portlibs/armv6k/lib\libfreetype.a(pshinter.o)
                              c:/devkitPro/portlibs/armv6k/lib\libfreetype.a(ftinit.o) (pshinter_module_class)
c:/devkitPro/portlibs/armv6k/lib\libfreetype.a(raster.o)
                              c:/devkitPro/portlibs/armv6k/lib\libfreetype.a(ftinit.o) (ft_raster1_renderer_class)
c:/devkitPro/portlibs/armv6k/lib\libfreetype.a(smooth.o)
                              c:/devkitPro/portlibs/armv6k/lib\libfreetype.a(ftinit.o) (ft_smooth_lcdv_renderer_class)
c:/devkitPro/portlibs/armv6k/lib\libfreetype.a(ftcache.o)
                              c:/devkitPro/libctru/lib\libsftd.a(sftd.o) (FTC_Manager_LookupFace)
c:/devkitPro/portlibs/armv6k/lib\libfreetype.a(ftgzip.o)
                              c:/devkitPro/portlibs/armv6k/lib\libfreetype.a(pcf.o) (FT_Stream_OpenGzip)
c:/devkitPro/portlibs/armv6k/lib\libfreetype.a(ftlzw.o)
                              c:/devkitPro/portlibs/armv6k/lib\libfreetype.a(pcf.o) (FT_Stream_OpenLZW)
c:/devkitPro/portlibs/armv6k/lib\libfreetype.a(psaux.o)
                              c:/devkitPro/portlibs/armv6k/lib\libfreetype.a(ftinit.o) (psaux_module_class)
c:/devkitPro/portlibs/armv6k/lib\libfreetype.a(psnames.o)
                              c:/devkitPro/portlibs/armv6k/lib\libfreetype.a(ftinit.o) (psnames_module_class)
c:/devkitPro/portlibs/armv6k/lib\libfreetype.a(ftsystem.o)
                              c:/devkitPro/portlibs/armv6k/lib\libfreetype.a(ftbase.o) (FT_Stream_Open)
c:/devkitPro/portlibs/armv6k/lib\libfreetype.a(ftbitmap.o)
                              c:/devkitPro/portlibs/armv6k/lib\libfreetype.a(sfnt.o) (FT_Bitmap_Init)
c:/devkitPro/portlibs/armv6k/lib\libfreetype.a(ftglyph.o)
                              c:/devkitPro/portlibs/armv6k/lib\libfreetype.a(ftcache.o) (FT_Get_Glyph)
c:/devkitPro/portlibs/armv6k/lib\libz.a(adler32.o)
                              c:/devkitPro/portlibs/armv6k/lib\libpng.a(png.o) (adler32)
c:/devkitPro/portlibs/armv6k/lib\libz.a(crc32.o)
                              c:/devkitPro/portlibs/armv6k/lib\libpng.a(png.o) (crc32)
c:/devkitPro/portlibs/armv6k/lib\libz.a(deflate.o)
                              c:/devkitPro/portlibs/armv6k/lib\libpng.a(pngwutil.o) (deflateReset)
c:/devkitPro/portlibs/armv6k/lib\libz.a(inflate.o)
                              c:/devkitPro/portlibs/armv6k/lib\libpng.a(png.o) (inflateReset)
c:/devkitPro/portlibs/armv6k/lib\libz.a(inftrees.o)
                              c:/devkitPro/portlibs/armv6k/lib\libz.a(inflate.o) (inflate_table)
c:/devkitPro/portlibs/armv6k/lib\libz.a(trees.o)
                              c:/devkitPro/portlibs/armv6k/lib\libz.a(deflate.o) (_tr_init)
c:/devkitPro/portlibs/armv6k/lib\libz.a(zutil.o)
                              c:/devkitPro/portlibs/armv6k/lib\libz.a(deflate.o) (zcalloc)
c:/devkitPro/portlibs/armv6k/lib\libz.a(inffast.o)
                              c:/devkitPro/portlibs/armv6k/lib\libz.a(inflate.o) (inflate_fast)
c:/devkitPro/libctru/lib\libsf2d.a(sf2d.o)
                              main.o (sf2d_init)
c:/devkitPro/libctru/lib\libsf2d.a(sf2d_private.o)
                              c:/devkitPro/libctru/lib\libsf2d.a(sf2d.o) (GPU_SetDummyTexEnv)
c:/devkitPro/libctru/lib\libsf2d.a(sf2d_texture.o)
                              c:/devkitPro/libctru/lib\libsfil.a(sfil_png.o) (sf2d_create_texture)
c:/devkitPro/libctru/lib\libsf2d.a(shader.vsh.o)
                              c:/devkitPro/libctru/lib\libsf2d.a(sf2d.o) (shader_vsh_shbin_size)
c:/devkitPro/libctru/lib\libctru.a(linear.o)
                              c:/devkitPro/libctru/lib\libsf2d.a(sf2d_texture.o) (linearMemAlign)
c:/devkitPro/libctru/lib\libctru.a(mem_pool.o)
                              c:/devkitPro/libctru/lib\libctru.a(linear.o) (MemPool::Allocate(MemChunk&, unsigned long, int))
c:/devkitPro/libctru/lib\libctru.a(vram.o)
                              c:/devkitPro/libctru/lib\libsf2d.a(sf2d.o) (vramMemAlign)
c:/devkitPro/libctru/lib\libctru.a(gfx.o)
                              c:/devkitPro/libctru/lib\libsf2d.a(sf2d.o) (gfxSet3D)
c:/devkitPro/libctru/lib\libctru.a(os.o)
                              c:/devkitPro/libctru/lib\libsf2d.a(sf2d.o) (osConvertVirtToPhys)
c:/devkitPro/libctru/lib\libctru.a(romfs_dev.o)
                              c:/devkitPro/libctru/lib\libctru.a(os.o) (romfsInitFromFile)
c:/devkitPro/libctru/lib\libctru.a(srv.o)
                              main.o (srvExit)
c:/devkitPro/libctru/lib\libctru.a(gpu.o)
                              c:/devkitPro/libctru/lib\libsf2d.a(sf2d.o) (GPU_Init)
c:/devkitPro/libctru/lib\libctru.a(gpuResetSequence.o)
                              c:/devkitPro/libctru/lib\libctru.a(gpu.o) (gpuResetSequenceLength)
c:/devkitPro/libctru/lib\libctru.a(shaderProgram.o)
                              c:/devkitPro/libctru/lib\libsf2d.a(sf2d.o) (shaderInstanceGetUniformLocation)
c:/devkitPro/libctru/lib\libctru.a(shbin.o)
                              c:/devkitPro/libctru/lib\libsf2d.a(sf2d.o) (DVLB_Free)
c:/devkitPro/libctru/lib\libctru.a(apt.o)
                              c:/devkitPro/libctru/lib\libsf2d.a(sf2d.o) (aptHook)
c:/devkitPro/libctru/lib\libctru.a(cfgu.o)
                              c:/devkitPro/libctru/lib\libctru.a(os.o) (initCfgu)
c:/devkitPro/libctru/lib\libctru.a(csnd.o)
                              main.o (csndInit)
c:/devkitPro/libctru/lib\libctru.a(fs.o)
                              c:/devkitPro/libctru/lib\libctru.a(os.o) (FSUSER_OpenFileDirectly)
c:/devkitPro/libctru/lib\libctru.a(gsp.o)
                              c:/devkitPro/libctru/lib\libctru.a(gfx.o) (gspInit)
c:/devkitPro/libctru/lib\libctru.a(gx.o)
                              c:/devkitPro/libctru/lib\libctru.a(gfx.o) (gxCmdBuf)
c:/devkitPro/libctru/lib\libctru.a(hid.o)
                              main.o (hidExit)
c:/devkitPro/libctru/lib\libctru.a(irrst.o)
                              c:/devkitPro/libctru/lib\libctru.a(hid.o) (irrstScanInput)
c:/devkitPro/libctru/lib\libctru.a(ptm.o)
                              c:/devkitPro/libctru/lib\libctru.a(os.o) (ptmSysmInit)
c:/devkitPro/libctru/lib\libctru.a(rbtree_find.o)
                              c:/devkitPro/libctru/lib\libctru.a(linear.o) (rbtree_find)
c:/devkitPro/libctru/lib\libctru.a(rbtree_init.o)
                              c:/devkitPro/libctru/lib\libctru.a(linear.o) (rbtree_init)
c:/devkitPro/libctru/lib\libctru.a(rbtree_insert.o)
                              c:/devkitPro/libctru/lib\libctru.a(linear.o) (rbtree_insert)
c:/devkitPro/libctru/lib\libctru.a(rbtree_remove.o)
                              c:/devkitPro/libctru/lib\libctru.a(linear.o) (rbtree_remove)
c:/devkitPro/libctru/lib\libctru.a(rbtree_rotate.o)
                              c:/devkitPro/libctru/lib\libctru.a(rbtree_insert.o) (rbtree_rotate)
c:/devkitPro/libctru/lib\libctru.a(utf8_to_utf16.o)
                              c:/devkitPro/libctru/lib\libctru.a(romfs_dev.o) (utf8_to_utf16)
c:/devkitPro/libctru/lib\libctru.a(allocateHeaps.o)
                              c:/devkitPro/libctru/lib\libctru.a(linear.o) (__linear_heap)
c:/devkitPro/libctru/lib\libctru.a(initArgv.o)
                              c:/devkitpro/devkitarm/bin/../lib/gcc/arm-none-eabi/4.9.2/../../../../arm-none-eabi/lib/armv6k/fpu/3dsx_crt0.o (__system_argc)
c:/devkitPro/libctru/lib\libctru.a(initSystem.o)
                              c:/devkitPro/libctru/lib\libctru.a(apt.o) (__system_retAddr)
c:/devkitPro/libctru/lib\libctru.a(svc.o)
                              c:/devkitPro/libctru/lib\libctru.a(allocateHeaps.o) (svcControlMemory)
c:/devkitPro/libctru/lib\libctru.a(stack_adjust.o)
                              c:/devkitpro/devkitarm/bin/../lib/gcc/arm-none-eabi/4.9.2/../../../../arm-none-eabi/lib/armv6k/fpu/3dsx_crt0.o (initSystem)
c:/devkitPro/libctru/lib\libctru.a(mappable.o)
                              c:/devkitPro/libctru/lib\libctru.a(gfx.o) (mappableAlloc)
c:/devkitPro/libctru/lib\libctru.a(rbtree_iterator.o)
                              c:/devkitPro/libctru/lib\libctru.a(rbtree_remove.o) (rbtree_node_next)
c:/devkitPro/libctru/lib\libctru.a(decode_utf8.o)
                              c:/devkitPro/libctru/lib\libctru.a(utf8_to_utf16.o) (decode_utf8)
c:/devkitPro/libctru/lib\libctru.a(encode_utf16.o)
                              c:/devkitPro/libctru/lib\libctru.a(utf8_to_utf16.o) (encode_utf16)
c:/devkitPro/libctru/lib\libctru.a(appExit.o)
                              c:/devkitPro/libctru/lib\libctru.a(stack_adjust.o) (__appExit)
c:/devkitPro/libctru/lib\libctru.a(appInit.o)
                              c:/devkitPro/libctru/lib\libctru.a(stack_adjust.o) (__appInit)
c:/devkitPro/libctru/lib\libctru.a(ctru_exit.o)
                              c:/devkitPro/libctru/lib\libctru.a(stack_adjust.o) (__libctru_exit)
c:/devkitPro/libctru/lib\libctru.a(sdmc_dev.o)
                              c:/devkitPro/libctru/lib\libctru.a(appInit.o) (sdmcInit)
c:/devkitPro/libctru/lib\libctru.a(utf16_to_utf8.o)
                              c:/devkitPro/libctru/lib\libctru.a(sdmc_dev.o) (utf16_to_utf8)
c:/devkitPro/libctru/lib\libctru.a(decode_utf16.o)
                              c:/devkitPro/libctru/lib\libctru.a(utf16_to_utf8.o) (decode_utf16)
c:/devkitPro/libctru/lib\libctru.a(encode_utf8.o)
                              c:/devkitPro/libctru/lib\libctru.a(utf16_to_utf8.o) (encode_utf8)
c:/devkitpro/devkitarm/bin/../lib/gcc/arm-none-eabi/4.9.2/../../../../arm-none-eabi/lib/armv6k/fpu\libm.a(lib_a-sf_cos.o)
                              c:/devkitPro/libctru/lib\libsf2d.a(sf2d_private.o) (cosf)
c:/devkitpro/devkitarm/bin/../lib/gcc/arm-none-eabi/4.9.2/../../../../arm-none-eabi/lib/armv6k/fpu\libm.a(lib_a-s_floor.o)
                              c:/devkitPro/portlibs/armv6k/lib\libpng.a(png.o) (floor)
c:/devkitpro/devkitarm/bin/../lib/gcc/arm-none-eabi/4.9.2/../../../../arm-none-eabi/lib/armv6k/fpu\libm.a(lib_a-s_frexp.o)
                              c:/devkitPro/portlibs/armv6k/lib\libpng.a(png.o) (frexp)
c:/devkitpro/devkitarm/bin/../lib/gcc/arm-none-eabi/4.9.2/../../../../arm-none-eabi/lib/armv6k/fpu\libm.a(lib_a-sf_sin.o)
                              c:/devkitPro/libctru/lib\libsf2d.a(sf2d_private.o) (sinf)
c:/devkitpro/devkitarm/bin/../lib/gcc/arm-none-eabi/4.9.2/../../../../arm-none-eabi/lib/armv6k/fpu\libm.a(lib_a-s_modf.o)
                              c:/devkitPro/portlibs/armv6k/lib\libpng.a(png.o) (modf)
c:/devkitpro/devkitarm/bin/../lib/gcc/arm-none-eabi/4.9.2/../../../../arm-none-eabi/lib/armv6k/fpu\libm.a(lib_a-w_pow.o)
                              c:/devkitPro/portlibs/armv6k/lib\libpng.a(png.o) (pow)
c:/devkitpro/devkitarm/bin/../lib/gcc/arm-none-eabi/4.9.2/../../../../arm-none-eabi/lib/armv6k/fpu\libm.a(lib_a-ef_rem_pio2.o)
                              c:/devkitpro/devkitarm/bin/../lib/gcc/arm-none-eabi/4.9.2/../../../../arm-none-eabi/lib/armv6k/fpu\libm.a(lib_a-sf_cos.o) (__ieee754_rem_pio2f)
c:/devkitpro/devkitarm/bin/../lib/gcc/arm-none-eabi/4.9.2/../../../../arm-none-eabi/lib/armv6k/fpu\libm.a(lib_a-e_pow.o)
                              c:/devkitpro/devkitarm/bin/../lib/gcc/arm-none-eabi/4.9.2/../../../../arm-none-eabi/lib/armv6k/fpu\libm.a(lib_a-w_pow.o) (__ieee754_pow)
c:/devkitpro/devkitarm/bin/../lib/gcc/arm-none-eabi/4.9.2/../../../../arm-none-eabi/lib/armv6k/fpu\libm.a(lib_a-e_sqrt.o)
                              c:/devkitpro/devkitarm/bin/../lib/gcc/arm-none-eabi/4.9.2/../../../../arm-none-eabi/lib/armv6k/fpu\libm.a(lib_a-e_pow.o) (__ieee754_sqrt)
c:/devkitpro/devkitarm/bin/../lib/gcc/arm-none-eabi/4.9.2/../../../../arm-none-eabi/lib/armv6k/fpu\libm.a(lib_a-kf_cos.o)
                              c:/devkitpro/devkitarm/bin/../lib/gcc/arm-none-eabi/4.9.2/../../../../arm-none-eabi/lib/armv6k/fpu\libm.a(lib_a-sf_cos.o) (__kernel_cosf)
c:/devkitpro/devkitarm/bin/../lib/gcc/arm-none-eabi/4.9.2/../../../../arm-none-eabi/lib/armv6k/fpu\libm.a(lib_a-kf_rem_pio2.o)
                              c:/devkitpro/devkitarm/bin/../lib/gcc/arm-none-eabi/4.9.2/../../../../arm-none-eabi/lib/armv6k/fpu\libm.a(lib_a-ef_rem_pio2.o) (__kernel_rem_pio2f)
c:/devkitpro/devkitarm/bin/../lib/gcc/arm-none-eabi/4.9.2/../../../../arm-none-eabi/lib/armv6k/fpu\libm.a(lib_a-kf_sin.o)
                              c:/devkitpro/devkitarm/bin/../lib/gcc/arm-none-eabi/4.9.2/../../../../arm-none-eabi/lib/armv6k/fpu\libm.a(lib_a-sf_cos.o) (__kernel_sinf)
c:/devkitpro/devkitarm/bin/../lib/gcc/arm-none-eabi/4.9.2/../../../../arm-none-eabi/lib/armv6k/fpu\libm.a(lib_a-s_fabs.o)
                              c:/devkitpro/devkitarm/bin/../lib/gcc/arm-none-eabi/4.9.2/../../../../arm-none-eabi/lib/armv6k/fpu\libm.a(lib_a-e_pow.o) (fabs)
c:/devkitpro/devkitarm/bin/../lib/gcc/arm-none-eabi/4.9.2/../../../../arm-none-eabi/lib/armv6k/fpu\libm.a(lib_a-sf_fabs.o)
                              c:/devkitpro/devkitarm/bin/../lib/gcc/arm-none-eabi/4.9.2/../../../../arm-none-eabi/lib/armv6k/fpu\libm.a(lib_a-ef_rem_pio2.o) (fabsf)
c:/devkitpro/devkitarm/bin/../lib/gcc/arm-none-eabi/4.9.2/../../../../arm-none-eabi/lib/armv6k/fpu\libm.a(lib_a-sf_floor.o)
                              c:/devkitpro/devkitarm/bin/../lib/gcc/arm-none-eabi/4.9.2/../../../../arm-none-eabi/lib/armv6k/fpu\libm.a(lib_a-kf_rem_pio2.o) (floorf)
c:/devkitpro/devkitarm/bin/../lib/gcc/arm-none-eabi/4.9.2/../../../../arm-none-eabi/lib/armv6k/fpu\libm.a(lib_a-s_finite.o)
                              c:/devkitpro/devkitarm/bin/../lib/gcc/arm-none-eabi/4.9.2/../../../../arm-none-eabi/lib/armv6k/fpu\libm.a(lib_a-w_pow.o) (finite)
c:/devkitpro/devkitarm/bin/../lib/gcc/arm-none-eabi/4.9.2/../../../../arm-none-eabi/lib/armv6k/fpu\libm.a(lib_a-s_fpclassify.o)
                              c:/devkitpro/devkitarm/bin/../lib/gcc/arm-none-eabi/4.9.2/../../../../arm-none-eabi/lib/armv6k/fpu\libm.a(lib_a-w_pow.o) (__fpclassifyd)
c:/devkitpro/devkitarm/bin/../lib/gcc/arm-none-eabi/4.9.2/../../../../arm-none-eabi/lib/armv6k/fpu\libm.a(lib_a-sf_scalbn.o)
                              c:/devkitpro/devkitarm/bin/../lib/gcc/arm-none-eabi/4.9.2/../../../../arm-none-eabi/lib/armv6k/fpu\libm.a(lib_a-kf_rem_pio2.o) (scalbnf)
c:/devkitpro/devkitarm/bin/../lib/gcc/arm-none-eabi/4.9.2/../../../../arm-none-eabi/lib/armv6k/fpu\libm.a(lib_a-s_lib_ver.o)
                              c:/devkitpro/devkitarm/bin/../lib/gcc/arm-none-eabi/4.9.2/../../../../arm-none-eabi/lib/armv6k/fpu\libm.a(lib_a-w_pow.o) (__fdlib_version)
c:/devkitpro/devkitarm/bin/../lib/gcc/arm-none-eabi/4.9.2/../../../../arm-none-eabi/lib/armv6k/fpu\libm.a(lib_a-s_matherr.o)
                              c:/devkitpro/devkitarm/bin/../lib/gcc/arm-none-eabi/4.9.2/../../../../arm-none-eabi/lib/armv6k/fpu\libm.a(lib_a-w_pow.o) (matherr)
c:/devkitpro/devkitarm/bin/../lib/gcc/arm-none-eabi/4.9.2/../../../../arm-none-eabi/lib/armv6k/fpu\libm.a(lib_a-s_nan.o)
                              c:/devkitpro/devkitarm/bin/../lib/gcc/arm-none-eabi/4.9.2/../../../../arm-none-eabi/lib/armv6k/fpu\libm.a(lib_a-e_pow.o) (nan)
c:/devkitpro/devkitarm/bin/../lib/gcc/arm-none-eabi/4.9.2/../../../../arm-none-eabi/lib/armv6k/fpu\libm.a(lib_a-s_rint.o)
                              c:/devkitpro/devkitarm/bin/../lib/gcc/arm-none-eabi/4.9.2/../../../../arm-none-eabi/lib/armv6k/fpu\libm.a(lib_a-w_pow.o) (rint)
c:/devkitpro/devkitarm/bin/../lib/gcc/arm-none-eabi/4.9.2/../../../../arm-none-eabi/lib/armv6k/fpu\libm.a(lib_a-s_scalbn.o)
                              c:/devkitpro/devkitarm/bin/../lib/gcc/arm-none-eabi/4.9.2/../../../../arm-none-eabi/lib/armv6k/fpu\libm.a(lib_a-e_pow.o) (scalbn)
c:/devkitpro/devkitarm/bin/../lib/gcc/arm-none-eabi/4.9.2/../../../../arm-none-eabi/lib/armv6k/fpu\libm.a(lib_a-s_copysign.o)
                              c:/devkitpro/devkitarm/bin/../lib/gcc/arm-none-eabi/4.9.2/../../../../arm-none-eabi/lib/armv6k/fpu\libm.a(lib_a-s_scalbn.o) (copysign)
c:/devkitpro/devkitarm/bin/../lib/gcc/arm-none-eabi/4.9.2/../../../../arm-none-eabi/lib/armv6k/fpu\libm.a(lib_a-sf_copysign.o)
                              c:/devkitpro/devkitarm/bin/../lib/gcc/arm-none-eabi/4.9.2/../../../../arm-none-eabi/lib/armv6k/fpu\libm.a(lib_a-sf_scalbn.o) (copysignf)
c:/devkitpro/devkitarm/bin/../lib/gcc/arm-none-eabi/4.9.2/armv6k/fpu\libgcc.a(_udivsi3.o)
                              c:/devkitPro/portlibs/armv6k/lib\libpng.a(png.o) (__aeabi_uidiv)
c:/devkitpro/devkitarm/bin/../lib/gcc/arm-none-eabi/4.9.2/armv6k/fpu\libgcc.a(_divsi3.o)
                              c:/devkitPro/portlibs/armv6k/lib\libpng.a(pngwrite.o) (__aeabi_idiv)
c:/devkitpro/devkitarm/bin/../lib/gcc/arm-none-eabi/4.9.2/armv6k/fpu\libgcc.a(_dvmd_tls.o)
                              c:/devkitpro/devkitarm/bin/../lib/gcc/arm-none-eabi/4.9.2/armv6k/fpu\libgcc.a(_udivsi3.o) (__aeabi_idiv0)
c:/devkitpro/devkitarm/bin/../lib/gcc/arm-none-eabi/4.9.2/armv6k/fpu\libgcc.a(_arm_addsubsf3.o)
                              c:/devkitPro/libctru/lib\libsf2d.a(sf2d.o) (__aeabi_ul2f)
c:/devkitpro/devkitarm/bin/../lib/gcc/arm-none-eabi/4.9.2/armv6k/fpu\libgcc.a(_popcountsi2.o)
                              c:/devkitPro/libctru/lib\libctru.a(csnd.o) (__popcountsi2)
c:/devkitpro/devkitarm/bin/../lib/gcc/arm-none-eabi/4.9.2/../../../../arm-none-eabi/lib/armv6k/fpu\libg.a(lib_a-abort.o)
                              c:/devkitPro/portlibs/armv6k/lib\libpng.a(pngerror.o) (abort)
c:/devkitpro/devkitarm/bin/../lib/gcc/arm-none-eabi/4.9.2/../../../../arm-none-eabi/lib/armv6k/fpu\libg.a(lib_a-atof.o)
                              c:/devkitPro/portlibs/armv6k/lib\libpng.a(pngget.o) (atof)
c:/devkitpro/devkitarm/bin/../lib/gcc/arm-none-eabi/4.9.2/../../../../arm-none-eabi/lib/armv6k/fpu\libg.a(lib_a-atol.o)
                              c:/devkitPro/portlibs/armv6k/lib\libfreetype.a(type1cid.o) (atol)
c:/devkitpro/devkitarm/bin/../lib/gcc/arm-none-eabi/4.9.2/../../../../arm-none-eabi/lib/armv6k/fpu\libg.a(lib_a-bsearch.o)
                              c:/devkitPro/libctru/lib\libctru.a(sdmc_dev.o) (bsearch)
c:/devkitpro/devkitarm/bin/../lib/gcc/arm-none-eabi/4.9.2/../../../../arm-none-eabi/lib/armv6k/fpu\libg.a(lib_a-errno.o)
                              c:/devkitPro/portlibs/armv6k/lib\libpng.a(pngread.o) (__errno)
c:/devkitpro/devkitarm/bin/../lib/gcc/arm-none-eabi/4.9.2/../../../../arm-none-eabi/lib/armv6k/fpu\libg.a(lib_a-fclose.o)
                              main.o (fclose)
c:/devkitpro/devkitarm/bin/../lib/gcc/arm-none-eabi/4.9.2/../../../../arm-none-eabi/lib/armv6k/fpu\libg.a(lib_a-fflush.o)
                              c:/devkitpro/devkitarm/bin/../lib/gcc/arm-none-eabi/4.9.2/../../../../arm-none-eabi/lib/armv6k/fpu\libg.a(lib_a-fclose.o) (__sflush_r)
c:/devkitpro/devkitarm/bin/../lib/gcc/arm-none-eabi/4.9.2/../../../../arm-none-eabi/lib/armv6k/fpu\libg.a(lib_a-findfp.o)
                              c:/devkitpro/devkitarm/bin/../lib/gcc/arm-none-eabi/4.9.2/../../../../arm-none-eabi/lib/armv6k/fpu\libg.a(lib_a-fclose.o) (__sinit)
c:/devkitpro/devkitarm/bin/../lib/gcc/arm-none-eabi/4.9.2/../../../../arm-none-eabi/lib/armv6k/fpu\libg.a(lib_a-fini.o)
                              c:/devkitPro/libctru/lib\libctru.a(stack_adjust.o) (__libc_fini_array)
c:/devkitpro/devkitarm/bin/../lib/gcc/arm-none-eabi/4.9.2/../../../../arm-none-eabi/lib/armv6k/fpu\libg.a(lib_a-fopen.o)
                              main.o (fopen)
c:/devkitpro/devkitarm/bin/../lib/gcc/arm-none-eabi/4.9.2/../../../../arm-none-eabi/lib/armv6k/fpu\libg.a(lib_a-fprintf.o)
                              c:/devkitPro/portlibs/armv6k/lib\libpng.a(pngerror.o) (fprintf)
c:/devkitpro/devkitarm/bin/../lib/gcc/arm-none-eabi/4.9.2/../../../../arm-none-eabi/lib/armv6k/fpu\libg.a(lib_a-fputc.o)
                              c:/devkitPro/portlibs/armv6k/lib\libpng.a(pngerror.o) (fputc)
c:/devkitpro/devkitarm/bin/../lib/gcc/arm-none-eabi/4.9.2/../../../../arm-none-eabi/lib/armv6k/fpu\libg.a(lib_a-fread.o)
                              main.o (fread)
c:/devkitpro/devkitarm/bin/../lib/gcc/arm-none-eabi/4.9.2/../../../../arm-none-eabi/lib/armv6k/fpu\libg.a(lib_a-freer.o)
                              c:/devkitpro/devkitarm/bin/../lib/gcc/arm-none-eabi/4.9.2/../../../../arm-none-eabi/lib/armv6k/fpu\libg.a(lib_a-fclose.o) (_free_r)
c:/devkitpro/devkitarm/bin/../lib/gcc/arm-none-eabi/4.9.2/../../../../arm-none-eabi/lib/armv6k/fpu\libg.a(lib_a-fseek.o)
                              c:/devkitpro/devkitarm/bin/../lib/gcc/arm-none-eabi/4.9.2/../../../../arm-none-eabi/lib/armv6k/fpu\libg.a(lib_a-fopen.o) (_fseek_r)
c:/devkitpro/devkitarm/bin/../lib/gcc/arm-none-eabi/4.9.2/../../../../arm-none-eabi/lib/armv6k/fpu\libg.a(lib_a-fseeko.o)
                              c:/devkitpro/devkitarm/bin/../lib/gcc/arm-none-eabi/4.9.2/../../../../arm-none-eabi/lib/armv6k/fpu\libg.a(lib_a-fseek.o) (_fseeko_r)
c:/devkitpro/devkitarm/bin/../lib/gcc/arm-none-eabi/4.9.2/../../../../arm-none-eabi/lib/armv6k/fpu\libg.a(lib_a-ftell.o)
                              main.o (ftell)
c:/devkitpro/devkitarm/bin/../lib/gcc/arm-none-eabi/4.9.2/../../../../arm-none-eabi/lib/armv6k/fpu\libg.a(lib_a-ftello.o)
                              c:/devkitpro/devkitarm/bin/../lib/gcc/arm-none-eabi/4.9.2/../../../../arm-none-eabi/lib/armv6k/fpu\libg.a(lib_a-ftell.o) (_ftello_r)
c:/devkitpro/devkitarm/bin/../lib/gcc/arm-none-eabi/4.9.2/../../../../arm-none-eabi/lib/armv6k/fpu\libg.a(lib_a-fwalk.o)
                              c:/devkitpro/devkitarm/bin/../lib/gcc/arm-none-eabi/4.9.2/../../../../arm-none-eabi/lib/armv6k/fpu\libg.a(lib_a-findfp.o) (_fwalk)
c:/devkitpro/devkitarm/bin/../lib/gcc/arm-none-eabi/4.9.2/../../../../arm-none-eabi/lib/armv6k/fpu\libg.a(lib_a-fwrite.o)
                              c:/devkitPro/portlibs/armv6k/lib\libpng.a(pngwio.o) (fwrite)
c:/devkitpro/devkitarm/bin/../lib/gcc/arm-none-eabi/4.9.2/../../../../arm-none-eabi/lib/armv6k/fpu\libg.a(lib_a-gmtime.o)
                              c:/devkitPro/portlibs/armv6k/lib\libpng.a(pngwrite.o) (gmtime)
c:/devkitpro/devkitarm/bin/../lib/gcc/arm-none-eabi/4.9.2/../../../../arm-none-eabi/lib/armv6k/fpu\libg.a(lib_a-gmtime_r.o)
                              c:/devkitpro/devkitarm/bin/../lib/gcc/arm-none-eabi/4.9.2/../../../../arm-none-eabi/lib/armv6k/fpu\libg.a(lib_a-gmtime.o) (gmtime_r)
c:/devkitpro/devkitarm/bin/../lib/gcc/arm-none-eabi/4.9.2/../../../../arm-none-eabi/lib/armv6k/fpu\libg.a(lib_a-impure.o)
                              c:/devkitpro/devkitarm/bin/../lib/gcc/arm-none-eabi/4.9.2/../../../../arm-none-eabi/lib/armv6k/fpu\libg.a(lib_a-fflush.o) (_global_impure_ptr)
c:/devkitpro/devkitarm/bin/../lib/gcc/arm-none-eabi/4.9.2/../../../../arm-none-eabi/lib/armv6k/fpu\libg.a(lib_a-init.o)
                              c:/devkitPro/libctru/lib\libctru.a(stack_adjust.o) (__libc_init_array)
c:/devkitpro/devkitarm/bin/../lib/gcc/arm-none-eabi/4.9.2/../../../../arm-none-eabi/lib/armv6k/fpu\libg.a(lib_a-makebuf.o)
                              c:/devkitpro/devkitarm/bin/../lib/gcc/arm-none-eabi/4.9.2/../../../../arm-none-eabi/lib/armv6k/fpu\libg.a(lib_a-fseeko.o) (__smakebuf_r)
c:/devkitpro/devkitarm/bin/../lib/gcc/arm-none-eabi/4.9.2/../../../../arm-none-eabi/lib/armv6k/fpu\libg.a(lib_a-malloc.o)
                              c:/devkitPro/libctru/lib\libsfil.a(sfil_png.o) (malloc)
c:/devkitpro/devkitarm/bin/../lib/gcc/arm-none-eabi/4.9.2/../../../../arm-none-eabi/lib/armv6k/fpu\libg.a(lib_a-mallocr.o)
                              c:/devkitpro/devkitarm/bin/../lib/gcc/arm-none-eabi/4.9.2/../../../../arm-none-eabi/lib/armv6k/fpu\libg.a(lib_a-findfp.o) (_malloc_r)
c:/devkitpro/devkitarm/bin/../lib/gcc/arm-none-eabi/4.9.2/../../../../arm-none-eabi/lib/armv6k/fpu\libg.a(lib_a-memchr.o)
                              c:/devkitPro/portlibs/armv6k/lib\libfreetype.a(type1.o) (memchr)
c:/devkitpro/devkitarm/bin/../lib/gcc/arm-none-eabi/4.9.2/../../../../arm-none-eabi/lib/armv6k/fpu\libg.a(lib_a-memcmp.o)
                              c:/devkitPro/portlibs/armv6k/lib\libpng.a(png.o) (memcmp)
c:/devkitpro/devkitarm/bin/../lib/gcc/arm-none-eabi/4.9.2/../../../../arm-none-eabi/lib/armv6k/fpu\libg.a(lib_a-memcpy.o)
                              c:/devkitPro/libctru/lib\libsfil.a(sfil_png.o) (memcpy)
c:/devkitpro/devkitarm/bin/../lib/gcc/arm-none-eabi/4.9.2/../../../../arm-none-eabi/lib/armv6k/fpu\libg.a(lib_a-memmove.o)
                              c:/devkitPro/portlibs/armv6k/lib\libfreetype.a(ftbase.o) (memmove)
c:/devkitpro/devkitarm/bin/../lib/gcc/arm-none-eabi/4.9.2/../../../../arm-none-eabi/lib/armv6k/fpu\libg.a(lib_a-memset.o)
                              main.o (memset)
c:/devkitpro/devkitarm/bin/../lib/gcc/arm-none-eabi/4.9.2/../../../../arm-none-eabi/lib/armv6k/fpu\libg.a(lib_a-mlock.o)
                              c:/devkitpro/devkitarm/bin/../lib/gcc/arm-none-eabi/4.9.2/../../../../arm-none-eabi/lib/armv6k/fpu\libg.a(lib_a-freer.o) (__malloc_lock)
c:/devkitpro/devkitarm/bin/../lib/gcc/arm-none-eabi/4.9.2/../../../../arm-none-eabi/lib/armv6k/fpu\libg.a(lib_a-month_lengths.o)
                              c:/devkitpro/devkitarm/bin/../lib/gcc/arm-none-eabi/4.9.2/../../../../arm-none-eabi/lib/armv6k/fpu\libg.a(lib_a-gmtime_r.o) (__month_lengths)
c:/devkitpro/devkitarm/bin/../lib/gcc/arm-none-eabi/4.9.2/../../../../arm-none-eabi/lib/armv6k/fpu\libg.a(lib_a-putc.o)
                              c:/devkitpro/devkitarm/bin/../lib/gcc/arm-none-eabi/4.9.2/../../../../arm-none-eabi/lib/armv6k/fpu\libg.a(lib_a-fputc.o) (_putc_r)
c:/devkitpro/devkitarm/bin/../lib/gcc/arm-none-eabi/4.9.2/../../../../arm-none-eabi/lib/armv6k/fpu\libg.a(lib_a-qsort.o)
                              c:/devkitPro/portlibs/armv6k/lib\libfreetype.a(ftbase.o) (qsort)
c:/devkitpro/devkitarm/bin/../lib/gcc/arm-none-eabi/4.9.2/../../../../arm-none-eabi/lib/armv6k/fpu\libg.a(lib_a-realloc.o)
                              c:/devkitPro/portlibs/armv6k/lib\libfreetype.a(ftsystem.o) (realloc)
c:/devkitpro/devkitarm/bin/../lib/gcc/arm-none-eabi/4.9.2/../../../../arm-none-eabi/lib/armv6k/fpu\libg.a(lib_a-reallocr.o)
                              c:/devkitpro/devkitarm/bin/../lib/gcc/arm-none-eabi/4.9.2/../../../../arm-none-eabi/lib/armv6k/fpu\libg.a(lib_a-realloc.o) (_realloc_r)
c:/devkitpro/devkitarm/bin/../lib/gcc/arm-none-eabi/4.9.2/../../../../arm-none-eabi/lib/armv6k/fpu\libg.a(lib_a-refill.o)
                              c:/devkitpro/devkitarm/bin/../lib/gcc/arm-none-eabi/4.9.2/../../../../arm-none-eabi/lib/armv6k/fpu\libg.a(lib_a-fread.o) (__srefill_r)
c:/devkitpro/devkitarm/bin/../lib/gcc/arm-none-eabi/4.9.2/../../../../arm-none-eabi/lib/armv6k/fpu\libg.a(lib_a-remove.o)
                              c:/devkitPro/portlibs/armv6k/lib\libpng.a(pngwrite.o) (remove)
c:/devkitpro/devkitarm/bin/../lib/gcc/arm-none-eabi/4.9.2/../../../../arm-none-eabi/lib/armv6k/fpu\libg.a(lib_a-setjmp.o)
                              c:/devkitPro/libctru/lib\libsfil.a(sfil_png.o) (setjmp)
c:/devkitpro/devkitarm/bin/../lib/gcc/arm-none-eabi/4.9.2/../../../../arm-none-eabi/lib/armv6k/fpu\libg.a(lib_a-signal.o)
                              c:/devkitpro/devkitarm/bin/../lib/gcc/arm-none-eabi/4.9.2/../../../../arm-none-eabi/lib/armv6k/fpu\libg.a(lib_a-abort.o) (raise)
c:/devkitpro/devkitarm/bin/../lib/gcc/arm-none-eabi/4.9.2/../../../../arm-none-eabi/lib/armv6k/fpu\libg.a(lib_a-snprintf.o)
                              c:/devkitPro/libctru/lib\libctru.a(os.o) (snprintf)
c:/devkitpro/devkitarm/bin/../lib/gcc/arm-none-eabi/4.9.2/../../../../arm-none-eabi/lib/armv6k/fpu\libg.a(lib_a-sprintf.o)
                              c:/devkitPro/libctru/lib\libsftd.a(sftd.o) (sprintf)
c:/devkitpro/devkitarm/bin/../lib/gcc/arm-none-eabi/4.9.2/../../../../arm-none-eabi/lib/armv6k/fpu\libg.a(lib_a-stdio.o)
                              c:/devkitpro/devkitarm/bin/../lib/gcc/arm-none-eabi/4.9.2/../../../../arm-none-eabi/lib/armv6k/fpu\libg.a(lib_a-findfp.o) (__sread)
c:/devkitpro/devkitarm/bin/../lib/gcc/arm-none-eabi/4.9.2/../../../../arm-none-eabi/lib/armv6k/fpu\libg.a(lib_a-strchr.o)
                              c:/devkitPro/libctru/lib\libctru.a(romfs_dev.o) (strchr)
c:/devkitpro/devkitarm/bin/../lib/gcc/arm-none-eabi/4.9.2/../../../../arm-none-eabi/lib/armv6k/fpu\libg.a(lib_a-strcmp.o)
                              c:/devkitPro/portlibs/armv6k/lib\libfreetype.a(ftbase.o) (strcmp)
c:/devkitpro/devkitarm/bin/../lib/gcc/arm-none-eabi/4.9.2/../../../../arm-none-eabi/lib/armv6k/fpu\libg.a(lib_a-strcpy.o)
                              c:/devkitPro/portlibs/armv6k/lib\libfreetype.a(ftbase.o) (strcpy)
c:/devkitpro/devkitarm/bin/../lib/gcc/arm-none-eabi/4.9.2/../../../../arm-none-eabi/lib/armv6k/fpu\libg.a(lib_a-strerror.o)
                              c:/devkitPro/portlibs/armv6k/lib\libpng.a(pngread.o) (strerror)
c:/devkitpro/devkitarm/bin/../lib/gcc/arm-none-eabi/4.9.2/../../../../arm-none-eabi/lib/armv6k/fpu\libg.a(lib_a-strlen.o)
                              c:/devkitPro/portlibs/armv6k/lib\libpng.a(pngrutil.o) (strlen)
c:/devkitpro/devkitarm/bin/../lib/gcc/arm-none-eabi/4.9.2/../../../../arm-none-eabi/lib/armv6k/fpu\libg.a(lib_a-strncat.o)
                              c:/devkitPro/libctru/lib\libctru.a(romfs_dev.o) (strncat)
c:/devkitpro/devkitarm/bin/../lib/gcc/arm-none-eabi/4.9.2/../../../../arm-none-eabi/lib/armv6k/fpu\libg.a(lib_a-strncmp.o)
                              c:/devkitPro/portlibs/armv6k/lib\libfreetype.a(truetype.o) (strncmp)
c:/devkitpro/devkitarm/bin/../lib/gcc/arm-none-eabi/4.9.2/../../../../arm-none-eabi/lib/armv6k/fpu\libg.a(lib_a-strncpy.o)
                              c:/devkitPro/portlibs/armv6k/lib\libfreetype.a(ftbase.o) (strncpy)
c:/devkitpro/devkitarm/bin/../lib/gcc/arm-none-eabi/4.9.2/../../../../arm-none-eabi/lib/armv6k/fpu\libg.a(lib_a-strrchr.o)
                              c:/devkitPro/portlibs/armv6k/lib\libfreetype.a(ftbase.o) (strrchr)
c:/devkitpro/devkitarm/bin/../lib/gcc/arm-none-eabi/4.9.2/../../../../arm-none-eabi/lib/armv6k/fpu\libg.a(lib_a-strstr.o)
                              c:/devkitPro/portlibs/armv6k/lib\libfreetype.a(truetype.o) (strstr)
c:/devkitpro/devkitarm/bin/../lib/gcc/arm-none-eabi/4.9.2/../../../../arm-none-eabi/lib/armv6k/fpu\libg.a(lib_a-strtod.o)
                              c:/devkitpro/devkitarm/bin/../lib/gcc/arm-none-eabi/4.9.2/../../../../arm-none-eabi/lib/armv6k/fpu\libg.a(lib_a-atof.o) (strtod)
c:/devkitpro/devkitarm/bin/../lib/gcc/arm-none-eabi/4.9.2/../../../../arm-none-eabi/lib/armv6k/fpu\libg.a(lib_a-strtok.o)
                              c:/devkitPro/libctru/lib\libsftd.a(sftd.o) (strtok)
c:/devkitpro/devkitarm/bin/../lib/gcc/arm-none-eabi/4.9.2/../../../../arm-none-eabi/lib/armv6k/fpu\libg.a(lib_a-strtok_r.o)
                              c:/devkitpro/devkitarm/bin/../lib/gcc/arm-none-eabi/4.9.2/../../../../arm-none-eabi/lib/armv6k/fpu\libg.a(lib_a-strtok.o) (__strtok_r)
c:/devkitpro/devkitarm/bin/../lib/gcc/arm-none-eabi/4.9.2/../../../../arm-none-eabi/lib/armv6k/fpu\libg.a(lib_a-strtol.o)
                              c:/devkitpro/devkitarm/bin/../lib/gcc/arm-none-eabi/4.9.2/../../../../arm-none-eabi/lib/armv6k/fpu\libg.a(lib_a-atol.o) (_strtol_r)
c:/devkitpro/devkitarm/bin/../lib/gcc/arm-none-eabi/4.9.2/../../../../arm-none-eabi/lib/armv6k/fpu\libg.a(lib_a-svfprintf.o)
                              c:/devkitpro/devkitarm/bin/../lib/gcc/arm-none-eabi/4.9.2/../../../../arm-none-eabi/lib/armv6k/fpu\libg.a(lib_a-snprintf.o) (_svfprintf_r)
c:/devkitpro/devkitarm/bin/../lib/gcc/arm-none-eabi/4.9.2/../../../../arm-none-eabi/lib/armv6k/fpu\libg.a(lib_a-u_strerr.o)
                              c:/devkitpro/devkitarm/bin/../lib/gcc/arm-none-eabi/4.9.2/../../../../arm-none-eabi/lib/armv6k/fpu\libg.a(lib_a-strerror.o) (_user_strerror)
c:/devkitpro/devkitarm/bin/../lib/gcc/arm-none-eabi/4.9.2/../../../../arm-none-eabi/lib/armv6k/fpu\libg.a(lib_a-vfprintf.o)
                              c:/devkitpro/devkitarm/bin/../lib/gcc/arm-none-eabi/4.9.2/../../../../arm-none-eabi/lib/armv6k/fpu\libg.a(lib_a-fprintf.o) (_vfprintf_r)
c:/devkitpro/devkitarm/bin/../lib/gcc/arm-none-eabi/4.9.2/../../../../arm-none-eabi/lib/armv6k/fpu\libg.a(lib_a-vsnprintf.o)
                              c:/devkitPro/libctru/lib\libsftd.a(sftd.o) (vsnprintf)
c:/devkitpro/devkitarm/bin/../lib/gcc/arm-none-eabi/4.9.2/../../../../arm-none-eabi/lib/armv6k/fpu\libg.a(lib_a-vswprintf.o)
                              c:/devkitPro/libctru/lib\libsftd.a(sftd.o) (vswprintf)
c:/devkitpro/devkitarm/bin/../lib/gcc/arm-none-eabi/4.9.2/../../../../arm-none-eabi/lib/armv6k/fpu\libg.a(lib_a-wbuf.o)
                              c:/devkitpro/devkitarm/bin/../lib/gcc/arm-none-eabi/4.9.2/../../../../arm-none-eabi/lib/armv6k/fpu\libg.a(lib_a-putc.o) (__swbuf_r)
c:/devkitpro/devkitarm/bin/../lib/gcc/arm-none-eabi/4.9.2/../../../../arm-none-eabi/lib/armv6k/fpu\libg.a(lib_a-wcrtomb.o)
                              c:/devkitpro/devkitarm/bin/../lib/gcc/arm-none-eabi/4.9.2/../../../../arm-none-eabi/lib/armv6k/fpu\libg.a(lib_a-svfprintf.o) (_wcrtomb_r)
c:/devkitpro/devkitarm/bin/../lib/gcc/arm-none-eabi/4.9.2/../../../../arm-none-eabi/lib/armv6k/fpu\libg.a(lib_a-wcsrtombs.o)
                              c:/devkitpro/devkitarm/bin/../lib/gcc/arm-none-eabi/4.9.2/../../../../arm-none-eabi/lib/armv6k/fpu\libg.a(lib_a-svfprintf.o) (_wcsrtombs_r)
c:/devkitpro/devkitarm/bin/../lib/gcc/arm-none-eabi/4.9.2/../../../../arm-none-eabi/lib/armv6k/fpu\libg.a(lib_a-wctomb_r.o)
                              c:/devkitpro/devkitarm/bin/../lib/gcc/arm-none-eabi/4.9.2/../../../../arm-none-eabi/lib/armv6k/fpu\libg.a(lib_a-wcrtomb.o) (__wctomb)
c:/devkitpro/devkitarm/bin/../lib/gcc/arm-none-eabi/4.9.2/../../../../arm-none-eabi/lib/armv6k/fpu\libg.a(lib_a-wsetup.o)
                              c:/devkitpro/devkitarm/bin/../lib/gcc/arm-none-eabi/4.9.2/../../../../arm-none-eabi/lib/armv6k/fpu\libg.a(lib_a-vfprintf.o) (__swsetup_r)
c:/devkitpro/devkitarm/bin/../lib/gcc/arm-none-eabi/4.9.2/../../../../arm-none-eabi/lib/armv6k/fpu\libg.a(lib_a-ctype_.o)
                              c:/devkitpro/devkitarm/bin/../lib/gcc/arm-none-eabi/4.9.2/../../../../arm-none-eabi/lib/armv6k/fpu\libg.a(lib_a-strtol.o) (__ctype_ptr__)
c:/devkitpro/devkitarm/bin/../lib/gcc/arm-none-eabi/4.9.2/../../../../arm-none-eabi/lib/armv6k/fpu\libg.a(lib_a-dtoa.o)
                              c:/devkitpro/devkitarm/bin/../lib/gcc/arm-none-eabi/4.9.2/../../../../arm-none-eabi/lib/armv6k/fpu\libg.a(lib_a-svfprintf.o) (_dtoa_r)
c:/devkitpro/devkitarm/bin/../lib/gcc/arm-none-eabi/4.9.2/../../../../arm-none-eabi/lib/armv6k/fpu\libg.a(lib_a-flags.o)
                              c:/devkitpro/devkitarm/bin/../lib/gcc/arm-none-eabi/4.9.2/../../../../arm-none-eabi/lib/armv6k/fpu\libg.a(lib_a-fopen.o) (__sflags)
c:/devkitpro/devkitarm/bin/../lib/gcc/arm-none-eabi/4.9.2/../../../../arm-none-eabi/lib/armv6k/fpu\libg.a(lib_a-fvwrite.o)
                              c:/devkitpro/devkitarm/bin/../lib/gcc/arm-none-eabi/4.9.2/../../../../arm-none-eabi/lib/armv6k/fpu\libg.a(lib_a-fwrite.o) (__sfvwrite_r)
c:/devkitpro/devkitarm/bin/../lib/gcc/arm-none-eabi/4.9.2/../../../../arm-none-eabi/lib/armv6k/fpu\libg.a(lib_a-gdtoa-gethex.o)
                              c:/devkitpro/devkitarm/bin/../lib/gcc/arm-none-eabi/4.9.2/../../../../arm-none-eabi/lib/armv6k/fpu\libg.a(lib_a-strtod.o) (__gethex)
c:/devkitpro/devkitarm/bin/../lib/gcc/arm-none-eabi/4.9.2/../../../../arm-none-eabi/lib/armv6k/fpu\libg.a(lib_a-gdtoa-hexnan.o)
                              c:/devkitpro/devkitarm/bin/../lib/gcc/arm-none-eabi/4.9.2/../../../../arm-none-eabi/lib/armv6k/fpu\libg.a(lib_a-strtod.o) (__hexnan)
c:/devkitpro/devkitarm/bin/../lib/gcc/arm-none-eabi/4.9.2/../../../../arm-none-eabi/lib/armv6k/fpu\libg.a(lib_a-locale.o)
                              c:/devkitpro/devkitarm/bin/../lib/gcc/arm-none-eabi/4.9.2/../../../../arm-none-eabi/lib/armv6k/fpu\libg.a(lib_a-svfprintf.o) (__locale_charset)
c:/devkitpro/devkitarm/bin/../lib/gcc/arm-none-eabi/4.9.2/../../../../arm-none-eabi/lib/armv6k/fpu\libg.a(lib_a-mbtowc_r.o)
                              c:/devkitpro/devkitarm/bin/../lib/gcc/arm-none-eabi/4.9.2/../../../../arm-none-eabi/lib/armv6k/fpu\libg.a(lib_a-locale.o) (__utf8_mbtowc)
c:/devkitpro/devkitarm/bin/../lib/gcc/arm-none-eabi/4.9.2/../../../../arm-none-eabi/lib/armv6k/fpu\libg.a(lib_a-mprec.o)
                              c:/devkitpro/devkitarm/bin/../lib/gcc/arm-none-eabi/4.9.2/../../../../arm-none-eabi/lib/armv6k/fpu\libg.a(lib_a-strtod.o) (_Balloc)
c:/devkitpro/devkitarm/bin/../lib/gcc/arm-none-eabi/4.9.2/../../../../arm-none-eabi/lib/armv6k/fpu\libg.a(lib_a-sf_nan.o)
                              c:/devkitpro/devkitarm/bin/../lib/gcc/arm-none-eabi/4.9.2/../../../../arm-none-eabi/lib/armv6k/fpu\libg.a(lib_a-strtod.o) (nanf)
c:/devkitpro/devkitarm/bin/../lib/gcc/arm-none-eabi/4.9.2/../../../../arm-none-eabi/lib/armv6k/fpu\libg.a(lib_a-strcasecmp.o)
                              c:/devkitpro/devkitarm/bin/../lib/gcc/arm-none-eabi/4.9.2/../../../../arm-none-eabi/lib/armv6k/fpu\libg.a(lib_a-locale.o) (strcasecmp)
c:/devkitpro/devkitarm/bin/../lib/gcc/arm-none-eabi/4.9.2/../../../../arm-none-eabi/lib/armv6k/fpu\libg.a(lib_a-strcat.o)
                              c:/devkitpro/devkitarm/bin/../lib/gcc/arm-none-eabi/4.9.2/../../../../arm-none-eabi/lib/armv6k/fpu\libg.a(lib_a-locale.o) (strcat)
c:/devkitpro/devkitarm/bin/../lib/gcc/arm-none-eabi/4.9.2/../../../../arm-none-eabi/lib/armv6k/fpu\libg.a(lib_a-strlcpy.o)
                              c:/devkitpro/devkitarm/bin/../lib/gcc/arm-none-eabi/4.9.2/../../../../arm-none-eabi/lib/armv6k/fpu\libg.a(lib_a-locale.o) (strlcpy)
c:/devkitpro/devkitarm/bin/../lib/gcc/arm-none-eabi/4.9.2/../../../../arm-none-eabi/lib/armv6k/fpu\libg.a(lib_a-strncasecmp.o)
                              c:/devkitpro/devkitarm/bin/../lib/gcc/arm-none-eabi/4.9.2/../../../../arm-none-eabi/lib/armv6k/fpu\libg.a(lib_a-locale.o) (strncasecmp)
c:/devkitpro/devkitarm/bin/../lib/gcc/arm-none-eabi/4.9.2/../../../../arm-none-eabi/lib/armv6k/fpu\libg.a(lib_a-svfiprintf.o)
                              c:/devkitpro/devkitarm/bin/../lib/gcc/arm-none-eabi/4.9.2/../../../../arm-none-eabi/lib/armv6k/fpu\libg.a(lib_a-svfprintf.o) (__ssprint_r)
c:/devkitpro/devkitarm/bin/../lib/gcc/arm-none-eabi/4.9.2/../../../../arm-none-eabi/lib/armv6k/fpu\libg.a(lib_a-svfwprintf.o)
                              c:/devkitpro/devkitarm/bin/../lib/gcc/arm-none-eabi/4.9.2/../../../../arm-none-eabi/lib/armv6k/fpu\libg.a(lib_a-vswprintf.o) (_svfwprintf_r)
c:/devkitpro/devkitarm/bin/../lib/gcc/arm-none-eabi/4.9.2/../../../../arm-none-eabi/lib/armv6k/fpu\libg.a(lib_a-vfiprintf.o)
                              c:/devkitpro/devkitarm/bin/../lib/gcc/arm-none-eabi/4.9.2/../../../../arm-none-eabi/lib/armv6k/fpu\libg.a(lib_a-vfprintf.o) (__sprint_r)
c:/devkitpro/devkitarm/bin/../lib/gcc/arm-none-eabi/4.9.2/../../../../arm-none-eabi/lib/armv6k/fpu\libg.a(lib_a-wcslen.o)
                              c:/devkitpro/devkitarm/bin/../lib/gcc/arm-none-eabi/4.9.2/../../../../arm-none-eabi/lib/armv6k/fpu\libg.a(lib_a-svfwprintf.o) (wcslen)
c:/devkitpro/devkitarm/bin/../lib/gcc/arm-none-eabi/4.9.2/../../../../arm-none-eabi/lib/armv6k/fpu\libg.a(lib_a-wcsnrtombs.o)
                              c:/devkitpro/devkitarm/bin/../lib/gcc/arm-none-eabi/4.9.2/../../../../arm-none-eabi/lib/armv6k/fpu\libg.a(lib_a-wcsrtombs.o) (_wcsnrtombs_r)
c:/devkitpro/devkitarm/bin/../lib/gcc/arm-none-eabi/4.9.2/../../../../arm-none-eabi/lib/armv6k/fpu\libg.a(lib_a-wmemchr.o)
                              c:/devkitpro/devkitarm/bin/../lib/gcc/arm-none-eabi/4.9.2/../../../../arm-none-eabi/lib/armv6k/fpu\libg.a(lib_a-svfwprintf.o) (wmemchr)
c:/devkitpro/devkitarm/bin/../lib/gcc/arm-none-eabi/4.9.2/../../../../arm-none-eabi/lib/armv6k/fpu\libg.a(lib_a-btowc.o)
                              c:/devkitpro/devkitarm/bin/../lib/gcc/arm-none-eabi/4.9.2/../../../../arm-none-eabi/lib/armv6k/fpu\libg.a(lib_a-svfwprintf.o) (btowc)
c:/devkitpro/devkitarm/bin/../lib/gcc/arm-none-eabi/4.9.2/../../../../arm-none-eabi/lib/armv6k/fpu\libg.a(lib_a-callocr.o)
                              c:/devkitpro/devkitarm/bin/../lib/gcc/arm-none-eabi/4.9.2/../../../../arm-none-eabi/lib/armv6k/fpu\libg.a(lib_a-mprec.o) (_calloc_r)
c:/devkitpro/devkitarm/bin/../lib/gcc/arm-none-eabi/4.9.2/../../../../arm-none-eabi/lib/armv6k/fpu\libg.a(lib_a-fputwc.o)
                              c:/devkitpro/devkitarm/bin/../lib/gcc/arm-none-eabi/4.9.2/../../../../arm-none-eabi/lib/armv6k/fpu\libg.a(lib_a-vfiprintf.o) (_fputwc_r)
c:/devkitpro/devkitarm/bin/../lib/gcc/arm-none-eabi/4.9.2/../../../../arm-none-eabi/lib/armv6k/fpu\libg.a(lib_a-getenv_r.o)
                              c:/devkitpro/devkitarm/bin/../lib/gcc/arm-none-eabi/4.9.2/../../../../arm-none-eabi/lib/armv6k/fpu\libg.a(lib_a-locale.o) (_getenv_r)
c:/devkitpro/devkitarm/bin/../lib/gcc/arm-none-eabi/4.9.2/../../../../arm-none-eabi/lib/armv6k/fpu\libg.a(lib_a-mbrlen.o)
                              c:/devkitpro/devkitarm/bin/../lib/gcc/arm-none-eabi/4.9.2/../../../../arm-none-eabi/lib/armv6k/fpu\libg.a(lib_a-svfwprintf.o) (mbrlen)
c:/devkitpro/devkitarm/bin/../lib/gcc/arm-none-eabi/4.9.2/../../../../arm-none-eabi/lib/armv6k/fpu\libg.a(lib_a-mbrtowc.o)
                              c:/devkitpro/devkitarm/bin/../lib/gcc/arm-none-eabi/4.9.2/../../../../arm-none-eabi/lib/armv6k/fpu\libg.a(lib_a-svfwprintf.o) (_mbrtowc_r)
c:/devkitpro/devkitarm/bin/../lib/gcc/arm-none-eabi/4.9.2/../../../../arm-none-eabi/lib/armv6k/fpu\libg.a(lib_a-mbsnrtowcs.o)
                              c:/devkitpro/devkitarm/bin/../lib/gcc/arm-none-eabi/4.9.2/../../../../arm-none-eabi/lib/armv6k/fpu\libg.a(lib_a-svfwprintf.o) (_mbsnrtowcs_r)
c:/devkitpro/devkitarm/bin/../lib/gcc/arm-none-eabi/4.9.2/../../../../arm-none-eabi/lib/armv6k/fpu\libg.a(lib_a-environ.o)
                              c:/devkitpro/devkitarm/bin/../lib/gcc/arm-none-eabi/4.9.2/../../../../arm-none-eabi/lib/armv6k/fpu\libg.a(lib_a-getenv_r.o) (environ)
c:/devkitpro/devkitarm/bin/../lib/gcc/arm-none-eabi/4.9.2/../../../../arm-none-eabi/lib/armv6k/fpu\libg.a(lib_a-envlock.o)
                              c:/devkitpro/devkitarm/bin/../lib/gcc/arm-none-eabi/4.9.2/../../../../arm-none-eabi/lib/armv6k/fpu\libg.a(lib_a-getenv_r.o) (__env_lock)
c:/devkitpro/devkitarm/bin/../lib/gcc/arm-none-eabi/4.9.2/../../../../arm-none-eabi/lib/armv6k/fpu\libsysbase.a(iosupport.o)
                              c:/devkitPro/libctru/lib\libctru.a(sdmc_dev.o) (setDefaultDevice)
c:/devkitpro/devkitarm/bin/../lib/gcc/arm-none-eabi/4.9.2/../../../../arm-none-eabi/lib/armv6k/fpu\libsysbase.a(close.o)
                              c:/devkitpro/devkitarm/bin/../lib/gcc/arm-none-eabi/4.9.2/../../../../arm-none-eabi/lib/armv6k/fpu\libg.a(lib_a-stdio.o) (_close_r)
c:/devkitpro/devkitarm/bin/../lib/gcc/arm-none-eabi/4.9.2/../../../../arm-none-eabi/lib/armv6k/fpu\libsysbase.a(fstat.o)
                              c:/devkitpro/devkitarm/bin/../lib/gcc/arm-none-eabi/4.9.2/../../../../arm-none-eabi/lib/armv6k/fpu\libg.a(lib_a-fseeko.o) (_fstat_r)
c:/devkitpro/devkitarm/bin/../lib/gcc/arm-none-eabi/4.9.2/../../../../arm-none-eabi/lib/armv6k/fpu\libsysbase.a(getpid.o)
                              c:/devkitpro/devkitarm/bin/../lib/gcc/arm-none-eabi/4.9.2/../../../../arm-none-eabi/lib/armv6k/fpu\libg.a(lib_a-signal.o) (_getpid_r)
c:/devkitpro/devkitarm/bin/../lib/gcc/arm-none-eabi/4.9.2/../../../../arm-none-eabi/lib/armv6k/fpu\libsysbase.a(isatty.o)
                              c:/devkitpro/devkitarm/bin/../lib/gcc/arm-none-eabi/4.9.2/../../../../arm-none-eabi/lib/armv6k/fpu\libg.a(lib_a-makebuf.o) (_isatty_r)
c:/devkitpro/devkitarm/bin/../lib/gcc/arm-none-eabi/4.9.2/../../../../arm-none-eabi/lib/armv6k/fpu\libsysbase.a(kill.o)
                              c:/devkitpro/devkitarm/bin/../lib/gcc/arm-none-eabi/4.9.2/../../../../arm-none-eabi/lib/armv6k/fpu\libg.a(lib_a-signal.o) (_kill_r)
c:/devkitpro/devkitarm/bin/../lib/gcc/arm-none-eabi/4.9.2/../../../../arm-none-eabi/lib/armv6k/fpu\libsysbase.a(lseek.o)
                              c:/devkitpro/devkitarm/bin/../lib/gcc/arm-none-eabi/4.9.2/../../../../arm-none-eabi/lib/armv6k/fpu\libg.a(lib_a-stdio.o) (_lseek_r)
c:/devkitpro/devkitarm/bin/../lib/gcc/arm-none-eabi/4.9.2/../../../../arm-none-eabi/lib/armv6k/fpu\libsysbase.a(open.o)
                              c:/devkitpro/devkitarm/bin/../lib/gcc/arm-none-eabi/4.9.2/../../../../arm-none-eabi/lib/armv6k/fpu\libg.a(lib_a-fopen.o) (_open_r)
c:/devkitpro/devkitarm/bin/../lib/gcc/arm-none-eabi/4.9.2/../../../../arm-none-eabi/lib/armv6k/fpu\libsysbase.a(read.o)
                              c:/devkitpro/devkitarm/bin/../lib/gcc/arm-none-eabi/4.9.2/../../../../arm-none-eabi/lib/armv6k/fpu\libg.a(lib_a-stdio.o) (_read_r)
c:/devkitpro/devkitarm/bin/../lib/gcc/arm-none-eabi/4.9.2/../../../../arm-none-eabi/lib/armv6k/fpu\libsysbase.a(sbrk.o)
                              c:/devkitpro/devkitarm/bin/../lib/gcc/arm-none-eabi/4.9.2/../../../../arm-none-eabi/lib/armv6k/fpu\libg.a(lib_a-freer.o) (_sbrk_r)
c:/devkitpro/devkitarm/bin/../lib/gcc/arm-none-eabi/4.9.2/../../../../arm-none-eabi/lib/armv6k/fpu\libsysbase.a(unlink.o)
                              c:/devkitpro/devkitarm/bin/../lib/gcc/arm-none-eabi/4.9.2/../../../../arm-none-eabi/lib/armv6k/fpu\libg.a(lib_a-remove.o) (_unlink_r)
c:/devkitpro/devkitarm/bin/../lib/gcc/arm-none-eabi/4.9.2/../../../../arm-none-eabi/lib/armv6k/fpu\libsysbase.a(write.o)
                              c:/devkitpro/devkitarm/bin/../lib/gcc/arm-none-eabi/4.9.2/../../../../arm-none-eabi/lib/armv6k/fpu\libg.a(lib_a-stdio.o) (_write_r)
c:/devkitpro/devkitarm/bin/../lib/gcc/arm-none-eabi/4.9.2/../../../../arm-none-eabi/lib/armv6k/fpu\libsysbase.a(_exit.o)
                              c:/devkitpro/devkitarm/bin/../lib/gcc/arm-none-eabi/4.9.2/../../../../arm-none-eabi/lib/armv6k/fpu\libg.a(lib_a-abort.o) (_exit)
c:/devkitpro/devkitarm/bin/../lib/gcc/arm-none-eabi/4.9.2/../../../../arm-none-eabi/lib/armv6k/fpu\libsysbase.a(malloc_vars.o)
                              c:/devkitPro/libctru/lib\libctru.a(allocateHeaps.o) (fake_heap_start)
c:/devkitpro/devkitarm/bin/../lib/gcc/arm-none-eabi/4.9.2/../../../../arm-none-eabi/lib/armv6k/fpu\libsysbase.a(chdir.o)
                              c:/devkitPro/libctru/lib\libctru.a(romfs_dev.o) (chdir)
c:/devkitpro/devkitarm/bin/../lib/gcc/arm-none-eabi/4.9.2/../../../../arm-none-eabi/lib/armv6k/fpu\libsysbase.a(flock.o)
                              c:/devkitpro/devkitarm/bin/../lib/gcc/arm-none-eabi/4.9.2/../../../../arm-none-eabi/lib/armv6k/fpu\libg.a(lib_a-fclose.o) (__flockfile)
c:/devkitpro/devkitarm/bin/../lib/gcc/arm-none-eabi/4.9.2/../../../../arm-none-eabi/lib/armv6k/fpu\libsysbase.a(syscall_support.o)
                              c:/devkitPro/libctru/lib\libctru.a(initSystem.o) (__syscalls)
c:/devkitpro/devkitarm/bin/../lib/gcc/arm-none-eabi/4.9.2/../../../../arm-none-eabi/lib/armv6k/fpu\libsysbase.a(handle_manager.o)
                              c:/devkitpro/devkitarm/bin/../lib/gcc/arm-none-eabi/4.9.2/../../../../arm-none-eabi/lib/armv6k/fpu\libsysbase.a(close.o) (__release_handle)
c:/devkitpro/devkitarm/bin/../lib/gcc/arm-none-eabi/4.9.2/../../../../arm-none-eabi/lib/armv6k/fpu\libsysbase.a(getreent.o)
                              c:/devkitPro/portlibs/armv6k/lib\libpng.a(pngerror.o) (__getreent)
c:/devkitpro/devkitarm/bin/../lib/gcc/arm-none-eabi/4.9.2/armv6k/fpu\libgcc.a(_aeabi_uldivmod.o)
                              c:/devkitpro/devkitarm/bin/../lib/gcc/arm-none-eabi/4.9.2/../../../../arm-none-eabi/lib/armv6k/fpu\libg.a(lib_a-svfprintf.o) (__aeabi_uldivmod)
c:/devkitpro/devkitarm/bin/../lib/gcc/arm-none-eabi/4.9.2/armv6k/fpu\libgcc.a(bpabi.o)
                              c:/devkitpro/devkitarm/bin/../lib/gcc/arm-none-eabi/4.9.2/armv6k/fpu\libgcc.a(_aeabi_uldivmod.o) (__gnu_uldivmod_helper)
c:/devkitpro/devkitarm/bin/../lib/gcc/arm-none-eabi/4.9.2/armv6k/fpu\libgcc.a(_divdi3.o)
                              c:/devkitpro/devkitarm/bin/../lib/gcc/arm-none-eabi/4.9.2/armv6k/fpu\libgcc.a(bpabi.o) (__divdi3)
c:/devkitpro/devkitarm/bin/../lib/gcc/arm-none-eabi/4.9.2/armv6k/fpu\libgcc.a(_udivdi3.o)
                              c:/devkitpro/devkitarm/bin/../lib/gcc/arm-none-eabi/4.9.2/armv6k/fpu\libgcc.a(bpabi.o) (__udivdi3)
c:/devkitpro/devkitarm/bin/../lib/gcc/arm-none-eabi/4.9.2/../../../../arm-none-eabi/lib/armv6k/fpu\libg.a(lib_a-strnlen.o)
                              c:/devkitpro/devkitarm/bin/../lib/gcc/arm-none-eabi/4.9.2/../../../../arm-none-eabi/lib/armv6k/fpu\libsysbase.a(chdir.o) (strnlen)

Allocating common symbols
Common symbol       size              file

hidMemHandle        0x4               c:/devkitPro/libctru/lib\libctru.a(hid.o)
__heapBase          0x4               c:/devkitPro/libctru/lib\libctru.a(allocateHeaps.o)
aptEventHandlerThread
                    0x4               c:/devkitPro/libctru/lib\libctru.a(apt.o)
hidHandle           0x4               c:/devkitPro/libctru/lib\libctru.a(hid.o)
gspEventStack       0x1000            c:/devkitPro/libctru/lib\libctru.a(gsp.o)
player_y            0x4               main.o
gfxBottomFramebuffers
                    0x8               c:/devkitPro/libctru/lib\libctru.a(gfx.o)
curr_room           0x4               main.o
gspSharedMemHandle  0x4               c:/devkitPro/libctru/lib\libctru.a(gfx.o)
tex_torielHouse1    0x4               main.o
room_x2             0x4               main.o
__system_argv       0x4               c:/devkitPro/libctru/lib\libctru.a(initArgv.o)
font                0x4               main.o
curr_tex            0x4               main.o
tex_torielHouse2    0x4               main.o
csndSharedMemSize   0x4               c:/devkitPro/libctru/lib\libctru.a(csnd.o)
hidSharedMem        0x4               c:/devkitPro/libctru/lib\libctru.a(hid.o)
__system_argc       0x4               c:/devkitPro/libctru/lib\libctru.a(initArgv.o)
bottomFramebufferInfo
                    0x1c              c:/devkitPro/libctru/lib\libctru.a(gfx.o)
__linear_heap       0x4               c:/devkitPro/libctru/lib\libctru.a(allocateHeaps.o)
csndOffsets         0x10              c:/devkitPro/libctru/lib\libctru.a(csnd.o)
aptParameters       0x1000            c:/devkitPro/libctru/lib\libctru.a(apt.o)
aptEventHandlerStack
                    0x1000            c:/devkitPro/libctru/lib\libctru.a(apt.o)
aptuHandle          0x4               c:/devkitPro/libctru/lib\libctru.a(apt.o)
irrstHandle         0x4               c:/devkitPro/libctru/lib\libctru.a(irrst.o)
aptEvents           0xc               c:/devkitPro/libctru/lib\libctru.a(apt.o)
gspEventThread      0x4               c:/devkitPro/libctru/lib\libctru.a(gsp.o)
gspEvent            0x4               c:/devkitPro/libctru/lib\libctru.a(gfx.o)
room_y2             0x4               main.o
hidEvents           0x14              c:/devkitPro/libctru/lib\libctru.a(hid.o)
__system_retAddr    0x4               c:/devkitPro/libctru/lib\libctru.a(initSystem.o)
gpuCmdBuf           0x4               c:/devkitPro/libctru/lib\libctru.a(gpu.o)
irrstEvent          0x4               c:/devkitPro/libctru/lib\libctru.a(irrst.o)
buffer              0x4               main.o
gspEventCounts      0x1c              c:/devkitPro/libctru/lib\libctru.a(gsp.o)
irrstMemHandle      0x4               c:/devkitPro/libctru/lib\libctru.a(irrst.o)
room_x1             0x4               main.o
gfxTopLeftFramebuffers
                    0x8               c:/devkitPro/libctru/lib\libctru.a(gfx.o)
size                0x4               main.o
gfxTopRightFramebuffers
                    0x8               c:/devkitPro/libctru/lib\libctru.a(gfx.o)
room_y1             0x4               main.o
topFramebufferInfo  0x1c              c:/devkitPro/libctru/lib\libctru.a(gfx.o)
player_x            0x4               main.o
gspEvents           0x1c              c:/devkitPro/libctru/lib\libctru.a(gsp.o)
gpuCmdBufOffset     0x4               c:/devkitPro/libctru/lib\libctru.a(gpu.o)
gfxThreadID         0x1               c:/devkitPro/libctru/lib\libctru.a(gfx.o)
gfxSharedMemory     0x4               c:/devkitPro/libctru/lib\libctru.a(gfx.o)
gspRunEvents        0x1               c:/devkitPro/libctru/lib\libctru.a(gsp.o)
irrstSharedMem      0x4               c:/devkitPro/libctru/lib\libctru.a(irrst.o)
aptStatusMutex      0x4               c:/devkitPro/libctru/lib\libctru.a(apt.o)
gpuCmdBufSize       0x4               c:/devkitPro/libctru/lib\libctru.a(gpu.o)
gxCmdBuf            0x4               c:/devkitPro/libctru/lib\libctru.a(gx.o)
aptLockHandle       0x4               c:/devkitPro/libctru/lib\libctru.a(apt.o)
currentAppId        0x2               c:/devkitPro/libctru/lib\libctru.a(apt.o)

Discarded input sections

 .comment       0x00000000       0x23 c:/devkitpro/devkitarm/bin/../lib/gcc/arm-none-eabi/4.9.2/armv6k/fpu/crtbegin.o
 .comment       0x00000000       0x23 main.o
 .comment       0x00000000       0x23 c:/devkitPro/libctru/lib\libsfil.a(sfil_png.o)
 .comment       0x00000000       0x23 c:/devkitPro/portlibs/armv6k/lib\libpng.a(png.o)
 .comment       0x00000000       0x23 c:/devkitPro/portlibs/armv6k/lib\libpng.a(pngerror.o)
 .comment       0x00000000       0x23 c:/devkitPro/portlibs/armv6k/lib\libpng.a(pngget.o)
 .comment       0x00000000       0x23 c:/devkitPro/portlibs/armv6k/lib\libpng.a(pngmem.o)
 .comment       0x00000000       0x23 c:/devkitPro/portlibs/armv6k/lib\libpng.a(pngread.o)
 .comment       0x00000000       0x23 c:/devkitPro/portlibs/armv6k/lib\libpng.a(pngrio.o)
 .comment       0x00000000       0x23 c:/devkitPro/portlibs/armv6k/lib\libpng.a(pngrtran.o)
 .comment       0x00000000       0x23 c:/devkitPro/portlibs/armv6k/lib\libpng.a(pngrutil.o)
 .comment       0x00000000       0x23 c:/devkitPro/portlibs/armv6k/lib\libpng.a(pngset.o)
 .comment       0x00000000       0x23 c:/devkitPro/portlibs/armv6k/lib\libpng.a(pngtrans.o)
 .comment       0x00000000       0x23 c:/devkitPro/portlibs/armv6k/lib\libpng.a(pngwrite.o)
 .comment       0x00000000       0x23 c:/devkitPro/portlibs/armv6k/lib\libpng.a(pngwtran.o)
 .comment       0x00000000       0x23 c:/devkitPro/portlibs/armv6k/lib\libpng.a(pngwutil.o)
 .comment       0x00000000       0x23 c:/devkitPro/portlibs/armv6k/lib\libpng.a(pngwio.o)
 .comment       0x00000000       0x23 c:/devkitPro/libctru/lib\libsftd.a(sftd.o)
 .comment       0x00000000       0x23 c:/devkitPro/libctru/lib\libsftd.a(texture_atlas.o)
 .comment       0x00000000       0x23 c:/devkitPro/libctru/lib\libsftd.a(bin_packing_2d.o)
 .comment       0x00000000       0x23 c:/devkitPro/libctru/lib\libsftd.a(int_htab.o)
 .comment       0x00000000       0x23 c:/devkitPro/portlibs/armv6k/lib\libfreetype.a(ftinit.o)
 .comment       0x00000000       0x23 c:/devkitPro/portlibs/armv6k/lib\libfreetype.a(ftbase.o)
 .comment       0x00000000       0x23 c:/devkitPro/portlibs/armv6k/lib\libfreetype.a(truetype.o)
 .comment       0x00000000       0x23 c:/devkitPro/portlibs/armv6k/lib\libfreetype.a(type1.o)
 .comment       0x00000000       0x23 c:/devkitPro/portlibs/armv6k/lib\libfreetype.a(cff.o)
 .comment       0x00000000       0x23 c:/devkitPro/portlibs/armv6k/lib\libfreetype.a(type1cid.o)
 .comment       0x00000000       0x23 c:/devkitPro/portlibs/armv6k/lib\libfreetype.a(pfr.o)
 .comment       0x00000000       0x23 c:/devkitPro/portlibs/armv6k/lib\libfreetype.a(type42.o)
 .comment       0x00000000       0x23 c:/devkitPro/portlibs/armv6k/lib\libfreetype.a(winfnt.o)
 .comment       0x00000000       0x23 c:/devkitPro/portlibs/armv6k/lib\libfreetype.a(pcf.o)
 .comment       0x00000000       0x23 c:/devkitPro/portlibs/armv6k/lib\libfreetype.a(bdf.o)
 .comment       0x00000000       0x23 c:/devkitPro/portlibs/armv6k/lib\libfreetype.a(sfnt.o)
 .comment       0x00000000       0x23 c:/devkitPro/portlibs/armv6k/lib\libfreetype.a(autofit.o)
 .comment       0x00000000       0x23 c:/devkitPro/portlibs/armv6k/lib\libfreetype.a(pshinter.o)
 .comment       0x00000000       0x23 c:/devkitPro/portlibs/armv6k/lib\libfreetype.a(raster.o)
 .comment       0x00000000       0x23 c:/devkitPro/portlibs/armv6k/lib\libfreetype.a(smooth.o)
 .comment       0x00000000       0x23 c:/devkitPro/portlibs/armv6k/lib\libfreetype.a(ftcache.o)
 .comment       0x00000000       0x23 c:/devkitPro/portlibs/armv6k/lib\libfreetype.a(ftgzip.o)
 .comment       0x00000000       0x23 c:/devkitPro/portlibs/armv6k/lib\libfreetype.a(ftlzw.o)
 .comment       0x00000000       0x23 c:/devkitPro/portlibs/armv6k/lib\libfreetype.a(psaux.o)
 .comment       0x00000000       0x23 c:/devkitPro/portlibs/armv6k/lib\libfreetype.a(psnames.o)
 .comment       0x00000000       0x23 c:/devkitPro/portlibs/armv6k/lib\libfreetype.a(ftsystem.o)
 .comment       0x00000000       0x23 c:/devkitPro/portlibs/armv6k/lib\libfreetype.a(ftbitmap.o)
 .comment       0x00000000       0x23 c:/devkitPro/portlibs/armv6k/lib\libfreetype.a(ftglyph.o)
 .comment       0x00000000       0x23 c:/devkitPro/portlibs/armv6k/lib\libz.a(adler32.o)
 .comment       0x00000000       0x23 c:/devkitPro/portlibs/armv6k/lib\libz.a(crc32.o)
 .comment       0x00000000       0x23 c:/devkitPro/portlibs/armv6k/lib\libz.a(deflate.o)
 .comment       0x00000000       0x23 c:/devkitPro/portlibs/armv6k/lib\libz.a(inflate.o)
 .comment       0x00000000       0x23 c:/devkitPro/portlibs/armv6k/lib\libz.a(inftrees.o)
 .comment       0x00000000       0x23 c:/devkitPro/portlibs/armv6k/lib\libz.a(trees.o)
 .comment       0x00000000       0x23 c:/devkitPro/portlibs/armv6k/lib\libz.a(zutil.o)
 .comment       0x00000000       0x23 c:/devkitPro/portlibs/armv6k/lib\libz.a(inffast.o)
 .comment       0x00000000       0x23 c:/devkitPro/libctru/lib\libsf2d.a(sf2d.o)
 .comment       0x00000000       0x23 c:/devkitPro/libctru/lib\libsf2d.a(sf2d_private.o)
 .comment       0x00000000       0x23 c:/devkitPro/libctru/lib\libsf2d.a(sf2d_texture.o)
 .comment       0x00000000       0x23 c:/devkitPro/libctru/lib\libctru.a(linear.o)
 .comment       0x00000000       0x23 c:/devkitPro/libctru/lib\libctru.a(mem_pool.o)
 .comment       0x00000000       0x23 c:/devkitPro/libctru/lib\libctru.a(vram.o)
 .comment       0x00000000       0x23 c:/devkitPro/libctru/lib\libctru.a(gfx.o)
 .comment       0x00000000       0x23 c:/devkitPro/libctru/lib\libctru.a(os.o)
 .comment       0x00000000       0x23 c:/devkitPro/libctru/lib\libctru.a(romfs_dev.o)
 .comment       0x00000000       0x23 c:/devkitPro/libctru/lib\libctru.a(srv.o)
 .comment       0x00000000       0x23 c:/devkitPro/libctru/lib\libctru.a(gpu.o)
 .comment       0x00000000       0x23 c:/devkitPro/libctru/lib\libctru.a(gpuResetSequence.o)
 .comment       0x00000000       0x23 c:/devkitPro/libctru/lib\libctru.a(shaderProgram.o)
 .comment       0x00000000       0x23 c:/devkitPro/libctru/lib\libctru.a(shbin.o)
 .comment       0x00000000       0x23 c:/devkitPro/libctru/lib\libctru.a(apt.o)
 .comment       0x00000000       0x23 c:/devkitPro/libctru/lib\libctru.a(cfgu.o)
 .comment       0x00000000       0x23 c:/devkitPro/libctru/lib\libctru.a(csnd.o)
 .comment       0x00000000       0x23 c:/devkitPro/libctru/lib\libctru.a(fs.o)
 .comment       0x00000000       0x23 c:/devkitPro/libctru/lib\libctru.a(gsp.o)
 .comment       0x00000000       0x23 c:/devkitPro/libctru/lib\libctru.a(gx.o)
 .comment       0x00000000       0x23 c:/devkitPro/libctru/lib\libctru.a(hid.o)
 .comment       0x00000000       0x23 c:/devkitPro/libctru/lib\libctru.a(irrst.o)
 .comment       0x00000000       0x23 c:/devkitPro/libctru/lib\libctru.a(ptm.o)
 .comment       0x00000000       0x23 c:/devkitPro/libctru/lib\libctru.a(rbtree_find.o)
 .comment       0x00000000       0x23 c:/devkitPro/libctru/lib\libctru.a(rbtree_init.o)
 .comment       0x00000000       0x23 c:/devkitPro/libctru/lib\libctru.a(rbtree_insert.o)
 .comment       0x00000000       0x23 c:/devkitPro/libctru/lib\libctru.a(rbtree_remove.o)
 .comment       0x00000000       0x23 c:/devkitPro/libctru/lib\libctru.a(rbtree_rotate.o)
 .comment       0x00000000       0x23 c:/devkitPro/libctru/lib\libctru.a(utf8_to_utf16.o)
 .comment       0x00000000       0x23 c:/devkitPro/libctru/lib\libctru.a(allocateHeaps.o)
 .comment       0x00000000       0x23 c:/devkitPro/libctru/lib\libctru.a(initArgv.o)
 .comment       0x00000000       0x23 c:/devkitPro/libctru/lib\libctru.a(initSystem.o)
 .comment       0x00000000       0x23 c:/devkitPro/libctru/lib\libctru.a(mappable.o)
 .comment       0x00000000       0x23 c:/devkitPro/libctru/lib\libctru.a(rbtree_iterator.o)
 .comment       0x00000000       0x23 c:/devkitPro/libctru/lib\libctru.a(decode_utf8.o)
 .comment       0x00000000       0x23 c:/devkitPro/libctru/lib\libctru.a(encode_utf16.o)
 .comment       0x00000000       0x23 c:/devkitPro/libctru/lib\libctru.a(appExit.o)
 .comment       0x00000000       0x23 c:/devkitPro/libctru/lib\libctru.a(appInit.o)
 .comment       0x00000000       0x23 c:/devkitPro/libctru/lib\libctru.a(ctru_exit.o)
 .comment       0x00000000       0x23 c:/devkitPro/libctru/lib\libctru.a(sdmc_dev.o)
 .comment       0x00000000       0x23 c:/devkitPro/libctru/lib\libctru.a(utf16_to_utf8.o)
 .comment       0x00000000       0x23 c:/devkitPro/libctru/lib\libctru.a(decode_utf16.o)
 .comment       0x00000000       0x23 c:/devkitPro/libctru/lib\libctru.a(encode_utf8.o)
 .comment       0x00000000       0x23 c:/devkitpro/devkitarm/bin/../lib/gcc/arm-none-eabi/4.9.2/../../../../arm-none-eabi/lib/armv6k/fpu\libm.a(lib_a-sf_cos.o)
 .comment       0x00000000       0x23 c:/devkitpro/devkitarm/bin/../lib/gcc/arm-none-eabi/4.9.2/../../../../arm-none-eabi/lib/armv6k/fpu\libm.a(lib_a-s_floor.o)
 .comment       0x00000000       0x23 c:/devkitpro/devkitarm/bin/../lib/gcc/arm-none-eabi/4.9.2/../../../../arm-none-eabi/lib/armv6k/fpu\libm.a(lib_a-s_frexp.o)
 .comment       0x00000000       0x23 c:/devkitpro/devkitarm/bin/../lib/gcc/arm-none-eabi/4.9.2/../../../../arm-none-eabi/lib/armv6k/fpu\libm.a(lib_a-sf_sin.o)
 .comment       0x00000000       0x23 c:/devkitpro/devkitarm/bin/../lib/gcc/arm-none-eabi/4.9.2/../../../../arm-none-eabi/lib/armv6k/fpu\libm.a(lib_a-s_modf.o)
 .comment       0x00000000       0x23 c:/devkitpro/devkitarm/bin/../lib/gcc/arm-none-eabi/4.9.2/../../../../arm-none-eabi/lib/armv6k/fpu\libm.a(lib_a-w_pow.o)
 .comment       0x00000000       0x23 c:/devkitpro/devkitarm/bin/../lib/gcc/arm-none-eabi/4.9.2/../../../../arm-none-eabi/lib/armv6k/fpu\libm.a(lib_a-ef_rem_pio2.o)
 .comment       0x00000000       0x23 c:/devkitpro/devkitarm/bin/../lib/gcc/arm-none-eabi/4.9.2/../../../../arm-none-eabi/lib/armv6k/fpu\libm.a(lib_a-e_pow.o)
 .comment       0x00000000       0x23 c:/devkitpro/devkitarm/bin/../lib/gcc/arm-none-eabi/4.9.2/../../../../arm-none-eabi/lib/armv6k/fpu\libm.a(lib_a-e_sqrt.o)
 .comment       0x00000000       0x23 c:/devkitpro/devkitarm/bin/../lib/gcc/arm-none-eabi/4.9.2/../../../../arm-none-eabi/lib/armv6k/fpu\libm.a(lib_a-kf_cos.o)
 .comment       0x00000000       0x23 c:/devkitpro/devkitarm/bin/../lib/gcc/arm-none-eabi/4.9.2/../../../../arm-none-eabi/lib/armv6k/fpu\libm.a(lib_a-kf_rem_pio2.o)
 .comment       0x00000000       0x23 c:/devkitpro/devkitarm/bin/../lib/gcc/arm-none-eabi/4.9.2/../../../../arm-none-eabi/lib/armv6k/fpu\libm.a(lib_a-kf_sin.o)
 .comment       0x00000000       0x23 c:/devkitpro/devkitarm/bin/../lib/gcc/arm-none-eabi/4.9.2/../../../../arm-none-eabi/lib/armv6k/fpu\libm.a(lib_a-s_fabs.o)
 .comment       0x00000000       0x23 c:/devkitpro/devkitarm/bin/../lib/gcc/arm-none-eabi/4.9.2/../../../../arm-none-eabi/lib/armv6k/fpu\libm.a(lib_a-sf_fabs.o)
 .comment       0x00000000       0x23 c:/devkitpro/devkitarm/bin/../lib/gcc/arm-none-eabi/4.9.2/../../../../arm-none-eabi/lib/armv6k/fpu\libm.a(lib_a-sf_floor.o)
 .comment       0x00000000       0x23 c:/devkitpro/devkitarm/bin/../lib/gcc/arm-none-eabi/4.9.2/../../../../arm-none-eabi/lib/armv6k/fpu\libm.a(lib_a-s_finite.o)
 .comment       0x00000000       0x23 c:/devkitpro/devkitarm/bin/../lib/gcc/arm-none-eabi/4.9.2/../../../../arm-none-eabi/lib/armv6k/fpu\libm.a(lib_a-s_fpclassify.o)
 .comment       0x00000000       0x23 c:/devkitpro/devkitarm/bin/../lib/gcc/arm-none-eabi/4.9.2/../../../../arm-none-eabi/lib/armv6k/fpu\libm.a(lib_a-sf_scalbn.o)
 .comment       0x00000000       0x23 c:/devkitpro/devkitarm/bin/../lib/gcc/arm-none-eabi/4.9.2/../../../../arm-none-eabi/lib/armv6k/fpu\libm.a(lib_a-s_lib_ver.o)
 .comment       0x00000000       0x23 c:/devkitpro/devkitarm/bin/../lib/gcc/arm-none-eabi/4.9.2/../../../../arm-none-eabi/lib/armv6k/fpu\libm.a(lib_a-s_matherr.o)
 .comment       0x00000000       0x23 c:/devkitpro/devkitarm/bin/../lib/gcc/arm-none-eabi/4.9.2/../../../../arm-none-eabi/lib/armv6k/fpu\libm.a(lib_a-s_nan.o)
 .comment       0x00000000       0x23 c:/devkitpro/devkitarm/bin/../lib/gcc/arm-none-eabi/4.9.2/../../../../arm-none-eabi/lib/armv6k/fpu\libm.a(lib_a-s_rint.o)
 .comment       0x00000000       0x23 c:/devkitpro/devkitarm/bin/../lib/gcc/arm-none-eabi/4.9.2/../../../../arm-none-eabi/lib/armv6k/fpu\libm.a(lib_a-s_scalbn.o)
 .comment       0x00000000       0x23 c:/devkitpro/devkitarm/bin/../lib/gcc/arm-none-eabi/4.9.2/../../../../arm-none-eabi/lib/armv6k/fpu\libm.a(lib_a-s_copysign.o)
 .comment       0x00000000       0x23 c:/devkitpro/devkitarm/bin/../lib/gcc/arm-none-eabi/4.9.2/../../../../arm-none-eabi/lib/armv6k/fpu\libm.a(lib_a-sf_copysign.o)
 .comment       0x00000000       0x23 c:/devkitpro/devkitarm/bin/../lib/gcc/arm-none-eabi/4.9.2/armv6k/fpu\libgcc.a(_popcountsi2.o)
 .comment       0x00000000       0x23 c:/devkitpro/devkitarm/bin/../lib/gcc/arm-none-eabi/4.9.2/../../../../arm-none-eabi/lib/armv6k/fpu\libg.a(lib_a-abort.o)
 .comment       0x00000000       0x23 c:/devkitpro/devkitarm/bin/../lib/gcc/arm-none-eabi/4.9.2/../../../../arm-none-eabi/lib/armv6k/fpu\libg.a(lib_a-atof.o)
 .comment       0x00000000       0x23 c:/devkitpro/devkitarm/bin/../lib/gcc/arm-none-eabi/4.9.2/../../../../arm-none-eabi/lib/armv6k/fpu\libg.a(lib_a-atol.o)
 .comment       0x00000000       0x23 c:/devkitpro/devkitarm/bin/../lib/gcc/arm-none-eabi/4.9.2/../../../../arm-none-eabi/lib/armv6k/fpu\libg.a(lib_a-bsearch.o)
 .comment       0x00000000       0x23 c:/devkitpro/devkitarm/bin/../lib/gcc/arm-none-eabi/4.9.2/../../../../arm-none-eabi/lib/armv6k/fpu\libg.a(lib_a-errno.o)
 .comment       0x00000000       0x23 c:/devkitpro/devkitarm/bin/../lib/gcc/arm-none-eabi/4.9.2/../../../../arm-none-eabi/lib/armv6k/fpu\libg.a(lib_a-fclose.o)
 .comment       0x00000000       0x23 c:/devkitpro/devkitarm/bin/../lib/gcc/arm-none-eabi/4.9.2/../../../../arm-none-eabi/lib/armv6k/fpu\libg.a(lib_a-fflush.o)
 .comment       0x00000000       0x23 c:/devkitpro/devkitarm/bin/../lib/gcc/arm-none-eabi/4.9.2/../../../../arm-none-eabi/lib/armv6k/fpu\libg.a(lib_a-findfp.o)
 .comment       0x00000000       0x23 c:/devkitpro/devkitarm/bin/../lib/gcc/arm-none-eabi/4.9.2/../../../../arm-none-eabi/lib/armv6k/fpu\libg.a(lib_a-fini.o)
 .comment       0x00000000       0x23 c:/devkitpro/devkitarm/bin/../lib/gcc/arm-none-eabi/4.9.2/../../../../arm-none-eabi/lib/armv6k/fpu\libg.a(lib_a-fopen.o)
 .comment       0x00000000       0x23 c:/devkitpro/devkitarm/bin/../lib/gcc/arm-none-eabi/4.9.2/../../../../arm-none-eabi/lib/armv6k/fpu\libg.a(lib_a-fprintf.o)
 .comment       0x00000000       0x23 c:/devkitpro/devkitarm/bin/../lib/gcc/arm-none-eabi/4.9.2/../../../../arm-none-eabi/lib/armv6k/fpu\libg.a(lib_a-fputc.o)
 .comment       0x00000000       0x23 c:/devkitpro/devkitarm/bin/../lib/gcc/arm-none-eabi/4.9.2/../../../../arm-none-eabi/lib/armv6k/fpu\libg.a(lib_a-fread.o)
 .comment       0x00000000       0x23 c:/devkitpro/devkitarm/bin/../lib/gcc/arm-none-eabi/4.9.2/../../../../arm-none-eabi/lib/armv6k/fpu\libg.a(lib_a-freer.o)
 .comment       0x00000000       0x23 c:/devkitpro/devkitarm/bin/../lib/gcc/arm-none-eabi/4.9.2/../../../../arm-none-eabi/lib/armv6k/fpu\libg.a(lib_a-fseek.o)
 .comment       0x00000000       0x23 c:/devkitpro/devkitarm/bin/../lib/gcc/arm-none-eabi/4.9.2/../../../../arm-none-eabi/lib/armv6k/fpu\libg.a(lib_a-fseeko.o)
 .comment       0x00000000       0x23 c:/devkitpro/devkitarm/bin/../lib/gcc/arm-none-eabi/4.9.2/../../../../arm-none-eabi/lib/armv6k/fpu\libg.a(lib_a-ftell.o)
 .comment       0x00000000       0x23 c:/devkitpro/devkitarm/bin/../lib/gcc/arm-none-eabi/4.9.2/../../../../arm-none-eabi/lib/armv6k/fpu\libg.a(lib_a-ftello.o)
 .comment       0x00000000       0x23 c:/devkitpro/devkitarm/bin/../lib/gcc/arm-none-eabi/4.9.2/../../../../arm-none-eabi/lib/armv6k/fpu\libg.a(lib_a-fwalk.o)
 .comment       0x00000000       0x23 c:/devkitpro/devkitarm/bin/../lib/gcc/arm-none-eabi/4.9.2/../../../../arm-none-eabi/lib/armv6k/fpu\libg.a(lib_a-fwrite.o)
 .comment       0x00000000       0x23 c:/devkitpro/devkitarm/bin/../lib/gcc/arm-none-eabi/4.9.2/../../../../arm-none-eabi/lib/armv6k/fpu\libg.a(lib_a-gmtime.o)
 .comment       0x00000000       0x23 c:/devkitpro/devkitarm/bin/../lib/gcc/arm-none-eabi/4.9.2/../../../../arm-none-eabi/lib/armv6k/fpu\libg.a(lib_a-gmtime_r.o)
 .comment       0x00000000       0x23 c:/devkitpro/devkitarm/bin/../lib/gcc/arm-none-eabi/4.9.2/../../../../arm-none-eabi/lib/armv6k/fpu\libg.a(lib_a-impure.o)
 .comment       0x00000000       0x23 c:/devkitpro/devkitarm/bin/../lib/gcc/arm-none-eabi/4.9.2/../../../../arm-none-eabi/lib/armv6k/fpu\libg.a(lib_a-init.o)
 .comment       0x00000000       0x23 c:/devkitpro/devkitarm/bin/../lib/gcc/arm-none-eabi/4.9.2/../../../../arm-none-eabi/lib/armv6k/fpu\libg.a(lib_a-makebuf.o)
 .comment       0x00000000       0x23 c:/devkitpro/devkitarm/bin/../lib/gcc/arm-none-eabi/4.9.2/../../../../arm-none-eabi/lib/armv6k/fpu\libg.a(lib_a-malloc.o)
 .comment       0x00000000       0x23 c:/devkitpro/devkitarm/bin/../lib/gcc/arm-none-eabi/4.9.2/../../../../arm-none-eabi/lib/armv6k/fpu\libg.a(lib_a-mallocr.o)
 .comment       0x00000000       0x23 c:/devkitpro/devkitarm/bin/../lib/gcc/arm-none-eabi/4.9.2/../../../../arm-none-eabi/lib/armv6k/fpu\libg.a(lib_a-memchr.o)
 .comment       0x00000000       0x23 c:/devkitpro/devkitarm/bin/../lib/gcc/arm-none-eabi/4.9.2/../../../../arm-none-eabi/lib/armv6k/fpu\libg.a(lib_a-memcmp.o)
 .comment       0x00000000       0x23 c:/devkitpro/devkitarm/bin/../lib/gcc/arm-none-eabi/4.9.2/../../../../arm-none-eabi/lib/armv6k/fpu\libg.a(lib_a-memcpy.o)
 .comment       0x00000000       0x23 c:/devkitpro/devkitarm/bin/../lib/gcc/arm-none-eabi/4.9.2/../../../../arm-none-eabi/lib/armv6k/fpu\libg.a(lib_a-memmove.o)
 .comment       0x00000000       0x23 c:/devkitpro/devkitarm/bin/../lib/gcc/arm-none-eabi/4.9.2/../../../../arm-none-eabi/lib/armv6k/fpu\libg.a(lib_a-memset.o)
 .comment       0x00000000       0x23 c:/devkitpro/devkitarm/bin/../lib/gcc/arm-none-eabi/4.9.2/../../../../arm-none-eabi/lib/armv6k/fpu\libg.a(lib_a-mlock.o)
 .comment       0x00000000       0x23 c:/devkitpro/devkitarm/bin/../lib/gcc/arm-none-eabi/4.9.2/../../../../arm-none-eabi/lib/armv6k/fpu\libg.a(lib_a-month_lengths.o)
 .comment       0x00000000       0x23 c:/devkitpro/devkitarm/bin/../lib/gcc/arm-none-eabi/4.9.2/../../../../arm-none-eabi/lib/armv6k/fpu\libg.a(lib_a-putc.o)
 .comment       0x00000000       0x23 c:/devkitpro/devkitarm/bin/../lib/gcc/arm-none-eabi/4.9.2/../../../../arm-none-eabi/lib/armv6k/fpu\libg.a(lib_a-qsort.o)
 .comment       0x00000000       0x23 c:/devkitpro/devkitarm/bin/../lib/gcc/arm-none-eabi/4.9.2/../../../../arm-none-eabi/lib/armv6k/fpu\libg.a(lib_a-realloc.o)
 .comment       0x00000000       0x23 c:/devkitpro/devkitarm/bin/../lib/gcc/arm-none-eabi/4.9.2/../../../../arm-none-eabi/lib/armv6k/fpu\libg.a(lib_a-reallocr.o)
 .comment       0x00000000       0x23 c:/devkitpro/devkitarm/bin/../lib/gcc/arm-none-eabi/4.9.2/../../../../arm-none-eabi/lib/armv6k/fpu\libg.a(lib_a-refill.o)
 .comment       0x00000000       0x23 c:/devkitpro/devkitarm/bin/../lib/gcc/arm-none-eabi/4.9.2/../../../../arm-none-eabi/lib/armv6k/fpu\libg.a(lib_a-remove.o)
 .comment       0x00000000       0x23 c:/devkitpro/devkitarm/bin/../lib/gcc/arm-none-eabi/4.9.2/../../../../arm-none-eabi/lib/armv6k/fpu\libg.a(lib_a-signal.o)
 .comment       0x00000000       0x23 c:/devkitpro/devkitarm/bin/../lib/gcc/arm-none-eabi/4.9.2/../../../../arm-none-eabi/lib/armv6k/fpu\libg.a(lib_a-snprintf.o)
 .comment       0x00000000       0x23 c:/devkitpro/devkitarm/bin/../lib/gcc/arm-none-eabi/4.9.2/../../../../arm-none-eabi/lib/armv6k/fpu\libg.a(lib_a-sprintf.o)
 .comment       0x00000000       0x23 c:/devkitpro/devkitarm/bin/../lib/gcc/arm-none-eabi/4.9.2/../../../../arm-none-eabi/lib/armv6k/fpu\libg.a(lib_a-stdio.o)
 .comment       0x00000000       0x23 c:/devkitpro/devkitarm/bin/../lib/gcc/arm-none-eabi/4.9.2/../../../../arm-none-eabi/lib/armv6k/fpu\libg.a(lib_a-strchr.o)
 .comment       0x00000000       0x23 c:/devkitpro/devkitarm/bin/../lib/gcc/arm-none-eabi/4.9.2/../../../../arm-none-eabi/lib/armv6k/fpu\libg.a(lib_a-strcpy.o)
 .comment       0x00000000       0x23 c:/devkitpro/devkitarm/bin/../lib/gcc/arm-none-eabi/4.9.2/../../../../arm-none-eabi/lib/armv6k/fpu\libg.a(lib_a-strerror.o)
 .comment       0x00000000       0x23 c:/devkitpro/devkitarm/bin/../lib/gcc/arm-none-eabi/4.9.2/../../../../arm-none-eabi/lib/armv6k/fpu\libg.a(lib_a-strlen.o)
 .comment       0x00000000       0x23 c:/devkitpro/devkitarm/bin/../lib/gcc/arm-none-eabi/4.9.2/../../../../arm-none-eabi/lib/armv6k/fpu\libg.a(lib_a-strncat.o)
 .comment       0x00000000       0x23 c:/devkitpro/devkitarm/bin/../lib/gcc/arm-none-eabi/4.9.2/../../../../arm-none-eabi/lib/armv6k/fpu\libg.a(lib_a-strncmp.o)
 .comment       0x00000000       0x23 c:/devkitpro/devkitarm/bin/../lib/gcc/arm-none-eabi/4.9.2/../../../../arm-none-eabi/lib/armv6k/fpu\libg.a(lib_a-strncpy.o)
 .comment       0x00000000       0x23 c:/devkitpro/devkitarm/bin/../lib/gcc/arm-none-eabi/4.9.2/../../../../arm-none-eabi/lib/armv6k/fpu\libg.a(lib_a-strrchr.o)
 .comment       0x00000000       0x23 c:/devkitpro/devkitarm/bin/../lib/gcc/arm-none-eabi/4.9.2/../../../../arm-none-eabi/lib/armv6k/fpu\libg.a(lib_a-strstr.o)
 .comment       0x00000000       0x23 c:/devkitpro/devkitarm/bin/../lib/gcc/arm-none-eabi/4.9.2/../../../../arm-none-eabi/lib/armv6k/fpu\libg.a(lib_a-strtod.o)
 .comment       0x00000000       0x23 c:/devkitpro/devkitarm/bin/../lib/gcc/arm-none-eabi/4.9.2/../../../../arm-none-eabi/lib/armv6k/fpu\libg.a(lib_a-strtok.o)
 .comment       0x00000000       0x23 c:/devkitpro/devkitarm/bin/../lib/gcc/arm-none-eabi/4.9.2/../../../../arm-none-eabi/lib/armv6k/fpu\libg.a(lib_a-strtok_r.o)
 .comment       0x00000000       0x23 c:/devkitpro/devkitarm/bin/../lib/gcc/arm-none-eabi/4.9.2/../../../../arm-none-eabi/lib/armv6k/fpu\libg.a(lib_a-strtol.o)
 .comment       0x00000000       0x23 c:/devkitpro/devkitarm/bin/../lib/gcc/arm-none-eabi/4.9.2/../../../../arm-none-eabi/lib/armv6k/fpu\libg.a(lib_a-svfprintf.o)
 .comment       0x00000000       0x23 c:/devkitpro/devkitarm/bin/../lib/gcc/arm-none-eabi/4.9.2/../../../../arm-none-eabi/lib/armv6k/fpu\libg.a(lib_a-u_strerr.o)
 .comment       0x00000000       0x23 c:/devkitpro/devkitarm/bin/../lib/gcc/arm-none-eabi/4.9.2/../../../../arm-none-eabi/lib/armv6k/fpu\libg.a(lib_a-vfprintf.o)
 .comment       0x00000000       0x23 c:/devkitpro/devkitarm/bin/../lib/gcc/arm-none-eabi/4.9.2/../../../../arm-none-eabi/lib/armv6k/fpu\libg.a(lib_a-vsnprintf.o)
 .comment       0x00000000       0x23 c:/devkitpro/devkitarm/bin/../lib/gcc/arm-none-eabi/4.9.2/../../../../arm-none-eabi/lib/armv6k/fpu\libg.a(lib_a-vswprintf.o)
 .comment       0x00000000       0x23 c:/devkitpro/devkitarm/bin/../lib/gcc/arm-none-eabi/4.9.2/../../../../arm-none-eabi/lib/armv6k/fpu\libg.a(lib_a-wbuf.o)
 .comment       0x00000000       0x23 c:/devkitpro/devkitarm/bin/../lib/gcc/arm-none-eabi/4.9.2/../../../../arm-none-eabi/lib/armv6k/fpu\libg.a(lib_a-wcrtomb.o)
 .comment       0x00000000       0x23 c:/devkitpro/devkitarm/bin/../lib/gcc/arm-none-eabi/4.9.2/../../../../arm-none-eabi/lib/armv6k/fpu\libg.a(lib_a-wcsrtombs.o)
 .comment       0x00000000       0x23 c:/devkitpro/devkitarm/bin/../lib/gcc/arm-none-eabi/4.9.2/../../../../arm-none-eabi/lib/armv6k/fpu\libg.a(lib_a-wctomb_r.o)
 .comment       0x00000000       0x23 c:/devkitpro/devkitarm/bin/../lib/gcc/arm-none-eabi/4.9.2/../../../../arm-none-eabi/lib/armv6k/fpu\libg.a(lib_a-wsetup.o)
 .comment       0x00000000       0x23 c:/devkitpro/devkitarm/bin/../lib/gcc/arm-none-eabi/4.9.2/../../../../arm-none-eabi/lib/armv6k/fpu\libg.a(lib_a-ctype_.o)
 .comment       0x00000000       0x23 c:/devkitpro/devkitarm/bin/../lib/gcc/arm-none-eabi/4.9.2/../../../../arm-none-eabi/lib/armv6k/fpu\libg.a(lib_a-dtoa.o)
 .comment       0x00000000       0x23 c:/devkitpro/devkitarm/bin/../lib/gcc/arm-none-eabi/4.9.2/../../../../arm-none-eabi/lib/armv6k/fpu\libg.a(lib_a-flags.o)
 .comment       0x00000000       0x23 c:/devkitpro/devkitarm/bin/../lib/gcc/arm-none-eabi/4.9.2/../../../../arm-none-eabi/lib/armv6k/fpu\libg.a(lib_a-fvwrite.o)
 .comment       0x00000000       0x23 c:/devkitpro/devkitarm/bin/../lib/gcc/arm-none-eabi/4.9.2/../../../../arm-none-eabi/lib/armv6k/fpu\libg.a(lib_a-gdtoa-gethex.o)
 .comment       0x00000000       0x23 c:/devkitpro/devkitarm/bin/../lib/gcc/arm-none-eabi/4.9.2/../../../../arm-none-eabi/lib/armv6k/fpu\libg.a(lib_a-gdtoa-hexnan.o)
 .comment       0x00000000       0x23 c:/devkitpro/devkitarm/bin/../lib/gcc/arm-none-eabi/4.9.2/../../../../arm-none-eabi/lib/armv6k/fpu\libg.a(lib_a-locale.o)
 .comment       0x00000000       0x23 c:/devkitpro/devkitarm/bin/../lib/gcc/arm-none-eabi/4.9.2/../../../../arm-none-eabi/lib/armv6k/fpu\libg.a(lib_a-mbtowc_r.o)
 .comment       0x00000000       0x23 c:/devkitpro/devkitarm/bin/../lib/gcc/arm-none-eabi/4.9.2/../../../../arm-none-eabi/lib/armv6k/fpu\libg.a(lib_a-mprec.o)
 .comment       0x00000000       0x23 c:/devkitpro/devkitarm/bin/../lib/gcc/arm-none-eabi/4.9.2/../../../../arm-none-eabi/lib/armv6k/fpu\libg.a(lib_a-sf_nan.o)
 .comment       0x00000000       0x23 c:/devkitpro/devkitarm/bin/../lib/gcc/arm-none-eabi/4.9.2/../../../../arm-none-eabi/lib/armv6k/fpu\libg.a(lib_a-strcasecmp.o)
 .comment       0x00000000       0x23 c:/devkitpro/devkitarm/bin/../lib/gcc/arm-none-eabi/4.9.2/../../../../arm-none-eabi/lib/armv6k/fpu\libg.a(lib_a-strcat.o)
 .comment       0x00000000       0x23 c:/devkitpro/devkitarm/bin/../lib/gcc/arm-none-eabi/4.9.2/../../../../arm-none-eabi/lib/armv6k/fpu\libg.a(lib_a-strlcpy.o)
 .comment       0x00000000       0x23 c:/devkitpro/devkitarm/bin/../lib/gcc/arm-none-eabi/4.9.2/../../../../arm-none-eabi/lib/armv6k/fpu\libg.a(lib_a-strncasecmp.o)
 .comment       0x00000000       0x23 c:/devkitpro/devkitarm/bin/../lib/gcc/arm-none-eabi/4.9.2/../../../../arm-none-eabi/lib/armv6k/fpu\libg.a(lib_a-svfiprintf.o)
 .comment       0x00000000       0x23 c:/devkitpro/devkitarm/bin/../lib/gcc/arm-none-eabi/4.9.2/../../../../arm-none-eabi/lib/armv6k/fpu\libg.a(lib_a-svfwprintf.o)
 .comment       0x00000000       0x23 c:/devkitpro/devkitarm/bin/../lib/gcc/arm-none-eabi/4.9.2/../../../../arm-none-eabi/lib/armv6k/fpu\libg.a(lib_a-vfiprintf.o)
 .comment       0x00000000       0x23 c:/devkitpro/devkitarm/bin/../lib/gcc/arm-none-eabi/4.9.2/../../../../arm-none-eabi/lib/armv6k/fpu\libg.a(lib_a-wcslen.o)
 .comment       0x00000000       0x23 c:/devkitpro/devkitarm/bin/../lib/gcc/arm-none-eabi/4.9.2/../../../../arm-none-eabi/lib/armv6k/fpu\libg.a(lib_a-wcsnrtombs.o)
 .comment       0x00000000       0x23 c:/devkitpro/devkitarm/bin/../lib/gcc/arm-none-eabi/4.9.2/../../../../arm-none-eabi/lib/armv6k/fpu\libg.a(lib_a-wmemchr.o)
 .comment       0x00000000       0x23 c:/devkitpro/devkitarm/bin/../lib/gcc/arm-none-eabi/4.9.2/../../../../arm-none-eabi/lib/armv6k/fpu\libg.a(lib_a-btowc.o)
 .comment       0x00000000       0x23 c:/devkitpro/devkitarm/bin/../lib/gcc/arm-none-eabi/4.9.2/../../../../arm-none-eabi/lib/armv6k/fpu\libg.a(lib_a-callocr.o)
 .comment       0x00000000       0x23 c:/devkitpro/devkitarm/bin/../lib/gcc/arm-none-eabi/4.9.2/../../../../arm-none-eabi/lib/armv6k/fpu\libg.a(lib_a-fputwc.o)
 .comment       0x00000000       0x23 c:/devkitpro/devkitarm/bin/../lib/gcc/arm-none-eabi/4.9.2/../../../../arm-none-eabi/lib/armv6k/fpu\libg.a(lib_a-getenv_r.o)
 .comment       0x00000000       0x23 c:/devkitpro/devkitarm/bin/../lib/gcc/arm-none-eabi/4.9.2/../../../../arm-none-eabi/lib/armv6k/fpu\libg.a(lib_a-mbrlen.o)
 .comment       0x00000000       0x23 c:/devkitpro/devkitarm/bin/../lib/gcc/arm-none-eabi/4.9.2/../../../../arm-none-eabi/lib/armv6k/fpu\libg.a(lib_a-mbrtowc.o)
 .comment       0x00000000       0x23 c:/devkitpro/devkitarm/bin/../lib/gcc/arm-none-eabi/4.9.2/../../../../arm-none-eabi/lib/armv6k/fpu\libg.a(lib_a-mbsnrtowcs.o)
 .comment       0x00000000       0x23 c:/devkitpro/devkitarm/bin/../lib/gcc/arm-none-eabi/4.9.2/../../../../arm-none-eabi/lib/armv6k/fpu\libg.a(lib_a-environ.o)
 .comment       0x00000000       0x23 c:/devkitpro/devkitarm/bin/../lib/gcc/arm-none-eabi/4.9.2/../../../../arm-none-eabi/lib/armv6k/fpu\libg.a(lib_a-envlock.o)
 .comment       0x00000000       0x23 c:/devkitpro/devkitarm/bin/../lib/gcc/arm-none-eabi/4.9.2/../../../../arm-none-eabi/lib/armv6k/fpu\libsysbase.a(iosupport.o)
 .comment       0x00000000       0x23 c:/devkitpro/devkitarm/bin/../lib/gcc/arm-none-eabi/4.9.2/../../../../arm-none-eabi/lib/armv6k/fpu\libsysbase.a(close.o)
 .comment       0x00000000       0x23 c:/devkitpro/devkitarm/bin/../lib/gcc/arm-none-eabi/4.9.2/../../../../arm-none-eabi/lib/armv6k/fpu\libsysbase.a(fstat.o)
 .comment       0x00000000       0x23 c:/devkitpro/devkitarm/bin/../lib/gcc/arm-none-eabi/4.9.2/../../../../arm-none-eabi/lib/armv6k/fpu\libsysbase.a(getpid.o)
 .comment       0x00000000       0x23 c:/devkitpro/devkitarm/bin/../lib/gcc/arm-none-eabi/4.9.2/../../../../arm-none-eabi/lib/armv6k/fpu\libsysbase.a(isatty.o)
 .comment       0x00000000       0x23 c:/devkitpro/devkitarm/bin/../lib/gcc/arm-none-eabi/4.9.2/../../../../arm-none-eabi/lib/armv6k/fpu\libsysbase.a(kill.o)
 .comment       0x00000000       0x23 c:/devkitpro/devkitarm/bin/../lib/gcc/arm-none-eabi/4.9.2/../../../../arm-none-eabi/lib/armv6k/fpu\libsysbase.a(lseek.o)
 .comment       0x00000000       0x23 c:/devkitpro/devkitarm/bin/../lib/gcc/arm-none-eabi/4.9.2/../../../../arm-none-eabi/lib/armv6k/fpu\libsysbase.a(open.o)
 .comment       0x00000000       0x23 c:/devkitpro/devkitarm/bin/../lib/gcc/arm-none-eabi/4.9.2/../../../../arm-none-eabi/lib/armv6k/fpu\libsysbase.a(read.o)
 .comment       0x00000000       0x23 c:/devkitpro/devkitarm/bin/../lib/gcc/arm-none-eabi/4.9.2/../../../../arm-none-eabi/lib/armv6k/fpu\libsysbase.a(sbrk.o)
 .comment       0x00000000       0x23 c:/devkitpro/devkitarm/bin/../lib/gcc/arm-none-eabi/4.9.2/../../../../arm-none-eabi/lib/armv6k/fpu\libsysbase.a(unlink.o)
 .comment       0x00000000       0x23 c:/devkitpro/devkitarm/bin/../lib/gcc/arm-none-eabi/4.9.2/../../../../arm-none-eabi/lib/armv6k/fpu\libsysbase.a(write.o)
 .comment       0x00000000       0x23 c:/devkitpro/devkitarm/bin/../lib/gcc/arm-none-eabi/4.9.2/../../../../arm-none-eabi/lib/armv6k/fpu\libsysbase.a(_exit.o)
 .comment       0x00000000       0x23 c:/devkitpro/devkitarm/bin/../lib/gcc/arm-none-eabi/4.9.2/../../../../arm-none-eabi/lib/armv6k/fpu\libsysbase.a(malloc_vars.o)
 .comment       0x00000000       0x23 c:/devkitpro/devkitarm/bin/../lib/gcc/arm-none-eabi/4.9.2/../../../../arm-none-eabi/lib/armv6k/fpu\libsysbase.a(chdir.o)
 .comment       0x00000000       0x23 c:/devkitpro/devkitarm/bin/../lib/gcc/arm-none-eabi/4.9.2/../../../../arm-none-eabi/lib/armv6k/fpu\libsysbase.a(flock.o)
 .comment       0x00000000       0x23 c:/devkitpro/devkitarm/bin/../lib/gcc/arm-none-eabi/4.9.2/../../../../arm-none-eabi/lib/armv6k/fpu\libsysbase.a(syscall_support.o)
 .comment       0x00000000       0x23 c:/devkitpro/devkitarm/bin/../lib/gcc/arm-none-eabi/4.9.2/../../../../arm-none-eabi/lib/armv6k/fpu\libsysbase.a(handle_manager.o)
 .comment       0x00000000       0x23 c:/devkitpro/devkitarm/bin/../lib/gcc/arm-none-eabi/4.9.2/../../../../arm-none-eabi/lib/armv6k/fpu\libsysbase.a(getreent.o)
 .comment       0x00000000       0x23 c:/devkitpro/devkitarm/bin/../lib/gcc/arm-none-eabi/4.9.2/armv6k/fpu\libgcc.a(bpabi.o)
 .comment       0x00000000       0x23 c:/devkitpro/devkitarm/bin/../lib/gcc/arm-none-eabi/4.9.2/armv6k/fpu\libgcc.a(_divdi3.o)
 .comment       0x00000000       0x23 c:/devkitpro/devkitarm/bin/../lib/gcc/arm-none-eabi/4.9.2/armv6k/fpu\libgcc.a(_udivdi3.o)
 .comment       0x00000000       0x23 c:/devkitpro/devkitarm/bin/../lib/gcc/arm-none-eabi/4.9.2/../../../../arm-none-eabi/lib/armv6k/fpu\libg.a(lib_a-strnlen.o)
 .comment       0x00000000       0x23 c:/devkitpro/devkitarm/bin/../lib/gcc/arm-none-eabi/4.9.2/armv6k/fpu/crtend.o

Memory Configuration

Name             Origin             Length             Attributes
*default*        0x00000000         0xffffffff

Linker script and memory map

                0x00100000                . = 0x100000
                0x00100000                __start__ = .

.text           0x00100000    0xd2e5c
 *(.crt0)
 .crt0          0x00100000       0x94 c:/devkitpro/devkitarm/bin/../lib/gcc/arm-none-eabi/4.9.2/../../../../arm-none-eabi/lib/armv6k/fpu/3dsx_crt0.o
                0x00100000                _start
                0x00100008                __service_ptr
                0x0010000c                __apt_appid
                0x00100010                __heap_size
                0x00100014                __linear_heap_size
                0x00100018                __system_arglist
                0x0010001c                __system_runflags
 *(.init)
 .init          0x00100094        0xc c:/devkitpro/devkitarm/bin/../lib/gcc/arm-none-eabi/4.9.2/armv6k/fpu/crti.o
                0x00100094                _init
 .init          0x001000a0        0xc c:/devkitpro/devkitarm/bin/../lib/gcc/arm-none-eabi/4.9.2/armv6k/fpu/crtn.o
                0x001000ac                . = ALIGN (0x4)
 *(.text)
 .text          0x001000ac        0x0 c:/devkitpro/devkitarm/bin/../lib/gcc/arm-none-eabi/4.9.2/../../../../arm-none-eabi/lib/armv6k/fpu/3dsx_crt0.o
 .text          0x001000ac        0x0 c:/devkitpro/devkitarm/bin/../lib/gcc/arm-none-eabi/4.9.2/armv6k/fpu/crti.o
 .text          0x001000ac      0x108 c:/devkitpro/devkitarm/bin/../lib/gcc/arm-none-eabi/4.9.2/armv6k/fpu/crtbegin.o
 .text          0x001001b4        0x0 eightbit.ttf.o
 .text          0x001001b4        0x0 friskBack0.png.o
 .text          0x001001b4        0x0 friskBack1.png.o
 .text          0x001001b4        0x0 friskBack2.png.o
 .text          0x001001b4        0x0 friskBack3.png.o
 .text          0x001001b4        0x0 friskFace0.png.o
 .text          0x001001b4        0x0 friskFace1.png.o
 .text          0x001001b4        0x0 friskFace2.png.o
 .text          0x001001b4        0x0 friskFace3.png.o
 .text          0x001001b4        0x0 friskLeft0.png.o
 .text          0x001001b4        0x0 friskLeft1.png.o
 .text          0x001001b4        0x0 friskRight0.png.o
 .text          0x001001b4        0x0 friskRight1.png.o
 .text          0x001001b4        0x0 torielHouse-old.png.o
 .text          0x001001b4        0x0 torielHouse1.png.o
 .text          0x001001b4        0x0 torielHouse2.png.o
 .text          0x001001b4        0x0 torielHouse3.png.o
 .text          0x001001b4        0x0 torielHouse4.png.o
 .text          0x001001b4        0x0 torielHouse5.png.o
 .text          0x001001b4        0x0 torielHouse6.png.o
 *fill*         0x001001b4        0x4 
 .text          0x001001b8      0x1f0 main.o
                0x001001b8                render
                0x00100344                timerStep
 .text          0x001003a8      0x3e8 c:/devkitPro/libctru/lib\libsfil.a(sfil_png.o)
                0x001006a8                sfil_load_PNG_file
                0x00100744                sfil_load_PNG_buffer
 .text          0x00100790     0x6cc8 c:/devkitPro/portlibs/armv6k/lib\libpng.a(png.o)
                0x00100790                png_zalloc
                0x001007e8                png_zfree
                0x001010e8                png_set_sig_bytes
                0x00101128                png_sig_cmp
                0x00101198                png_reset_crc
                0x001011b8                png_calculate_crc
                0x0010120c                png_user_version_check
                0x0010130c                png_create_png_struct
                0x00101420                png_create_info_struct
                0x00101460                png_destroy_info_struct
                0x001017e8                png_info_init_3
                0x00101840                png_data_freer
                0x0010188c                png_free_data
                0x0010189c                png_get_io_ptr
                0x001018a8                png_init_io
                0x001018b4                png_save_int_32
                0x001018b8                png_convert_to_rfc1123_buffer
                0x00101a9c                png_convert_to_rfc1123
                0x00101c90                png_get_copyright
                0x00101c9c                png_get_libpng_ver
                0x00101ca8                png_get_header_ver
                0x00101cb4                png_get_header_version
                0x00101cc0                png_build_grayscale_palette
                0x00101d20                png_handle_as_unknown
                0x00101d94                png_chunk_unknown_handling
                0x00101e24                png_reset_zstream
                0x00101e3c                png_access_version_number
                0x00101e48                png_zstream_error
                0x00101f2c                png_colorspace_set_gamma
                0x00102098                png_colorspace_sync_info
                0x00102108                png_colorspace_sync
                0x00102190                png_colorspace_set_sRGB
                0x00102414                png_icc_check_length
                0x001025ac                png_icc_check_header
                0x00102908                png_icc_check_tag_table
                0x00102a40                png_icc_set_sRGB
                0x00102c94                png_colorspace_set_ICC
                0x0010306c                png_colorspace_set_rgb_coefficients
                0x00103314                png_check_IHDR
                0x001035cc                png_check_fp_number
                0x00103864                png_check_fp_string
                0x00103b24                png_ascii_from_fp
                0x00104450                png_ascii_from_fixed
                0x00104880                png_fixed
                0x00104908                png_muldiv
                0x001049c0                png_muldiv_warn
                0x00104a7c                png_reciprocal
                0x00104b08                png_colorspace_set_endpoints
                0x00105b08                png_colorspace_set_chromaticities
                0x001065dc                png_gamma_significant
                0x001065fc                png_reciprocal2
                0x001066b8                png_gamma_8bit_correct
                0x00106740                png_gamma_16bit_correct
                0x001067d4                png_gamma_correct
                0x001068e4                png_destroy_gamma_table
                0x00106a18                png_build_gamma_table
                0x00107354                png_set_option
                0x001073b4                png_image_free
                0x001073f0                png_image_error
 .text          0x00107458     0x1a6c c:/devkitPro/portlibs/armv6k/lib\libpng.a(pngerror.o)
                0x001076c4                png_safecat
                0x00107738                png_format_number
                0x001078a4                png_warning
                0x001079ec                png_warning_parameter
                0x00107a68                png_warning_parameter_unsigned
                0x00107afc                png_warning_parameter_signed
                0x00107bc8                png_formatted_warning
                0x00107ea0                png_chunk_warning
                0x0010804c                png_free_jmpbuf
                0x001080dc                png_longjmp
                0x00108108                png_error
                0x00108168                png_app_warning
                0x001082c0                png_app_error
                0x00108418                png_chunk_error
                0x00108444                png_chunk_benign_error
                0x001085e8                png_benign_error
                0x001088b8                png_fixed_error
                0x00108938                png_set_longjmp_fn
                0x00108a1c                png_chunk_report
                0x00108cf4                png_set_error_fn
                0x00108d08                png_get_error_ptr
                0x00108d14                png_safe_error
                0x00108db8                png_safe_warning
                0x00108e2c                png_safe_execute
 *fill*         0x00108ec4        0x4 
 .text          0x00108ec8     0x12d0 c:/devkitPro/portlibs/armv6k/lib\libpng.a(pngget.o)
                0x00108ec8                png_get_valid
                0x00108ee4                png_get_rowbytes
                0x00108efc                png_get_rows
                0x00108f14                png_get_image_width
                0x00108f2c                png_get_image_height
                0x00108f44                png_get_bit_depth
                0x00108f5c                png_get_color_type
                0x00108f74                png_get_filter_type
                0x00108f8c                png_get_interlace_type
                0x00108fa4                png_get_compression_type
                0x00108fbc                png_get_x_pixels_per_meter
                0x00108ff0                png_get_y_pixels_per_meter
                0x00109024                png_get_pixels_per_meter
                0x00109070                png_get_pixel_aspect_ratio
                0x001090b8                png_get_pixel_aspect_ratio_fixed
                0x00109148                png_get_x_offset_microns
                0x0010917c                png_get_y_offset_microns
                0x001091b0                png_get_x_offset_pixels
                0x001091e4                png_get_y_offset_pixels
                0x00109218                png_get_pixels_per_inch
                0x001092a4                png_get_x_pixels_per_inch
                0x00109320                png_get_y_pixels_per_inch
                0x0010939c                png_get_x_offset_inches_fixed
                0x001093ec                png_get_y_offset_inches_fixed
                0x0010943c                png_get_x_offset_inches
                0x0010948c                png_get_y_offset_inches
                0x001094dc                png_get_pHYs_dpi
                0x001095a8                png_get_channels
                0x001095c0                png_get_signature
                0x001095d8                png_get_bKGD
                0x00109614                png_get_cHRM
                0x00109728                png_get_cHRM_XYZ
                0x00109858                png_get_cHRM_XYZ_fixed
                0x00109930                png_get_cHRM_fixed
                0x001099f4                png_get_gAMA_fixed
                0x00109a2c                png_get_gAMA
                0x00109a80                png_get_sRGB
                0x00109abc                png_get_iCCP
                0x00109b60                png_get_sPLT
                0x00109b90                png_get_hIST
                0x00109bcc                png_get_IHDR
                0x00109c88                png_get_oFFs
                0x00109cf4                png_get_pCAL
                0x00109dc4                png_get_sCAL_fixed
                0x00109e4c                png_get_sCAL
                0x00109ea4                png_get_sCAL_s
                0x00109ee8                png_get_pHYs
                0x00109f48                png_get_PLTE
                0x00109f8c                png_get_sBIT
                0x00109fc8                png_get_text
                0x0010a010                png_get_tIME
                0x0010a04c                png_get_tRNS
                0x0010a0dc                png_get_unknown_chunks
                0x0010a10c                png_get_rgb_to_gray_status
                0x0010a118                png_get_user_chunk_ptr
                0x0010a124                png_get_compression_buffer_size
                0x0010a140                png_get_user_width_max
                0x0010a14c                png_get_user_height_max
                0x0010a158                png_get_chunk_cache_max
                0x0010a164                png_get_chunk_malloc_max
                0x0010a170                png_get_io_state
                0x0010a178                png_get_io_chunk_type
                0x0010a180                png_get_palette_max
 .text          0x0010a198      0x3ec c:/devkitPro/portlibs/armv6k/lib\libpng.a(pngmem.o)
                0x0010a198                png_destroy_png_struct
                0x0010a200                png_calloc
                0x0010a278                png_malloc_base
                0x0010a2a8                png_malloc_array
                0x0010a324                png_realloc_array
                0x0010a42c                png_malloc
                0x0010a488                png_malloc_default
                0x0010a4c8                png_malloc_warn
                0x0010a52c                png_free
                0x0010a550                png_free_default
                0x0010a564                png_set_mem_fn
                0x0010a578                png_get_mem_ptr
 .text          0x0010a584     0x76f8 c:/devkitPro/portlibs/armv6k/lib\libpng.a(pngread.o)
                0x001101d0                png_create_read_struct
                0x00110228                png_create_read_struct_2
                0x00110284                png_read_info
                0x00110294                png_read_update_info
                0x001102d8                png_start_read_image
                0x001102fc                png_read_row
                0x00110654                png_read_rows
                0x00110a48                png_read_image
                0x00110de4                png_read_end
                0x00111274                png_destroy_read_struct
                0x001114f8                png_set_read_status_fn
                0x00111504                png_read_png
                0x001117bc                png_image_begin_read_from_stdio
                0x0011196c                png_image_begin_read_from_file
                0x00111a34                png_image_begin_read_from_memory
                0x00111ad0                png_image_finish_read
 .text          0x00111c7c       0xac c:/devkitPro/portlibs/armv6k/lib\libpng.a(pngrio.o)
                0x00111c7c                png_default_read_data
                0x00111cb8                png_read_data
                0x00111cd8                png_set_read_fn
 .text          0x00111d28     0x5ff8 c:/devkitPro/portlibs/armv6k/lib\libpng.a(pngrtran.o)
                0x00113074                png_set_crc_action
                0x00113150                png_set_background_fixed
                0x00113208                png_set_background
                0x001132e0                png_set_scale_16
                0x00113318                png_set_strip_16
                0x00113350                png_set_strip_alpha
                0x00113388                png_set_alpha_mode_fixed
                0x00113584                png_set_alpha_mode
                0x00113834                png_set_quantize
                0x001140dc                png_set_gamma_fixed
                0x001141e4                png_set_gamma
                0x00114418                png_set_expand
                0x00114454                png_set_palette_to_rgb
                0x00114490                png_set_expand_gray_1_2_4_to_8
                0x001144c8                png_set_tRNS_to_alpha
                0x00114504                png_set_expand_16
                0x00114540                png_set_gray_to_rgb
                0x00114578                png_set_rgb_to_gray_fixed
                0x001146d0                png_set_rgb_to_gray
                0x00114874                png_set_read_user_transform_fn
                0x00114888                png_init_read_transformations
                0x00115570                png_read_transform_info
                0x0011583c                png_do_read_transformations
 .text          0x00117d20     0x5320 c:/devkitPro/portlibs/armv6k/lib\libpng.a(pngrutil.o)
                0x00118958                png_get_uint_31
                0x00118994                png_get_uint_32
                0x001189b8                png_get_int_32
                0x001189f0                png_get_uint_16
                0x00118a04                png_read_sig
                0x00118ab0                png_read_chunk_header
                0x00118c20                png_crc_read
                0x00118c50                png_crc_finish
                0x00118dd0                png_crc_error
                0x00118e70                png_handle_IHDR
                0x00118fe8                png_handle_PLTE
                0x00119238                png_handle_IEND
                0x0011928c                png_handle_gAMA
                0x00119370                png_handle_sBIT
                0x00119584                png_handle_cHRM
                0x00119844                png_handle_sRGB
                0x0011994c                png_handle_iCCP
                0x00119f30                png_handle_sPLT
                0x0011a250                png_handle_tRNS
                0x0011a48c                png_handle_bKGD
                0x0011a6bc                png_handle_hIST
                0x0011a7f4                png_handle_pHYs
                0x0011a930                png_handle_oFFs
                0x0011aad0                png_handle_pCAL
                0x0011ae80                png_handle_sCAL
                0x0011b108                png_handle_tIME
                0x0011b21c                png_handle_tEXt
                0x0011b3dc                png_handle_zTXt
                0x0011b630                png_handle_iTXt
                0x0011b998                png_handle_unknown
                0x0011bcf0                png_check_chunk_name
                0x0011bdb8                png_combine_row
                0x0011c2a8                png_do_read_interlace
                0x0011c734                png_read_filter_row
                0x0011c7bc                png_read_IDAT_data
                0x0011cb38                png_read_finish_IDAT
                0x0011cbb0                png_read_finish_row
                0x0011cd00                png_read_start_row
 .text          0x0011d040     0x1eb8 c:/devkitPro/portlibs/armv6k/lib\libpng.a(pngset.o)
                0x0011d3a0                png_set_bKGD
                0x0011d3ec                png_set_cHRM_fixed
                0x0011d47c                png_set_cHRM_XYZ_fixed
                0x0011d514                png_set_cHRM
                0x0011d668                png_set_cHRM_XYZ
                0x0011d7dc                png_set_gAMA_fixed
                0x0011d80c                png_set_gAMA
                0x0011d850                png_set_hIST
                0x0011d8fc                png_set_IHDR
                0x0011d9d8                png_set_oFFs
                0x0011da04                png_set_pCAL
                0x0011dc84                png_set_sCAL_s
                0x0011dde8                png_set_sCAL
                0x0011dfb4                png_set_sCAL_fixed
                0x0011e164                png_set_pHYs
                0x0011e190                png_set_PLTE
                0x0011e2c4                png_set_sBIT
                0x0011e308                png_set_sRGB
                0x0011e338                png_set_sRGB_gAMA_and_cHRM
                0x0011e378                png_set_iCCP
                0x0011e4cc                png_set_text
                0x0011e510                png_set_text_2
                0x0011e548                png_set_tIME
                0x0011e5e8                png_set_tRNS
                0x0011e728                png_set_sPLT
                0x0011e898                png_set_unknown_chunks
                0x0011ea28                png_set_unknown_chunk_location
                0x0011ead4                png_permit_mng_features
                0x0011eae8                png_set_keep_unknown_chunks
                0x0011ed9c                png_set_read_user_chunk_fn
                0x0011edac                png_set_rows
                0x0011ee08                png_set_compression_buffer_size
                0x0011ee8c                png_set_invalid
                0x0011eea4                png_set_user_limits
                0x0011eeb4                png_set_chunk_cache_max
                0x0011eec0                png_set_chunk_malloc_max
                0x0011eecc                png_set_benign_errors
                0x0011eee4                png_set_check_for_invalid_index
 .text          0x0011eef8      0xa8c c:/devkitPro/portlibs/armv6k/lib\libpng.a(pngtrans.o)
                0x0011eef8                png_set_bgr
                0x0011ef0c                png_set_swap
                0x0011ef2c                png_set_packing
                0x0011ef54                png_set_packswap
                0x0011ef74                png_set_shift
                0x0011ef9c                png_set_interlace_handling
                0x0011efcc                png_set_filler
                0x0011f054                png_set_add_alpha
                0x0011f0fc                png_set_swap_alpha
                0x0011f110                png_set_invert_alpha
                0x0011f124                png_set_invert_mono
                0x0011f138                png_do_invert
                0x0011f328                png_do_swap
                0x0011f374                png_do_packswap
                0x0011f3e0                png_do_strip_channel
                0x0011f60c                png_do_bgr
                0x0011f748                png_do_check_palette_indexes
                0x0011f914                png_set_user_transform_info
                0x0011f958                png_get_user_transform_ptr
                0x0011f964                png_get_current_row_number
                0x0011f974                png_get_current_pass_number
 .text          0x0011f984     0x37ac c:/devkitPro/portlibs/armv6k/lib\libpng.a(pngwrite.o)
                0x0011ff98                png_write_info_before_PLTE
                0x001205d8                png_write_info
                0x001205e8                png_write_end
                0x00120834                png_convert_from_struct_tm
                0x00120874                png_convert_from_time_t
                0x001208d4                png_create_write_struct
                0x00120960                png_create_write_struct_2
                0x001209f0                png_write_rows
                0x00120dc0                png_write_image
                0x001211a0                png_write_row
                0x00121c48                png_set_flush
                0x00121c58                png_write_flush
                0x00121c9c                png_destroy_write_struct
                0x00121d4c                png_set_filter
                0x001226e8                png_set_filter_heuristics
                0x001226ec                png_set_filter_heuristics_fixed
                0x001226f0                png_set_compression_level
                0x001226fc                png_set_compression_mem_level
                0x00122708                png_set_compression_strategy
                0x00122720                png_set_compression_window_bits
                0x00122774                png_set_compression_method
                0x001227a4                png_set_text_compression_level
                0x001227b0                png_set_text_compression_mem_level
                0x001227bc                png_set_text_compression_strategy
                0x001227c8                png_set_text_compression_window_bits
                0x0012281c                png_set_text_compression_method
                0x0012284c                png_set_write_status_fn
                0x00122858                png_set_write_user_transform_fn
                0x00122870                png_write_png
                0x00122da0                png_image_write_to_stdio
                0x00122ff0                png_image_write_to_file
 .text          0x00123130      0x778 c:/devkitPro/portlibs/armv6k/lib\libpng.a(pngwtran.o)
                0x00123130                png_do_write_transformations
 .text          0x001238a8     0x40cc c:/devkitPro/portlibs/armv6k/lib\libpng.a(pngwutil.o)
                0x0012425c                png_save_uint_32
                0x0012427c                png_save_uint_16
                0x0012428c                png_write_sig
                0x001242e8                png_write_chunk_start
                0x00124394                png_write_chunk_data
                0x001243d0                png_write_chunk_end
                0x0012441c                png_write_chunk
                0x00124548                png_free_buffer_list
                0x00124580                png_write_IHDR
                0x00124918                png_write_PLTE
                0x00124ae8                png_compress_IDAT
                0x00124f24                png_write_IEND
                0x00124fec                png_write_gAMA_fixed
                0x001250ec                png_write_sRGB
                0x001251f4                png_write_iCCP
                0x0012545c                png_write_sPLT
                0x001256ac                png_write_sBIT
                0x001257b4                png_write_cHRM_fixed
                0x00125908                png_write_tRNS
                0x00125ae0                png_write_bKGD
                0x00125ce0                png_write_hIST
                0x00125e1c                png_write_tEXt
                0x00125fcc                png_write_zTXt
                0x00126214                png_write_iTXt
                0x001265dc                png_write_oFFs
                0x00126704                png_write_pCAL
                0x00126a14                png_write_sCAL_s
                0x00126ab8                png_write_pHYs
                0x00126c04                png_write_tIME
                0x00126ca0                png_write_start_row
                0x00126df4                png_write_finish_row
                0x00126f34                png_do_write_interlace
                0x001271a4                png_write_find_filter
 .text          0x00127974       0xd8 c:/devkitPro/portlibs/armv6k/lib\libpng.a(pngwio.o)
                0x00127974                png_default_write_data
                0x001279b0                png_default_flush
                0x001279c0                png_write_data
                0x001279e0                png_flush
                0x001279f0                png_set_write_fn
 .text          0x00127a4c     0x10ac c:/devkitPro/libctru/lib\libsftd.a(sftd.o)
                0x00127bbc                sftd_init
                0x00127bfc                sftd_fini
                0x00127c40                sftd_load_font_file
                0x00127d20                sftd_load_font_mem
                0x00127de4                sftd_free_font
                0x00127e34                sftd_draw_text
                0x0012805c                sftd_draw_textf
                0x001280bc                sftd_draw_wtext
                0x001282e4                sftd_draw_wtextf
                0x00128350                sftd_get_text_width
                0x001284f8                sftd_draw_text_wrap
                0x001287d8                sftd_calc_bounding_box
                0x00128a90                sftd_draw_textf_wrap
 .text          0x00128af8      0x244 c:/devkitPro/libctru/lib\libsftd.a(texture_atlas.o)
                0x00128af8                texture_atlas_create
                0x00128b74                texture_atlas_free
                0x00128ba0                texture_atlas_insert
                0x00128cb8                texture_atlas_exists
                0x00128cd0                texture_atlas_get
 .text          0x00128d3c      0x1c8 c:/devkitPro/libctru/lib\libsftd.a(bin_packing_2d.o)
                0x00128d3c                bp2d_create
                0x00128d88                bp2d_free
                0x00128dbc                bp2d_insert
 .text          0x00128f04      0x33c c:/devkitPro/libctru/lib\libsftd.a(int_htab.o)
                0x00128f04                int_htab_create
                0x00128f4c                int_htab_free
                0x00128f98                int_htab_insert
                0x00129084                int_htab_resize
                0x001290f8                int_htab_find
                0x00129198                int_htab_erase
 .text          0x00129240       0xc8 c:/devkitPro/portlibs/armv6k/lib\libfreetype.a(ftinit.o)
                0x00129240                FT_Add_Default_Modules
                0x00129270                FT_Init_FreeType
                0x001292dc                FT_Done_FreeType
 .text          0x00129308     0xd0bc c:/devkitPro/portlibs/armv6k/lib\libfreetype.a(ftbase.o)
                0x00129e34                FT_RoundFix
                0x00129e48                FT_CeilFix
                0x00129e5c                FT_FloorFix
                0x00129e68                FT_Hypot
                0x00129f8c                FT_MulDiv
                0x0012a08c                FT_MulDiv_No_Round
                0x0012a16c                FT_MulFix
                0x0012a18c                FT_DivFix
                0x0012a29c                FT_Matrix_Multiply
                0x0012a3cc                FT_Matrix_Invert
                0x0012a490                FT_Matrix_Multiply_Scaled
                0x0012a598                FT_Vector_Transform_Scaled
                0x0012a7f0                FT_Vector_NormLen
                0x0012a9a4                ft_corner_orientation
                0x0012aab8                ft_corner_is_flat
                0x0012ab48                FT_GlyphLoader_New
                0x0012ab8c                FT_GlyphLoader_Rewind
                0x0012abc4                FT_GlyphLoader_Reset
                0x0012b294                FT_GlyphLoader_Done
                0x0012b398                FT_GlyphLoader_CreateExtra
                0x0012b478                FT_GlyphLoader_CheckSubGlyphs
                0x0012b5a4                FT_GlyphLoader_Prepare
                0x0012b620                FT_GlyphLoader_Add
                0x0012b854                ft_service_list_lookup
                0x0012b8b4                ft_validator_init
                0x0012b8cc                ft_validator_run
                0x0012b8d4                ft_validator_error
                0x0012b8e8                FT_Stream_New
                0x0012ba00                FT_Stream_Free
                0x0012ba44                ft_glyphslot_free_bitmap
                0x0012baa8                ft_glyphslot_set_bitmap
                0x0012bb00                ft_glyphslot_alloc_bitmap
                0x0012bbb0                FT_New_GlyphSlot
                0x0012bd1c                FT_Done_GlyphSlot
                0x0012bdb0                FT_Set_Transform
                0x0012be64                FT_Attach_File
                0x0012bf64                FT_Attach_Stream
                0x0012c0f8                FT_Reference_Face
                0x0012c118                FT_Done_Face
                0x0012c1ec                FT_New_Size
                0x0012c36c                FT_Done_Size
                0x0012c4a4                FT_Match_Size
                0x0012c5d4                ft_synthesize_vertical_metrics
                0x0012c644                FT_Select_Metrics
                0x0012c8e0                FT_Request_Metrics
                0x0012cc6c                FT_Select_Size
                0x0012ccd8                FT_Request_Size
                0x0012cd68                FT_Set_Char_Size
                0x0012ce30                FT_Set_Pixel_Sizes
                0x0012cf04                FT_Get_Kerning
                0x0012d02c                FT_Get_Track_Kerning
                0x0012d0ac                FT_Select_Charmap
                0x0012d1bc                FT_Set_Charmap
                0x0012d2a4                FT_Get_Charmap_Index
                0x0012d310                FT_Get_Char_Index
                0x0012d358                FT_Get_First_Char
                0x0012d41c                FT_Get_Next_Char
                0x0012d4b4                FT_Face_GetCharVariantIndex
                0x0012d5c4                FT_Face_GetCharVariantIsDefault
                0x0012d6ac                FT_Face_GetVariantSelectors
                0x0012d78c                FT_Face_GetVariantsOfChar
                0x0012d874                FT_Face_GetCharsOfVariant
                0x0012d95c                FT_Get_Name_Index
                0x0012da08                FT_Get_Glyph_Name
                0x0012daf4                FT_Get_Postscript_Name
                0x0012db7c                FT_Get_Sfnt_Table
                0x0012dbe8                FT_Load_Sfnt_Table
                0x0012dc6c                FT_Sfnt_Table_Info
                0x0012dcf8                FT_Get_CMap_Language_ID
                0x0012dd78                FT_Get_CMap_Format
                0x0012ddf4                FT_Activate_Size
                0x0012de30                FT_Lookup_Renderer
                0x0012de94                FT_Get_Renderer
                0x0012dee4                FT_Set_Renderer
                0x0012dfe4                FT_Render_Glyph_Internal
                0x0012e0dc                FT_Render_Glyph
                0x0012e10c                FT_Get_Module
                0x0012e178                FT_Get_Module_Interface
                0x0012e1e8                ft_module_get_service
                0x0012e26c                FT_Remove_Module
                0x0012e290                FT_Property_Set
                0x0012e384                FT_Property_Get
                0x0012e478                FT_Reference_Library
                0x0012e494                FT_New_Library
                0x0012e510                FT_Library_Version
                0x0012e548                FT_Done_Library
                0x0012e714                FT_Set_Debug_Hook
                0x0012e740                FT_Get_TrueType_Engine_Type
                0x0012e814                FT_Get_SubGlyph_Info
                0x0012e8a8                FT_Outline_Decompose
                0x0012ecb8                FT_Outline_Check
                0x0012ed60                FT_Outline_Copy
                0x0012ee08                FT_Outline_Done_Internal
                0x0012eeb4                FT_Outline_Done
                0x0012ef74                FT_Outline_Get_CBox
                0x0012f010                FT_Outline_Translate
                0x0012f064                FT_Outline_Reverse
                0x0012f130                FT_Outline_Render
                0x0012f200                FT_Outline_Get_Bitmap
                0x0012f2dc                FT_Vector_Transform
                0x0012f384                FT_Outline_Transform
                0x0012fb20                FT_Load_Glyph
                0x0012fedc                FT_Get_Advances
                0x0012ff54                FT_Get_Advance
                0x00130254                FT_Load_Char
                0x001302b8                FT_Outline_Get_Orientation
                0x00130404                FT_Outline_EmboldenXY
                0x001307e8                FT_Outline_Embolden
                0x001307f0                FT_Raccess_Guess
                0x00130908                FT_Get_Sfnt_Name_Count
                0x0013092c                FT_Stream_OpenMemory
                0x00130944                FT_Stream_Close
                0x0013095c                FT_Stream_Seek
                0x001309a8                FT_Stream_Skip
                0x00130a0c                FT_Stream_Pos
                0x00130a14                FT_Stream_Read
                0x00130a98                FT_Stream_ReadAt
                0x00130b18                FT_Stream_TryRead
                0x00130b88                FT_Stream_ExtractFrame
                0x00130cc8                FT_Stream_ReleaseFrame
                0x00130d08                FT_Stream_EnterFrame
                0x00130e28                FT_Stream_ExitFrame
                0x00130e6c                FT_Stream_GetChar
                0x00130e90                FT_Stream_GetUShort
                0x00130ec0                FT_Stream_GetUShortLE
                0x00130ef0                FT_Stream_GetUOffset
                0x00130f2c                FT_Stream_GetULong
                0x00130f70                FT_Stream_GetULongLE
                0x00130fb4                FT_Stream_ReadChar
                0x00131044                FT_Stream_ReadUShort
                0x001310dc                FT_Raccess_Get_HeaderInfo
                0x0013134c                FT_Stream_ReadUShortLE
                0x001313e4                FT_Stream_ReadUOffset
                0x00131488                FT_Stream_ReadULong
                0x00132004                FT_Stream_ReadULongLE
                0x001320b0                FT_Stream_ReadFields
                0x00132324                FT_Cos
                0x001323f0                FT_Sin
                0x001324bc                FT_Tan
                0x00132594                FT_Atan2
                0x001325fc                FT_Vector_Unit
                0x001326e4                FT_Vector_Rotate
                0x0013292c                FT_Vector_Length
                0x00132a74                FT_Vector_Polarize
                0x00132bc4                FT_Vector_From_Polar
                0x00132df8                FT_Angle_Diff
                0x00132e34                ft_mem_alloc
                0x00132e94                FT_Add_Module
                0x001331a4                ft_mem_qalloc
                0x001331e8                ft_mem_realloc
                0x001332ec                FT_GlyphLoader_CheckPoints
                0x00133514                FT_CMap_Done
                0x00133648                FT_CMap_New
                0x001337b4                FT_Outline_New_Internal
                0x00133918                FT_Raccess_Get_DataOffsets
                0x0013486c                FT_Open_Face
                0x00135194                FT_New_Face
                0x001351d4                FT_New_Memory_Face
                0x00135934                FT_Get_Sfnt_Name
                0x00135a84                FT_Outline_New
                0x00135bc8                FT_GlyphLoader_CopyPoints
                0x00135f30                ft_mem_qrealloc
                0x00136050                ft_mem_free
                0x00136060                ft_mem_dup
                0x001360d0                ft_mem_strdup
                0x0013615c                ft_mem_strcpyn
                0x001361c0                FT_List_Find
                0x00136204                FT_List_Add
                0x00136238                FT_List_Insert
                0x0013626c                FT_List_Remove
                0x0013629c                FT_List_Up
                0x001362e0                FT_List_Iterate
                0x00136334                FT_List_Finalize
 .text          0x001363c4     0xc09c c:/devkitPro/portlibs/armv6k/lib\libfreetype.a(truetype.o)
                0x0013c940                TT_RunIns
                0x00140c78                TT_New_Context
 .text          0x00142460     0x5bfc c:/devkitPro/portlibs/armv6k/lib\libfreetype.a(type1.o)
 .text          0x0014805c     0xe128 c:/devkitPro/portlibs/armv6k/lib\libfreetype.a(cff.o)
 .text          0x00156184     0x1c90 c:/devkitPro/portlibs/armv6k/lib\libfreetype.a(type1cid.o)
 .text          0x00157e14     0x3318 c:/devkitPro/portlibs/armv6k/lib\libfreetype.a(pfr.o)
 .text          0x0015b12c     0x1e58 c:/devkitPro/portlibs/armv6k/lib\libfreetype.a(type42.o)
 .text          0x0015cf84     0x10e4 c:/devkitPro/portlibs/armv6k/lib\libfreetype.a(winfnt.o)
 .text          0x0015e068     0x21b0 c:/devkitPro/portlibs/armv6k/lib\libfreetype.a(pcf.o)
 .text          0x00160218     0x5210 c:/devkitPro/portlibs/armv6k/lib\libfreetype.a(bdf.o)
 .text          0x00165428     0xa014 c:/devkitPro/portlibs/armv6k/lib\libfreetype.a(sfnt.o)
 .text          0x0016f43c     0x8d0c c:/devkitPro/portlibs/armv6k/lib\libfreetype.a(autofit.o)
                0x00178104                af_get_coverage
                0x0017810c                af_get_char_index
 .text          0x00178148     0x4408 c:/devkitPro/portlibs/armv6k/lib\libfreetype.a(pshinter.o)
                0x0017b0d8                ps_hints_apply
 .text          0x0017c550      0xc64 c:/devkitPro/portlibs/armv6k/lib\libfreetype.a(raster.o)
 .text          0x0017d1b4     0x263c c:/devkitPro/portlibs/armv6k/lib\libfreetype.a(smooth.o)
 .text          0x0017f7f0     0x3c7c c:/devkitPro/portlibs/armv6k/lib\libfreetype.a(ftcache.o)
                0x00181764                FTC_Manager_LookupSize
                0x001818b8                FTC_Manager_LookupFace
                0x00181980                FTC_Manager_New
                0x00181a84                FTC_Manager_Done
                0x00181be8                FTC_Manager_Reset
                0x00181d3c                FTC_Manager_RemoveFaceID
                0x00181ff0                FTC_Node_Unref
                0x00182018                FTC_CMapCache_New
                0x00182114                FTC_CMapCache_Lookup
                0x001823ac                FTC_ImageCache_New
                0x001824a8                FTC_ImageCache_Lookup
                0x001827c4                FTC_ImageCache_LookupScaler
                0x00182b88                FTC_SBitCache_New
                0x00182c84                FTC_SBitCache_Lookup
                0x00183028                FTC_SBitCache_LookupScaler
 .text          0x0018346c      0x9a4 c:/devkitPro/portlibs/armv6k/lib\libfreetype.a(ftgzip.o)
                0x0018377c                FT_Stream_OpenGzip
                0x00183d08                FT_Gzip_Uncompress
 .text          0x00183e10     0x14a8 c:/devkitPro/portlibs/armv6k/lib\libfreetype.a(ftlzw.o)
                0x00184038                FT_Stream_OpenLZW
                0x00184220                ft_lzwstate_reset
                0x0018424c                ft_lzwstate_init
                0x001842b8                ft_lzwstate_done
                0x00184328                ft_lzwstate_io
 .text          0x001852b8     0x6bb4 c:/devkitPro/portlibs/armv6k/lib\libfreetype.a(psaux.o)
 .text          0x0018be6c      0xa78 c:/devkitPro/portlibs/armv6k/lib\libfreetype.a(psnames.o)
 .text          0x0018c8e4      0x194 c:/devkitPro/portlibs/armv6k/lib\libfreetype.a(ftsystem.o)
                0x0018c980                FT_Stream_Open
                0x0018ca30                FT_New_Memory
                0x0018ca74                FT_Done_Memory
 .text          0x0018ca78      0xf78 c:/devkitPro/portlibs/armv6k/lib\libfreetype.a(ftbitmap.o)
                0x0018ca78                FT_Bitmap_Init
                0x0018caa8                FT_Bitmap_New
                0x0018cad8                FT_Bitmap_Copy
                0x0018cc84                FT_Bitmap_Convert
                0x0018d1a8                FT_Bitmap_Embolden
                0x0018d8e0                FT_GlyphSlot_Own_Bitmap
                0x0018d994                FT_Bitmap_Done
 .text          0x0018d9f0      0x840 c:/devkitPro/portlibs/armv6k/lib\libfreetype.a(ftglyph.o)
                0x0018dc08                FT_Glyph_Copy
                0x0018dcfc                FT_Get_Glyph
                0x0018de1c                FT_Glyph_Transform
                0x0018de80                FT_Glyph_Get_CBox
                0x0018df24                FT_Done_Glyph
                0x0018df58                FT_Glyph_To_Bitmap
 .text          0x0018e230      0x5c0 c:/devkitPro/portlibs/armv6k/lib\libz.a(adler32.o)
                0x0018e230                adler32
                0x0018e678                adler32_combine
                0x0018e734                adler32_combine64
 .text          0x0018e7f0      0x5d8 c:/devkitPro/portlibs/armv6k/lib\libz.a(crc32.o)
                0x0018ea04                get_crc_table
                0x0018ea10                crc32
                0x0018edc0                crc32_combine
                0x0018edc4                crc32_combine64
 .text          0x0018edc8     0x40e0 c:/devkitPro/portlibs/armv6k/lib\libz.a(deflate.o)
                0x00190444                deflateSetDictionary
                0x0019065c                deflateResetKeep
                0x00190734                deflateReset
                0x0019089c                deflateSetHeader
                0x001908d0                deflatePending
                0x0019091c                deflatePrime
                0x001909c4                deflateTune
                0x001909fc                deflateBound
                0x00190b10                deflate
                0x00192360                deflateParams
                0x0019247c                deflateEnd
                0x0019259c                deflateInit2_
                0x00192964                deflateInit_
                0x00192ca4                deflateCopy
 .text          0x00192ea8     0x2c58 c:/devkitPro/portlibs/armv6k/lib\libz.a(inflate.o)
                0x00192ea8                inflateResetKeep
                0x00192f38                inflateReset
                0x00192fd4                inflateReset2
                0x001930f4                inflateInit2_
                0x0019327c                inflateInit_
                0x001933e0                inflatePrime
                0x00193458                inflate
                0x001952f4                inflateEnd
                0x00195358                inflateGetDictionary
                0x001953f0                inflateSetDictionary
                0x00195598                inflateGetHeader
                0x001955d4                inflateSync
                0x0019588c                inflateSyncPoint
                0x001958cc                inflateCopy
                0x00195a78                inflateUndermine
                0x00195aa8                inflateMark
 .text          0x00195b00      0xbf4 c:/devkitPro/portlibs/armv6k/lib\libz.a(inftrees.o)
                0x00195b00                inflate_table
 .text          0x001966f4     0x257c c:/devkitPro/portlibs/armv6k/lib\libz.a(trees.o)
                0x00197c24                _tr_init
                0x00197cf0                _tr_stored_block
                0x00197e84                _tr_flush_bits
                0x00197f20                _tr_align
                0x001980a4                _tr_flush_block
                0x00198bb8                _tr_tally
 .text          0x00198c70       0x38 c:/devkitPro/portlibs/armv6k/lib\libz.a(zutil.o)
                0x00198c70                zlibVersion
                0x00198c7c                zlibCompileFlags
                0x00198c84                zError
                0x00198c98                zcalloc
                0x00198ca0                zcfree
 .text          0x00198ca8      0xbe4 c:/devkitPro/portlibs/armv6k/lib\libz.a(inffast.o)
                0x00198ca8                inflate_fast
 .text          0x0019988c      0x75c c:/devkitPro/libctru/lib\libsf2d.a(sf2d.o)
                0x00199aa4                sf2d_init
                0x00199acc                sf2d_init_advanced
                0x00199aec                sf2d_fini
                0x00199b50                sf2d_set_3D
                0x00199b5c                sf2d_start_frame
                0x00199cec                sf2d_end_frame
                0x00199e04                sf2d_swapbuffers
                0x00199eb4                sf2d_set_vblank_wait
                0x00199ec4                sf2d_get_fps
                0x00199ed4                sf2d_pool_malloc
                0x00199f00                sf2d_pool_memalign
                0x00199f40                sf2d_pool_space_free
                0x00199f58                sf2d_pool_reset
                0x00199f6c                sf2d_set_clear_color
                0x00199f7c                sf2d_set_scissor_test
                0x00199fc8                sf2d_get_current_screen
                0x00199fd8                sf2d_get_current_side
 .text          0x00199fe8      0x4b8 c:/devkitPro/libctru/lib\libsf2d.a(sf2d_private.o)
                0x00199fe8                GPU_SetDummyTexEnv
                0x0019a01c                vector_mult_matrix4x4
                0x0019a0a0                matrix_gpu_set_uniform
                0x0019a0b0                matrix_copy
                0x0019a0ec                matrix_identity4x4
                0x0019a138                matrix_mult4x4
                0x0019a1ac                matrix_set_z_rotation
                0x0019a220                matrix_rotate_z
                0x0019a280                matrix_set_scaling
                0x0019a2cc                matrix_swap_xy
                0x0019a36c                matrix_init_orthographic
                0x0019a480                next_pow2
 .text          0x0019a4a0     0x2138 c:/devkitPro/libctru/lib\libsf2d.a(sf2d_texture.o)
                0x0019a5c4                sf2d_create_texture
                0x0019a7c4                sf2d_free_texture
                0x0019a814                sf2d_fill_texture_from_RGBA8
                0x0019a8cc                sf2d_create_texture_mem_RGBA8
                0x0019a910                sf2d_bind_texture
                0x0019a988                sf2d_bind_texture_color
                0x0019aa08                sf2d_bind_texture_parameters
                0x0019aa80                sf2d_texture_set_params
                0x0019aa88                sf2d_texture_get_params
                0x0019aa90                sf2d_draw_texture
                0x0019abd0                sf2d_draw_texture_blend
                0x0019ad14                sf2d_draw_texture_rotate_hotspot
                0x0019aec4                sf2d_draw_texture_rotate_hotspot_blend
                0x0019b078                sf2d_draw_texture_rotate
                0x0019b23c                sf2d_draw_texture_rotate_blend
                0x0019b404                sf2d_draw_texture_part
                0x0019b580                sf2d_draw_texture_part_blend
                0x0019b700                sf2d_draw_texture_scale
                0x0019b868                sf2d_draw_texture_scale_blend
                0x0019b9d4                sf2d_draw_texture_part_scale
                0x0019bb28                sf2d_draw_texture_part_scale_blend
                0x0019bc80                sf2d_draw_texture_part_rotate_scale
                0x0019be98                sf2d_draw_texture_part_rotate_scale_blend
                0x0019c0b4                sf2d_draw_texture_depth
                0x0019c214                sf2d_draw_texture_depth_blend
                0x0019c378                sf2d_draw_quad_uv
                0x0019c4a4                sf2d_set_pixel
                0x0019c538                sf2d_get_pixel
                0x0019c5c8                sf2d_texture_tile32
 .text          0x0019c5d8        0x0 c:/devkitPro/libctru/lib\libsf2d.a(shader.vsh.o)
 .text          0x0019c5d8      0x1d4 c:/devkitPro/libctru/lib\libctru.a(linear.o)
                0x0019c600                linearMemAlign
                0x0019c740                linearAlloc
                0x0019c748                linearRealloc
                0x0019c750                linearFree
                0x0019c7a0                linearSpaceFree
 .text          0x0019c7ac      0x35c c:/devkitPro/libctru/lib\libctru.a(mem_pool.o)
                0x0019c7ac                MemPool::CoalesceRight(MemBlock*)
                0x0019c84c                MemPool::Allocate(MemChunk&, unsigned long, int)
                0x0019c9d4                MemPool::Deallocate(MemChunk const&)
                0x0019cad8                MemPool::GetFreeSpace()
 .text          0x0019cb08      0x1c4 c:/devkitPro/libctru/lib\libctru.a(vram.o)
                0x0019cb30                vramMemAlign
                0x0019cc60                vramAlloc
                0x0019cc68                vramRealloc
                0x0019cc70                vramFree
                0x0019ccc0                vramSpaceFree
 .text          0x0019cccc      0x748 c:/devkitPro/libctru/lib\libctru.a(gfx.o)
                0x0019cd58                gfxSet3D
                0x0019cd68                gfxSetScreenFormat
                0x0019cd80                gfxGetScreenFormat
                0x0019cd98                gfxSetDoubleBuffering
                0x0019cdac                gfxSetFramebufferInfo
                0x0019ce1c                gfxWriteFramebufferInfo
                0x0019cee0                gfxInit
                0x0019d0c0                gfxInitDefault
                0x0019d0d0                gfxExit
                0x0019d1b8                gfxGetFramebuffer
                0x0019d268                gfxFlushBuffers
                0x0019d344                gfxSwapBuffers
                0x0019d3b8                gfxSwapBuffersGpu
 *fill*         0x0019d414        0x4 
 .text          0x0019d418      0x550 c:/devkitPro/libctru/lib\libctru.a(os.o)
                0x0019d54c                osConvertVirtToPhys
                0x0019d598                osConvertOldLINEARMemToNew
                0x0019d5b8                __libctru_gtod
                0x0019d6ac                osGetTime
                0x0019d720                osGetFirmVersion
                0x0019d734                osGetKernelVersion
                0x0019d748                osStrError
                0x0019d768                osGetWifiStrength
                0x0019d778                __ctru_speedup_config
                0x0019d7ac                osSetSpeedupEnable
                0x0019d7bc                osGetSystemVersionData
                0x0019d8ec                osGetSystemVersionDataString
 .text          0x0019d968      0xa8c c:/devkitPro/libctru/lib\libctru.a(romfs_dev.o)
                0x0019e0e8                romfsInit
                0x0019e370                romfsInitFromFile
                0x0019e398                romfsExit
 .text          0x0019e3f4      0x3b8 c:/devkitPro/libctru/lib\libctru.a(srv.o)
                0x0019e3f4                __get_handle_from_list
                0x0019e48c                __destroy_handle_list
                0x0019e4e0                srvExit
                0x0019e508                srvGetSessionHandle
                0x0019e514                srvRegisterClient
                0x0019e54c                srvInit
                0x0019e5b4                srvGetServiceHandle
                0x0019e634                srvRegisterService
                0x0019e690                srvUnregisterService
                0x0019e6dc                srvPmInit
                0x0019e730                srvRegisterProcess
                0x0019e778                srvUnregisterProcess
 .text          0x0019e7ac     0x1a58 c:/devkitPro/libctru/lib\libctru.a(gpu.o)
                0x0019e82c                GPU_Init
                0x0019e858                GPUCMD_SetBuffer
                0x0019e884                GPUCMD_SetBufferOffset
                0x0019e894                GPUCMD_GetBuffer
                0x0019e8d4                GPUCMD_AddRawCommands
                0x0019e920                GPUCMD_Run
                0x0019e980                GPUCMD_FlushAndRun
                0x0019e9f4                GPUCMD_Add
                0x0019ead8                GPUCMD_Finalize
                0x0019eb70                GPU_Reset
                0x0019f350                GPU_SetFloatUniform
                0x0019f3c8                GPU_SetViewport
                0x0019f5bc                GPU_SetScissorTest
                0x0019f608                GPU_DepthMap
                0x0019f684                GPU_SetAlphaTest
                0x0019f6bc                GPU_SetStencilTest
                0x0019f704                GPU_SetStencilOp
                0x0019f738                GPU_SetDepthTestAndWriteMask
                0x0019f770                GPU_SetAlphaBlending
                0x0019f7d8                GPU_SetColorLogicOp
                0x0019f81c                GPU_SetBlendingColor
                0x0019f858                GPU_SetTextureEnable
                0x0019f8a4                GPU_SetTexture
                0x0019fa3c                GPU_SetTextureBorderColor
                0x0019fad0                GPU_SetAttributeBuffers
                0x0019fccc                GPU_SetAttributeBuffersAddress
                0x0019fcf8                GPU_SetFaceCulling
                0x0019fd24                GPU_SetCombinerBufferWrite
                0x0019fd58                GPU_SetTexEnv
                0x0019fdd0                GPU_DrawArray
                0x0019ff00                GPU_DrawElements
                0x001a0034                GPU_FinishDrawing
                0x001a0090                GPU_SetShaderOutmap
                0x001a00d8                GPU_SendShaderCode
                0x001a0190                GPU_SendOperandDescriptors
 .text          0x001a0204        0x0 c:/devkitPro/libctru/lib\libctru.a(gpuResetSequence.o)
 .text          0x001a0204      0x7f4 c:/devkitPro/libctru/lib\libctru.a(shaderProgram.o)
                0x001a0204                shaderInstanceInit
                0x001a040c                shaderInstanceFree
                0x001a0444                shaderInstanceSetBool
                0x001a0484                shaderInstanceGetBool
                0x001a04d0                shaderInstanceGetUniformLocation
                0x001a04f0                shaderProgramInit
                0x001a0508                shaderProgramFree
                0x001a0538                shaderProgramSetVsh
                0x001a05a4                shaderProgramSetGsh
                0x001a0618                shaderProgramUse
 .text          0x001a09f8      0x348 c:/devkitPro/libctru/lib\libctru.a(shbin.o)
                0x001a09f8                DVLB_Free
                0x001a0a34                DVLE_GetUniformRegister
                0x001a0ab0                DVLE_GenerateOutmap
                0x001a0ba8                DVLB_ParseFile
 .text          0x001a0d40     0x1e3c c:/devkitPro/libctru/lib\libctru.a(apt.o)
                0x001a0da4                _aptDebug
                0x001a0da8                aptInitCaptureInfo
                0x001a0e58                aptWaitStatusEvent
                0x001a0e80                aptHook
                0x001a0eb8                aptUnhook
                0x001a0ee4                aptGetStatus
                0x001a0f1c                aptSetStatus
                0x001a0f8c                aptGetStatusPower
                0x001a0fc4                aptSetStatusPower
                0x001a0ffc                aptOpenSession
                0x001a1020                aptCloseSession
                0x001a1048                aptSignalReadyForSleep
                0x001a1058                APT_GetLockHandle
                0x001a10a8                APT_Initialize
                0x001a1110                APT_Finalize
                0x001a114c                APT_HardwareResetAsync
                0x001a1180                APT_Enable
                0x001a11bc                APT_GetAppletManInfo
                0x001a123c                aptGetMenuAppID
                0x001a1278                APT_GetAppletInfo
                0x001a1310                APT_GetAppletProgramInfo
                0x001a1364                APT_GetProgramID
                0x001a13d4                APT_IsRegistered
                0x001a1424                APT_InquireNotification
                0x001a1474                APT_PrepareToJumpToHomeMenu
                0x001a14a8                APT_JumpToHomeMenu
                0x001a14f8                APT_PrepareToJumpToApplication
                0x001a1534                APT_JumpToApplication
                0x001a1584                APT_NotifyToWait
                0x001a15c0                APT_AppletUtility
                0x001a1648                aptAppletUtility_Exit_RetToApp
                0x001a1768                aptAppletClosed
                0x001a1878                aptInit
                0x001a1a40                APT_GlanceParameter
                0x001a1ab4                APT_ReceiveParameter
                0x001a1b28                APT_SendParameter
                0x001a1b98                APT_SendCaptureBufferInfo
                0x001a1be4                aptReturnToMenu
                0x001a1db8                APT_ReplySleepQuery
                0x001a1df8                APT_ReplySleepNotificationComplete
                0x001a1e34                aptEventHandler
                0x001a2138                APT_PrepareToCloseApplication
                0x001a2174                APT_CloseApplication
                0x001a21cc                aptExit
                0x001a23b8                APT_SetAppCpuTimeLimit
                0x001a23fc                APT_GetAppCpuTimeLimit
                0x001a2450                APT_CheckNew3DS_Application
                0x001a24ac                APT_CheckNew3DS_System
                0x001a2508                APT_CheckNew3DS
                0x001a257c                APT_PrepareToDoAppJump
                0x001a25c8                APT_DoAppJump
                0x001a2630                APT_PrepareToStartLibraryApplet
                0x001a266c                APT_StartLibraryApplet
                0x001a26cc                aptAppletStarted
                0x001a27d0                aptMainLoop
                0x001a2948                APT_LaunchLibraryApplet
                0x001a2ae0                APT_PrepareToStartSystemApplet
                0x001a2b1c                APT_StartSystemApplet
 .text          0x001a2b7c      0x288 c:/devkitPro/libctru/lib\libctru.a(cfgu.o)
                0x001a2b7c                initCfgu
                0x001a2bd0                exitCfgu
                0x001a2bf0                CFGU_SecureInfoGetRegion
                0x001a2c28                CFGU_GenHashConsoleUnique
                0x001a2c80                CFGU_GetRegionCanadaUSA
                0x001a2cb8                CFGU_GetSystemModel
                0x001a2cf0                CFGU_GetModelNintendo2DS
                0x001a2d28                CFGU_GetCountryCodeString
                0x001a2d68                CFGU_GetCountryCodeID
                0x001a2da8                CFGU_GetConfigInfoBlk2
                0x001a2df0                CFGU_GetSystemLanguage
 .text          0x001a2e04      0xb7c c:/devkitPro/libctru/lib\libctru.a(csnd.o)
                0x001a2e04                CSND_AcquireCapUnit
                0x001a2e3c                CSND_ReleaseCapUnit
                0x001a2e70                CSND_Reset
                0x001a2e9c                csndInit
                0x001a3004                csndExit
                0x001a3098                csndAddCmd
                0x001a3158                csndWriteCmd
                0x001a3198                csndExecCmds
                0x001a3234                CSND_SetPlayStateR
                0x001a3254                CSND_SetPlayState
                0x001a3274                CSND_SetEncoding
                0x001a3294                CSND_SetBlock
                0x001a32c4                CSND_SetLooping
                0x001a32e4                CSND_SetBit7
                0x001a3304                CSND_SetInterp
                0x001a3324                CSND_SetDuty
                0x001a3344                CSND_SetTimer
                0x001a3364                CSND_SetVol
                0x001a338c                CSND_SetAdpcmState
                0x001a33c8                CSND_SetAdpcmReload
                0x001a33e8                CSND_SetChnRegs
                0x001a3428                CSND_SetChnRegsPSG
                0x001a3458                CSND_SetChnRegsNoise
                0x001a3480                CSND_CapEnable
                0x001a34a0                CSND_CapSetRepeat
                0x001a34c8                CSND_CapSetFormat
                0x001a34ec                CSND_CapSetBit2
                0x001a3510                CSND_CapSetTimer
                0x001a3534                CSND_CapSetBuffer
                0x001a3560                CSND_SetCapRegs
                0x001a3594                CSND_SetDspFlags
                0x001a35b0                CSND_UpdateInfo
                0x001a35cc                csndPlaySound
                0x001a3818                csndGetDspFlags
                0x001a3870                csndGetChnInfo
                0x001a38b0                csndGetCapInfo
                0x001a38d8                csndGetState
                0x001a3958                csndIsPlaying
 .text          0x001a3980      0xd4c c:/devkitPro/libctru/lib\libctru.a(fs.o)
                0x001a3980                FS_makePath
                0x001a39ac                fsExit
                0x001a39d0                fsGetSessionHandle
                0x001a39dc                FSUSER_Initialize
                0x001a3a50                fsInit
                0x001a3abc                FSUSER_OpenFile
                0x001a3b68                FSUSER_OpenFileDirectly
                0x001a3c34                FSUSER_DeleteFile
                0x001a3cbc                FSUSER_RenameFile
                0x001a3d80                FSUSER_DeleteDirectory
                0x001a3e08                FSUSER_DeleteDirectoryRecursively
                0x001a3e90                FSUSER_CreateFile
                0x001a3f28                FSUSER_CreateDirectory
                0x001a3fb4                FSUSER_RenameDirectory
                0x001a4078                FSUSER_OpenDirectory
                0x001a410c                FSUSER_OpenArchive
                0x001a4194                FSUSER_CloseArchive
                0x001a41ec                FSUSER_GetSdmcArchiveResource
                0x001a4268                FSUSER_GetNandArchiveResource
                0x001a42e4                FSUSER_IsSdmcDetected
                0x001a4330                FSUSER_GetProductInfo
                0x001a43a8                FSUSER_GetMediaType
                0x001a43f4                FSUSER_IsSdmcWritable
                0x001a4440                FSFILE_Close
                0x001a4484                FSFILE_Read
                0x001a44e0                FSFILE_Write
                0x001a4544                FSFILE_GetSize
                0x001a4584                FSFILE_SetSize
                0x001a45b0                FSFILE_GetAttributes
                0x001a45e8                FSFILE_SetAttributes
                0x001a4610                FSFILE_Flush
                0x001a4634                FSDIR_Read
                0x001a4688                FSDIR_Close
 .text          0x001a46cc      0x934 c:/devkitPro/libctru/lib\libctru.a(gsp.o)
                0x001a47b0                gspInit
                0x001a47c4                gspExit
                0x001a47dc                gspInitEventHandler
                0x001a48a8                gspExitEventHandler
                0x001a4900                gspWaitForEvent
                0x001a4958                GSPGPU_WriteHWRegs
                0x001a49c8                GSPGPU_WriteHWRegsWithMask
                0x001a4a54                GSPGPU_ReadHWRegs
                0x001a4ac4                GSPGPU_SetBufferSwap
                0x001a4b38                GSPGPU_FlushDataCache
                0x001a4b8c                GSPGPU_InvalidateDataCache
                0x001a4be0                GSPGPU_SetLcdForceBlack
                0x001a4c1c                GSPGPU_TriggerCmdReqQueue
                0x001a4c50                GSPGPU_RegisterInterruptRelayQueue
                0x001a4cbc                GSPGPU_UnregisterInterruptRelayQueue
                0x001a4cf0                GSPGPU_AcquireRight
                0x001a4d40                GSPGPU_ReleaseRight
                0x001a4d74                GSPGPU_ImportDisplayCaptureInfo
                0x001a4df8                GSPGPU_SaveVramSysArea
                0x001a4e2c                GSPGPU_RestoreVramSysArea
                0x001a4e60                GSPGPU_SubmitGxCommand
                0x001a4f6c                gspLcdInit
                0x001a4f80                gspLcdExit
                0x001a4f98                GSPLCD_PowerOffBacklight
                0x001a4fcc                GSPLCD_PowerOnBacklight
 .text          0x001a5000      0x264 c:/devkitPro/libctru/lib\libctru.a(gx.o)
                0x001a5000                GX_RequestDma
                0x001a5054                GX_SetCommandList_Last
                0x001a50bc                GX_SetMemoryFill
                0x001a5130                GX_SetDisplayTransfer
                0x001a5194                GX_SetTextureCopy
                0x001a51fc                GX_SetCommandList_First
 .text          0x001a5264      0x754 c:/devkitPro/libctru/lib\libctru.a(hid.o)
                0x001a5264                hidExit
                0x001a5334                hidWaitForEvent
                0x001a538c                hidCheckSectionUpdateTime
                0x001a53c8                hidScanInput
                0x001a5610                hidKeysHeld
                0x001a5620                hidKeysDown
                0x001a5630                hidKeysUp
                0x001a5640                hidTouchRead
                0x001a5658                hidCircleRead
                0x001a5670                hidAccelRead
                0x001a5690                hidGyroRead
                0x001a56b0                HIDUSER_GetHandles
                0x001a5740                hidInit
                0x001a5894                HIDUSER_EnableAccelerometer
                0x001a58c0                HIDUSER_DisableAccelerometer
                0x001a58ec                HIDUSER_EnableGyroscope
                0x001a5918                HIDUSER_DisableGyroscope
                0x001a5944                HIDUSER_GetGyroscopeRawToDpsCoefficient
                0x001a5980                HIDUSER_GetSoundVolume
 .text          0x001a59b8      0x3c0 c:/devkitPro/libctru/lib\libctru.a(irrst.o)
                0x001a59b8                irrstWaitForEvent
                0x001a5a04                irrstCheckSectionUpdateTime
                0x001a5a40                irrstScanInput
                0x001a5af4                irrstKeysHeld
                0x001a5b0c                irrstCstickRead
                0x001a5b24                IRRST_GetHandles
                0x001a5b74                IRRST_Initialize
                0x001a5bac                irrstInit
                0x001a5cac                IRRST_Shutdown
                0x001a5cd8                irrstExit
 .text          0x001a5d78      0x1bc c:/devkitPro/libctru/lib\libctru.a(ptm.o)
                0x001a5d78                ptmInit
                0x001a5d8c                ptmExit
                0x001a5d9c                ptmSysmInit
                0x001a5db0                ptmSysmExit
                0x001a5dc0                PTMU_GetShellState
                0x001a5e00                PTMU_GetBatteryLevel
                0x001a5e40                PTMU_GetBatteryChargeState
                0x001a5e80                PTMU_GetPedometerState
                0x001a5ec0                PTMU_GetTotalStepCount
                0x001a5f00                PTMSYSM_ConfigureNew3DSCPU
 .text          0x001a5f34       0x70 c:/devkitPro/libctru/lib\libctru.a(rbtree_find.o)
                0x001a5f34                rbtree_find
 .text          0x001a5fa4       0x14 c:/devkitPro/libctru/lib\libctru.a(rbtree_init.o)
                0x001a5fa4                rbtree_init
 .text          0x001a5fb8      0x1f4 c:/devkitPro/libctru/lib\libctru.a(rbtree_insert.o)
                0x001a619c                rbtree_insert
                0x001a61a4                rbtree_insert_multi
 .text          0x001a61ac      0x340 c:/devkitPro/libctru/lib\libctru.a(rbtree_remove.o)
                0x001a61ac                rbtree_remove
 .text          0x001a64ec       0xac c:/devkitPro/libctru/lib\libctru.a(rbtree_rotate.o)
                0x001a64ec                rbtree_rotate
 .text          0x001a6598       0xb8 c:/devkitPro/libctru/lib\libctru.a(utf8_to_utf16.o)
                0x001a6598                utf8_to_utf16
 .text          0x001a6650       0xa4 c:/devkitPro/libctru/lib\libctru.a(allocateHeaps.o)
                0x001a6650                __system_allocateHeaps
 .text          0x001a66f4       0xf4 c:/devkitPro/libctru/lib\libctru.a(initArgv.o)
                0x001a66f4                __system_initArgv
 .text          0x001a67e8       0x4c c:/devkitPro/libctru/lib\libctru.a(initSystem.o)
                0x001a67e8                __libctru_init
 *fill*         0x001a6834        0xc 
 .text          0x001a6840      0x460 c:/devkitPro/libctru/lib\libctru.a(svc.o)
                0x001a6840                svcControlMemory
                0x001a6860                svcQueryMemory
                0x001a6890                svcExitProcess
                0x001a6898                svcCreateThread
                0x001a68b8                svcExitThread
                0x001a68c0                svcSleepThread
                0x001a68c8                svcGetThreadPriority
                0x001a68dc                svcSetThreadPriority
                0x001a68e4                svcGetThreadAffinityMask
                0x001a68ec                svcSetThreadAffinityMask
                0x001a68f4                svcGetThreadIdealProcessor
                0x001a6908                svcSetThreadIdealProcessor
                0x001a6910                svcGetProcessorID
                0x001a6918                svcCreateMutex
                0x001a692c                svcReleaseMutex
                0x001a6934                svcCreateSemaphore
                0x001a6948                svcReleaseSemaphore
                0x001a695c                svcCreateEvent
                0x001a6970                svcSignalEvent
                0x001a6978                svcClearEvent
                0x001a6980                svcCreateTimer
                0x001a6994                svcSetTimer
                0x001a699c                svcCancelTimer
                0x001a69a4                svcClearTimer
                0x001a69ac                svcCreateMemoryBlock
                0x001a69c4                svcMapMemoryBlock
                0x001a69cc                svcUnmapMemoryBlock
                0x001a69d4                svcCreateAddressArbiter
                0x001a69e8                svcArbitrateAddress
                0x001a6a08                svcCloseHandle
                0x001a6a10                svcWaitSynchronization
                0x001a6a18                svcWaitSynchronizationN
                0x001a6a40                svcDuplicateHandle
                0x001a6a54                svcGetSystemTick
                0x001a6a5c                svcGetSystemInfo
                0x001a6a74                svcGetProcessInfo
                0x001a6a8c                svcGetThreadInfo
                0x001a6aa4                svcConnectToPort
                0x001a6ab8                svcSendSyncRequest
                0x001a6ac0                svcOpenProcess
                0x001a6ad4                svcOpenThread
                0x001a6ae8                svcGetProcessId
                0x001a6afc                svcGetProcessIdOfThread
                0x001a6b10                svcGetThreadId
                0x001a6b24                svcBreak
                0x001a6b2c                svcOutputDebugString
                0x001a6b34                svcCreatePort
                0x001a6b54                svcAcceptSession
                0x001a6b6c                svcReplyAndReceive
                0x001a6b84                svcInvalidateProcessDataCache
                0x001a6b8c                svcFlushProcessDataCache
                0x001a6b94                svcStartInterProcessDma
                0x001a6bb4                svcStopDma
                0x001a6bbc                svcGetDmaState
                0x001a6bd0                svcDebugActiveProcess
                0x001a6be4                svcBreakDebugProcess
                0x001a6bec                svcTerminateDebugProcess
                0x001a6bf4                svcGetProcessDebugEvent
                0x001a6bfc                svcContinueDebugEvent
                0x001a6c04                svcGetProcessList
                0x001a6c24                svcReadProcessMemory
                0x001a6c2c                svcWriteProcessMemory
                0x001a6c34                svcControlProcessMemory
                0x001a6c4c                svcMapProcessMemory
                0x001a6c54                svcUnmapProcessMemory
                0x001a6c5c                svcTerminateProcess
                0x001a6c64                svcBackdoor
                0x001a6c6c                svcKernelSetState
                0x001a6c74                svcQueryProcessMemory
 .text          0x001a6ca0       0x64 c:/devkitPro/libctru/lib\libctru.a(stack_adjust.o)
                0x001a6ca0                initSystem
                0x001a6ce4                __ctru_exit
 .text          0x001a6d04      0x178 c:/devkitPro/libctru/lib\libctru.a(mappable.o)
                0x001a6d2c                mappableAlloc
                0x001a6e20                mappableFree
                0x001a6e70                mappableSpaceFree
 .text          0x001a6e7c      0x118 c:/devkitPro/libctru/lib\libctru.a(rbtree_iterator.o)
                0x001a6e7c                rbtree_node_next
                0x001a6f08                rbtree_node_prev
 .text          0x001a6f94      0x138 c:/devkitPro/libctru/lib\libctru.a(decode_utf8.o)
                0x001a6f94                decode_utf8
 .text          0x001a70cc       0x68 c:/devkitPro/libctru/lib\libctru.a(encode_utf16.o)
                0x001a70cc                encode_utf16
 .text          0x001a7134       0x1c c:/devkitPro/libctru/lib\libctru.a(appExit.o)
                0x001a7134                __appExit
 .text          0x001a7150       0x1c c:/devkitPro/libctru/lib\libctru.a(appInit.o)
                0x001a7150                __appInit
 .text          0x001a716c       0x90 c:/devkitPro/libctru/lib\libctru.a(ctru_exit.o)
                0x001a716c                __libctru_exit
 .text          0x001a71fc      0xffc c:/devkitPro/libctru/lib\libctru.a(sdmc_dev.o)
                0x001a8078                sdmcInit
                0x001a81a8                sdmcExit
 .text          0x001a81f8       0xe8 c:/devkitPro/libctru/lib\libctru.a(utf16_to_utf8.o)
                0x001a81f8                utf16_to_utf8
 .text          0x001a82e0       0x60 c:/devkitPro/libctru/lib\libctru.a(decode_utf16.o)
                0x001a82e0                decode_utf16
 .text          0x001a8340      0x104 c:/devkitPro/libctru/lib\libctru.a(encode_utf8.o)
                0x001a8340                encode_utf8
 .text          0x001a8444        0x0 c:/devkitpro/devkitarm/bin/../lib/gcc/arm-none-eabi/4.9.2/../../../../arm-none-eabi/lib/armv6k/fpu\libm.a(lib_a-sf_cos.o)
 .text          0x001a8444        0x0 c:/devkitpro/devkitarm/bin/../lib/gcc/arm-none-eabi/4.9.2/../../../../arm-none-eabi/lib/armv6k/fpu\libm.a(lib_a-s_floor.o)
 .text          0x001a8444        0x0 c:/devkitpro/devkitarm/bin/../lib/gcc/arm-none-eabi/4.9.2/../../../../arm-none-eabi/lib/armv6k/fpu\libm.a(lib_a-s_frexp.o)
 .text          0x001a8444        0x0 c:/devkitpro/devkitarm/bin/../lib/gcc/arm-none-eabi/4.9.2/../../../../arm-none-eabi/lib/armv6k/fpu\libm.a(lib_a-sf_sin.o)
 .text          0x001a8444        0x0 c:/devkitpro/devkitarm/bin/../lib/gcc/arm-none-eabi/4.9.2/../../../../arm-none-eabi/lib/armv6k/fpu\libm.a(lib_a-s_modf.o)
 .text          0x001a8444        0x0 c:/devkitpro/devkitarm/bin/../lib/gcc/arm-none-eabi/4.9.2/../../../../arm-none-eabi/lib/armv6k/fpu\libm.a(lib_a-w_pow.o)
 .text          0x001a8444        0x0 c:/devkitpro/devkitarm/bin/../lib/gcc/arm-none-eabi/4.9.2/../../../../arm-none-eabi/lib/armv6k/fpu\libm.a(lib_a-ef_rem_pio2.o)
 .text          0x001a8444        0x0 c:/devkitpro/devkitarm/bin/../lib/gcc/arm-none-eabi/4.9.2/../../../../arm-none-eabi/lib/armv6k/fpu\libm.a(lib_a-e_pow.o)
 .text          0x001a8444        0x0 c:/devkitpro/devkitarm/bin/../lib/gcc/arm-none-eabi/4.9.2/../../../../arm-none-eabi/lib/armv6k/fpu\libm.a(lib_a-e_sqrt.o)
 .text          0x001a8444        0x0 c:/devkitpro/devkitarm/bin/../lib/gcc/arm-none-eabi/4.9.2/../../../../arm-none-eabi/lib/armv6k/fpu\libm.a(lib_a-kf_cos.o)
 .text          0x001a8444        0x0 c:/devkitpro/devkitarm/bin/../lib/gcc/arm-none-eabi/4.9.2/../../../../arm-none-eabi/lib/armv6k/fpu\libm.a(lib_a-kf_rem_pio2.o)
 .text          0x001a8444        0x0 c:/devkitpro/devkitarm/bin/../lib/gcc/arm-none-eabi/4.9.2/../../../../arm-none-eabi/lib/armv6k/fpu\libm.a(lib_a-kf_sin.o)
 .text          0x001a8444        0x0 c:/devkitpro/devkitarm/bin/../lib/gcc/arm-none-eabi/4.9.2/../../../../arm-none-eabi/lib/armv6k/fpu\libm.a(lib_a-s_fabs.o)
 .text          0x001a8444        0x0 c:/devkitpro/devkitarm/bin/../lib/gcc/arm-none-eabi/4.9.2/../../../../arm-none-eabi/lib/armv6k/fpu\libm.a(lib_a-sf_fabs.o)
 .text          0x001a8444        0x0 c:/devkitpro/devkitarm/bin/../lib/gcc/arm-none-eabi/4.9.2/../../../../arm-none-eabi/lib/armv6k/fpu\libm.a(lib_a-sf_floor.o)
 .text          0x001a8444        0x0 c:/devkitpro/devkitarm/bin/../lib/gcc/arm-none-eabi/4.9.2/../../../../arm-none-eabi/lib/armv6k/fpu\libm.a(lib_a-s_finite.o)
 .text          0x001a8444        0x0 c:/devkitpro/devkitarm/bin/../lib/gcc/arm-none-eabi/4.9.2/../../../../arm-none-eabi/lib/armv6k/fpu\libm.a(lib_a-s_fpclassify.o)
 .text          0x001a8444        0x0 c:/devkitpro/devkitarm/bin/../lib/gcc/arm-none-eabi/4.9.2/../../../../arm-none-eabi/lib/armv6k/fpu\libm.a(lib_a-sf_scalbn.o)
 .text          0x001a8444        0x0 c:/devkitpro/devkitarm/bin/../lib/gcc/arm-none-eabi/4.9.2/../../../../arm-none-eabi/lib/armv6k/fpu\libm.a(lib_a-s_lib_ver.o)
 .text          0x001a8444        0x0 c:/devkitpro/devkitarm/bin/../lib/gcc/arm-none-eabi/4.9.2/../../../../arm-none-eabi/lib/armv6k/fpu\libm.a(lib_a-s_matherr.o)
 .text          0x001a8444        0x0 c:/devkitpro/devkitarm/bin/../lib/gcc/arm-none-eabi/4.9.2/../../../../arm-none-eabi/lib/armv6k/fpu\libm.a(lib_a-s_nan.o)
 .text          0x001a8444        0x0 c:/devkitpro/devkitarm/bin/../lib/gcc/arm-none-eabi/4.9.2/../../../../arm-none-eabi/lib/armv6k/fpu\libm.a(lib_a-s_rint.o)
 .text          0x001a8444        0x0 c:/devkitpro/devkitarm/bin/../lib/gcc/arm-none-eabi/4.9.2/../../../../arm-none-eabi/lib/armv6k/fpu\libm.a(lib_a-s_scalbn.o)
 .text          0x001a8444        0x0 c:/devkitpro/devkitarm/bin/../lib/gcc/arm-none-eabi/4.9.2/../../../../arm-none-eabi/lib/armv6k/fpu\libm.a(lib_a-s_copysign.o)
 .text          0x001a8444        0x0 c:/devkitpro/devkitarm/bin/../lib/gcc/arm-none-eabi/4.9.2/../../../../arm-none-eabi/lib/armv6k/fpu\libm.a(lib_a-sf_copysign.o)
 .text          0x001a8444      0x20c c:/devkitpro/devkitarm/bin/../lib/gcc/arm-none-eabi/4.9.2/armv6k/fpu\libgcc.a(_udivsi3.o)
                0x001a8444                __aeabi_uidiv
                0x001a8444                __udivsi3
                0x001a8630                __aeabi_uidivmod
 .text          0x001a8650      0x240 c:/devkitpro/devkitarm/bin/../lib/gcc/arm-none-eabi/4.9.2/armv6k/fpu\libgcc.a(_divsi3.o)
                0x001a8650                __divsi3
                0x001a8650                __aeabi_idiv
                0x001a8870                __aeabi_idivmod
 .text          0x001a8890        0x4 c:/devkitpro/devkitarm/bin/../lib/gcc/arm-none-eabi/4.9.2/armv6k/fpu\libgcc.a(_dvmd_tls.o)
                0x001a8890                __aeabi_idiv0
                0x001a8890                __aeabi_ldiv0
 .text          0x001a8894      0x250 c:/devkitpro/devkitarm/bin/../lib/gcc/arm-none-eabi/4.9.2/armv6k/fpu\libgcc.a(_arm_addsubsf3.o)
                0x001a8894                __aeabi_frsub
                0x001a889c                __subsf3
                0x001a889c                __aeabi_fsub
                0x001a88a0                __aeabi_fadd
                0x001a88a0                __addsf3
                0x001a8a30                __aeabi_ui2f
                0x001a8a30                __floatunsisf
                0x001a8a38                __aeabi_i2f
                0x001a8a38                __floatsisf
                0x001a8a58                __aeabi_ul2f
                0x001a8a58                __floatundisf
                0x001a8a68                __aeabi_l2f
                0x001a8a68                __floatdisf
 .text          0x001a8ae4       0x44 c:/devkitpro/devkitarm/bin/../lib/gcc/arm-none-eabi/4.9.2/armv6k/fpu\libgcc.a(_popcountsi2.o)
                0x001a8ae4                __popcountsi2
 .text          0x001a8b28        0x0 c:/devkitpro/devkitarm/bin/../lib/gcc/arm-none-eabi/4.9.2/../../../../arm-none-eabi/lib/armv6k/fpu\libg.a(lib_a-abort.o)
 .text          0x001a8b28        0x0 c:/devkitpro/devkitarm/bin/../lib/gcc/arm-none-eabi/4.9.2/../../../../arm-none-eabi/lib/armv6k/fpu\libg.a(lib_a-atof.o)
 .text          0x001a8b28        0x0 c:/devkitpro/devkitarm/bin/../lib/gcc/arm-none-eabi/4.9.2/../../../../arm-none-eabi/lib/armv6k/fpu\libg.a(lib_a-atol.o)
 .text          0x001a8b28        0x0 c:/devkitpro/devkitarm/bin/../lib/gcc/arm-none-eabi/4.9.2/../../../../arm-none-eabi/lib/armv6k/fpu\libg.a(lib_a-bsearch.o)
 .text          0x001a8b28        0x0 c:/devkitpro/devkitarm/bin/../lib/gcc/arm-none-eabi/4.9.2/../../../../arm-none-eabi/lib/armv6k/fpu\libg.a(lib_a-errno.o)
 .text          0x001a8b28        0x0 c:/devkitpro/devkitarm/bin/../lib/gcc/arm-none-eabi/4.9.2/../../../../arm-none-eabi/lib/armv6k/fpu\libg.a(lib_a-fclose.o)
 .text          0x001a8b28        0x0 c:/devkitpro/devkitarm/bin/../lib/gcc/arm-none-eabi/4.9.2/../../../../arm-none-eabi/lib/armv6k/fpu\libg.a(lib_a-fflush.o)
 .text          0x001a8b28        0x0 c:/devkitpro/devkitarm/bin/../lib/gcc/arm-none-eabi/4.9.2/../../../../arm-none-eabi/lib/armv6k/fpu\libg.a(lib_a-findfp.o)
 .text          0x001a8b28        0x0 c:/devkitpro/devkitarm/bin/../lib/gcc/arm-none-eabi/4.9.2/../../../../arm-none-eabi/lib/armv6k/fpu\libg.a(lib_a-fini.o)
 .text          0x001a8b28        0x0 c:/devkitpro/devkitarm/bin/../lib/gcc/arm-none-eabi/4.9.2/../../../../arm-none-eabi/lib/armv6k/fpu\libg.a(lib_a-fopen.o)
 .text          0x001a8b28        0x0 c:/devkitpro/devkitarm/bin/../lib/gcc/arm-none-eabi/4.9.2/../../../../arm-none-eabi/lib/armv6k/fpu\libg.a(lib_a-fprintf.o)
 .text          0x001a8b28        0x0 c:/devkitpro/devkitarm/bin/../lib/gcc/arm-none-eabi/4.9.2/../../../../arm-none-eabi/lib/armv6k/fpu\libg.a(lib_a-fputc.o)
 .text          0x001a8b28        0x0 c:/devkitpro/devkitarm/bin/../lib/gcc/arm-none-eabi/4.9.2/../../../../arm-none-eabi/lib/armv6k/fpu\libg.a(lib_a-fread.o)
 .text          0x001a8b28        0x0 c:/devkitpro/devkitarm/bin/../lib/gcc/arm-none-eabi/4.9.2/../../../../arm-none-eabi/lib/armv6k/fpu\libg.a(lib_a-freer.o)
 .text          0x001a8b28        0x0 c:/devkitpro/devkitarm/bin/../lib/gcc/arm-none-eabi/4.9.2/../../../../arm-none-eabi/lib/armv6k/fpu\libg.a(lib_a-fseek.o)
 .text          0x001a8b28        0x0 c:/devkitpro/devkitarm/bin/../lib/gcc/arm-none-eabi/4.9.2/../../../../arm-none-eabi/lib/armv6k/fpu\libg.a(lib_a-fseeko.o)
 .text          0x001a8b28        0x0 c:/devkitpro/devkitarm/bin/../lib/gcc/arm-none-eabi/4.9.2/../../../../arm-none-eabi/lib/armv6k/fpu\libg.a(lib_a-ftell.o)
 .text          0x001a8b28        0x0 c:/devkitpro/devkitarm/bin/../lib/gcc/arm-none-eabi/4.9.2/../../../../arm-none-eabi/lib/armv6k/fpu\libg.a(lib_a-ftello.o)
 .text          0x001a8b28        0x0 c:/devkitpro/devkitarm/bin/../lib/gcc/arm-none-eabi/4.9.2/../../../../arm-none-eabi/lib/armv6k/fpu\libg.a(lib_a-fwalk.o)
 .text          0x001a8b28        0x0 c:/devkitpro/devkitarm/bin/../lib/gcc/arm-none-eabi/4.9.2/../../../../arm-none-eabi/lib/armv6k/fpu\libg.a(lib_a-fwrite.o)
 .text          0x001a8b28        0x0 c:/devkitpro/devkitarm/bin/../lib/gcc/arm-none-eabi/4.9.2/../../../../arm-none-eabi/lib/armv6k/fpu\libg.a(lib_a-gmtime.o)
 .text          0x001a8b28        0x0 c:/devkitpro/devkitarm/bin/../lib/gcc/arm-none-eabi/4.9.2/../../../../arm-none-eabi/lib/armv6k/fpu\libg.a(lib_a-gmtime_r.o)
 .text          0x001a8b28        0x0 c:/devkitpro/devkitarm/bin/../lib/gcc/arm-none-eabi/4.9.2/../../../../arm-none-eabi/lib/armv6k/fpu\libg.a(lib_a-impure.o)
 .text          0x001a8b28        0x0 c:/devkitpro/devkitarm/bin/../lib/gcc/arm-none-eabi/4.9.2/../../../../arm-none-eabi/lib/armv6k/fpu\libg.a(lib_a-init.o)
 .text          0x001a8b28        0x0 c:/devkitpro/devkitarm/bin/../lib/gcc/arm-none-eabi/4.9.2/../../../../arm-none-eabi/lib/armv6k/fpu\libg.a(lib_a-makebuf.o)
 .text          0x001a8b28        0x0 c:/devkitpro/devkitarm/bin/../lib/gcc/arm-none-eabi/4.9.2/../../../../arm-none-eabi/lib/armv6k/fpu\libg.a(lib_a-malloc.o)
 .text          0x001a8b28        0x0 c:/devkitpro/devkitarm/bin/../lib/gcc/arm-none-eabi/4.9.2/../../../../arm-none-eabi/lib/armv6k/fpu\libg.a(lib_a-mallocr.o)
 .text          0x001a8b28        0x0 c:/devkitpro/devkitarm/bin/../lib/gcc/arm-none-eabi/4.9.2/../../../../arm-none-eabi/lib/armv6k/fpu\libg.a(lib_a-memchr.o)
 .text          0x001a8b28        0x0 c:/devkitpro/devkitarm/bin/../lib/gcc/arm-none-eabi/4.9.2/../../../../arm-none-eabi/lib/armv6k/fpu\libg.a(lib_a-memcmp.o)
 .text          0x001a8b28        0x0 c:/devkitpro/devkitarm/bin/../lib/gcc/arm-none-eabi/4.9.2/../../../../arm-none-eabi/lib/armv6k/fpu\libg.a(lib_a-memcpy.o)
 .text          0x001a8b28        0x0 c:/devkitpro/devkitarm/bin/../lib/gcc/arm-none-eabi/4.9.2/../../../../arm-none-eabi/lib/armv6k/fpu\libg.a(lib_a-memmove.o)
 .text          0x001a8b28        0x0 c:/devkitpro/devkitarm/bin/../lib/gcc/arm-none-eabi/4.9.2/../../../../arm-none-eabi/lib/armv6k/fpu\libg.a(lib_a-memset.o)
 .text          0x001a8b28        0x0 c:/devkitpro/devkitarm/bin/../lib/gcc/arm-none-eabi/4.9.2/../../../../arm-none-eabi/lib/armv6k/fpu\libg.a(lib_a-mlock.o)
 .text          0x001a8b28        0x0 c:/devkitpro/devkitarm/bin/../lib/gcc/arm-none-eabi/4.9.2/../../../../arm-none-eabi/lib/armv6k/fpu\libg.a(lib_a-month_lengths.o)
 .text          0x001a8b28        0x0 c:/devkitpro/devkitarm/bin/../lib/gcc/arm-none-eabi/4.9.2/../../../../arm-none-eabi/lib/armv6k/fpu\libg.a(lib_a-putc.o)
 .text          0x001a8b28        0x0 c:/devkitpro/devkitarm/bin/../lib/gcc/arm-none-eabi/4.9.2/../../../../arm-none-eabi/lib/armv6k/fpu\libg.a(lib_a-qsort.o)
 .text          0x001a8b28        0x0 c:/devkitpro/devkitarm/bin/../lib/gcc/arm-none-eabi/4.9.2/../../../../arm-none-eabi/lib/armv6k/fpu\libg.a(lib_a-realloc.o)
 .text          0x001a8b28        0x0 c:/devkitpro/devkitarm/bin/../lib/gcc/arm-none-eabi/4.9.2/../../../../arm-none-eabi/lib/armv6k/fpu\libg.a(lib_a-reallocr.o)
 .text          0x001a8b28        0x0 c:/devkitpro/devkitarm/bin/../lib/gcc/arm-none-eabi/4.9.2/../../../../arm-none-eabi/lib/armv6k/fpu\libg.a(lib_a-refill.o)
 .text          0x001a8b28        0x0 c:/devkitpro/devkitarm/bin/../lib/gcc/arm-none-eabi/4.9.2/../../../../arm-none-eabi/lib/armv6k/fpu\libg.a(lib_a-remove.o)
 .text          0x001a8b28       0x2c c:/devkitpro/devkitarm/bin/../lib/gcc/arm-none-eabi/4.9.2/../../../../arm-none-eabi/lib/armv6k/fpu\libg.a(lib_a-setjmp.o)
                0x001a8b28                setjmp
                0x001a8b3c                longjmp
 .text          0x001a8b54        0x0 c:/devkitpro/devkitarm/bin/../lib/gcc/arm-none-eabi/4.9.2/../../../../arm-none-eabi/lib/armv6k/fpu\libg.a(lib_a-signal.o)
 .text          0x001a8b54        0x0 c:/devkitpro/devkitarm/bin/../lib/gcc/arm-none-eabi/4.9.2/../../../../arm-none-eabi/lib/armv6k/fpu\libg.a(lib_a-snprintf.o)
 .text          0x001a8b54        0x0 c:/devkitpro/devkitarm/bin/../lib/gcc/arm-none-eabi/4.9.2/../../../../arm-none-eabi/lib/armv6k/fpu\libg.a(lib_a-sprintf.o)
 .text          0x001a8b54        0x0 c:/devkitpro/devkitarm/bin/../lib/gcc/arm-none-eabi/4.9.2/../../../../arm-none-eabi/lib/armv6k/fpu\libg.a(lib_a-stdio.o)
 .text          0x001a8b54        0x0 c:/devkitpro/devkitarm/bin/../lib/gcc/arm-none-eabi/4.9.2/../../../../arm-none-eabi/lib/armv6k/fpu\libg.a(lib_a-strchr.o)
 *fill*         0x001a8b54        0xc 
 .text          0x001a8b60      0x3a0 c:/devkitpro/devkitarm/bin/../lib/gcc/arm-none-eabi/4.9.2/../../../../arm-none-eabi/lib/armv6k/fpu\libg.a(lib_a-strcmp.o)
                0x001a8b68                strcmp
 .text          0x001a8f00        0x0 c:/devkitpro/devkitarm/bin/../lib/gcc/arm-none-eabi/4.9.2/../../../../arm-none-eabi/lib/armv6k/fpu\libg.a(lib_a-strcpy.o)
 .text          0x001a8f00        0x0 c:/devkitpro/devkitarm/bin/../lib/gcc/arm-none-eabi/4.9.2/../../../../arm-none-eabi/lib/armv6k/fpu\libg.a(lib_a-strerror.o)
 .text          0x001a8f00        0x0 c:/devkitpro/devkitarm/bin/../lib/gcc/arm-none-eabi/4.9.2/../../../../arm-none-eabi/lib/armv6k/fpu\libg.a(lib_a-strlen.o)
 .text          0x001a8f00        0x0 c:/devkitpro/devkitarm/bin/../lib/gcc/arm-none-eabi/4.9.2/../../../../arm-none-eabi/lib/armv6k/fpu\libg.a(lib_a-strncat.o)
 .text          0x001a8f00        0x0 c:/devkitpro/devkitarm/bin/../lib/gcc/arm-none-eabi/4.9.2/../../../../arm-none-eabi/lib/armv6k/fpu\libg.a(lib_a-strncmp.o)
 .text          0x001a8f00        0x0 c:/devkitpro/devkitarm/bin/../lib/gcc/arm-none-eabi/4.9.2/../../../../arm-none-eabi/lib/armv6k/fpu\libg.a(lib_a-strncpy.o)
 .text          0x001a8f00        0x0 c:/devkitpro/devkitarm/bin/../lib/gcc/arm-none-eabi/4.9.2/../../../../arm-none-eabi/lib/armv6k/fpu\libg.a(lib_a-strrchr.o)
 .text          0x001a8f00        0x0 c:/devkitpro/devkitarm/bin/../lib/gcc/arm-none-eabi/4.9.2/../../../../arm-none-eabi/lib/armv6k/fpu\libg.a(lib_a-strstr.o)
 .text          0x001a8f00        0x0 c:/devkitpro/devkitarm/bin/../lib/gcc/arm-none-eabi/4.9.2/../../../../arm-none-eabi/lib/armv6k/fpu\libg.a(lib_a-strtod.o)
 .text          0x001a8f00        0x0 c:/devkitpro/devkitarm/bin/../lib/gcc/arm-none-eabi/4.9.2/../../../../arm-none-eabi/lib/armv6k/fpu\libg.a(lib_a-strtok.o)
 .text          0x001a8f00        0x0 c:/devkitpro/devkitarm/bin/../lib/gcc/arm-none-eabi/4.9.2/../../../../arm-none-eabi/lib/armv6k/fpu\libg.a(lib_a-strtok_r.o)
 .text          0x001a8f00        0x0 c:/devkitpro/devkitarm/bin/../lib/gcc/arm-none-eabi/4.9.2/../../../../arm-none-eabi/lib/armv6k/fpu\libg.a(lib_a-strtol.o)
 .text          0x001a8f00        0x0 c:/devkitpro/devkitarm/bin/../lib/gcc/arm-none-eabi/4.9.2/../../../../arm-none-eabi/lib/armv6k/fpu\libg.a(lib_a-svfprintf.o)
 .text          0x001a8f00        0x0 c:/devkitpro/devkitarm/bin/../lib/gcc/arm-none-eabi/4.9.2/../../../../arm-none-eabi/lib/armv6k/fpu\libg.a(lib_a-u_strerr.o)
 .text          0x001a8f00        0x0 c:/devkitpro/devkitarm/bin/../lib/gcc/arm-none-eabi/4.9.2/../../../../arm-none-eabi/lib/armv6k/fpu\libg.a(lib_a-vfprintf.o)
 .text          0x001a8f00        0x0 c:/devkitpro/devkitarm/bin/../lib/gcc/arm-none-eabi/4.9.2/../../../../arm-none-eabi/lib/armv6k/fpu\libg.a(lib_a-vsnprintf.o)
 .text          0x001a8f00        0x0 c:/devkitpro/devkitarm/bin/../lib/gcc/arm-none-eabi/4.9.2/../../../../arm-none-eabi/lib/armv6k/fpu\libg.a(lib_a-vswprintf.o)
 .text          0x001a8f00        0x0 c:/devkitpro/devkitarm/bin/../lib/gcc/arm-none-eabi/4.9.2/../../../../arm-none-eabi/lib/armv6k/fpu\libg.a(lib_a-wbuf.o)
 .text          0x001a8f00        0x0 c:/devkitpro/devkitarm/bin/../lib/gcc/arm-none-eabi/4.9.2/../../../../arm-none-eabi/lib/armv6k/fpu\libg.a(lib_a-wcrtomb.o)
 .text          0x001a8f00        0x0 c:/devkitpro/devkitarm/bin/../lib/gcc/arm-none-eabi/4.9.2/../../../../arm-none-eabi/lib/armv6k/fpu\libg.a(lib_a-wcsrtombs.o)
 .text          0x001a8f00        0x0 c:/devkitpro/devkitarm/bin/../lib/gcc/arm-none-eabi/4.9.2/../../../../arm-none-eabi/lib/armv6k/fpu\libg.a(lib_a-wctomb_r.o)
 .text          0x001a8f00        0x0 c:/devkitpro/devkitarm/bin/../lib/gcc/arm-none-eabi/4.9.2/../../../../arm-none-eabi/lib/armv6k/fpu\libg.a(lib_a-wsetup.o)
 .text          0x001a8f00        0x0 c:/devkitpro/devkitarm/bin/../lib/gcc/arm-none-eabi/4.9.2/../../../../arm-none-eabi/lib/armv6k/fpu\libg.a(lib_a-ctype_.o)
 .text          0x001a8f00        0x0 c:/devkitpro/devkitarm/bin/../lib/gcc/arm-none-eabi/4.9.2/../../../../arm-none-eabi/lib/armv6k/fpu\libg.a(lib_a-dtoa.o)
 .text          0x001a8f00        0x0 c:/devkitpro/devkitarm/bin/../lib/gcc/arm-none-eabi/4.9.2/../../../../arm-none-eabi/lib/armv6k/fpu\libg.a(lib_a-flags.o)
 .text          0x001a8f00        0x0 c:/devkitpro/devkitarm/bin/../lib/gcc/arm-none-eabi/4.9.2/../../../../arm-none-eabi/lib/armv6k/fpu\libg.a(lib_a-fvwrite.o)
 .text          0x001a8f00        0x0 c:/devkitpro/devkitarm/bin/../lib/gcc/arm-none-eabi/4.9.2/../../../../arm-none-eabi/lib/armv6k/fpu\libg.a(lib_a-gdtoa-gethex.o)
 .text          0x001a8f00        0x0 c:/devkitpro/devkitarm/bin/../lib/gcc/arm-none-eabi/4.9.2/../../../../arm-none-eabi/lib/armv6k/fpu\libg.a(lib_a-gdtoa-hexnan.o)
 .text          0x001a8f00        0x0 c:/devkitpro/devkitarm/bin/../lib/gcc/arm-none-eabi/4.9.2/../../../../arm-none-eabi/lib/armv6k/fpu\libg.a(lib_a-locale.o)
 .text          0x001a8f00        0x0 c:/devkitpro/devkitarm/bin/../lib/gcc/arm-none-eabi/4.9.2/../../../../arm-none-eabi/lib/armv6k/fpu\libg.a(lib_a-mbtowc_r.o)
 .text          0x001a8f00        0x0 c:/devkitpro/devkitarm/bin/../lib/gcc/arm-none-eabi/4.9.2/../../../../arm-none-eabi/lib/armv6k/fpu\libg.a(lib_a-mprec.o)
 .text          0x001a8f00        0x0 c:/devkitpro/devkitarm/bin/../lib/gcc/arm-none-eabi/4.9.2/../../../../arm-none-eabi/lib/armv6k/fpu\libg.a(lib_a-sf_nan.o)
 .text          0x001a8f00        0x0 c:/devkitpro/devkitarm/bin/../lib/gcc/arm-none-eabi/4.9.2/../../../../arm-none-eabi/lib/armv6k/fpu\libg.a(lib_a-strcasecmp.o)
 .text          0x001a8f00        0x0 c:/devkitpro/devkitarm/bin/../lib/gcc/arm-none-eabi/4.9.2/../../../../arm-none-eabi/lib/armv6k/fpu\libg.a(lib_a-strcat.o)
 .text          0x001a8f00        0x0 c:/devkitpro/devkitarm/bin/../lib/gcc/arm-none-eabi/4.9.2/../../../../arm-none-eabi/lib/armv6k/fpu\libg.a(lib_a-strlcpy.o)
 .text          0x001a8f00        0x0 c:/devkitpro/devkitarm/bin/../lib/gcc/arm-none-eabi/4.9.2/../../../../arm-none-eabi/lib/armv6k/fpu\libg.a(lib_a-strncasecmp.o)
 .text          0x001a8f00        0x0 c:/devkitpro/devkitarm/bin/../lib/gcc/arm-none-eabi/4.9.2/../../../../arm-none-eabi/lib/armv6k/fpu\libg.a(lib_a-svfiprintf.o)
 .text          0x001a8f00        0x0 c:/devkitpro/devkitarm/bin/../lib/gcc/arm-none-eabi/4.9.2/../../../../arm-none-eabi/lib/armv6k/fpu\libg.a(lib_a-svfwprintf.o)
 .text          0x001a8f00        0x0 c:/devkitpro/devkitarm/bin/../lib/gcc/arm-none-eabi/4.9.2/../../../../arm-none-eabi/lib/armv6k/fpu\libg.a(lib_a-vfiprintf.o)
 .text          0x001a8f00        0x0 c:/devkitpro/devkitarm/bin/../lib/gcc/arm-none-eabi/4.9.2/../../../../arm-none-eabi/lib/armv6k/fpu\libg.a(lib_a-wcslen.o)
 .text          0x001a8f00        0x0 c:/devkitpro/devkitarm/bin/../lib/gcc/arm-none-eabi/4.9.2/../../../../arm-none-eabi/lib/armv6k/fpu\libg.a(lib_a-wcsnrtombs.o)
 .text          0x001a8f00        0x0 c:/devkitpro/devkitarm/bin/../lib/gcc/arm-none-eabi/4.9.2/../../../../arm-none-eabi/lib/armv6k/fpu\libg.a(lib_a-wmemchr.o)
 .text          0x001a8f00        0x0 c:/devkitpro/devkitarm/bin/../lib/gcc/arm-none-eabi/4.9.2/../../../../arm-none-eabi/lib/armv6k/fpu\libg.a(lib_a-btowc.o)
 .text          0x001a8f00        0x0 c:/devkitpro/devkitarm/bin/../lib/gcc/arm-none-eabi/4.9.2/../../../../arm-none-eabi/lib/armv6k/fpu\libg.a(lib_a-callocr.o)
 .text          0x001a8f00        0x0 c:/devkitpro/devkitarm/bin/../lib/gcc/arm-none-eabi/4.9.2/../../../../arm-none-eabi/lib/armv6k/fpu\libg.a(lib_a-fputwc.o)
 .text          0x001a8f00        0x0 c:/devkitpro/devkitarm/bin/../lib/gcc/arm-none-eabi/4.9.2/../../../../arm-none-eabi/lib/armv6k/fpu\libg.a(lib_a-getenv_r.o)
 .text          0x001a8f00        0x0 c:/devkitpro/devkitarm/bin/../lib/gcc/arm-none-eabi/4.9.2/../../../../arm-none-eabi/lib/armv6k/fpu\libg.a(lib_a-mbrlen.o)
 .text          0x001a8f00        0x0 c:/devkitpro/devkitarm/bin/../lib/gcc/arm-none-eabi/4.9.2/../../../../arm-none-eabi/lib/armv6k/fpu\libg.a(lib_a-mbrtowc.o)
 .text          0x001a8f00        0x0 c:/devkitpro/devkitarm/bin/../lib/gcc/arm-none-eabi/4.9.2/../../../../arm-none-eabi/lib/armv6k/fpu\libg.a(lib_a-mbsnrtowcs.o)
 .text          0x001a8f00        0x0 c:/devkitpro/devkitarm/bin/../lib/gcc/arm-none-eabi/4.9.2/../../../../arm-none-eabi/lib/armv6k/fpu\libg.a(lib_a-environ.o)
 .text          0x001a8f00        0x0 c:/devkitpro/devkitarm/bin/../lib/gcc/arm-none-eabi/4.9.2/../../../../arm-none-eabi/lib/armv6k/fpu\libg.a(lib_a-envlock.o)
 .text          0x001a8f00      0x1a8 c:/devkitpro/devkitarm/bin/../lib/gcc/arm-none-eabi/4.9.2/../../../../arm-none-eabi/lib/armv6k/fpu\libsysbase.a(iosupport.o)
                0x001a8f00                setDefaultDevice
                0x001a8f18                FindDevice
                0x001a8fc4                RemoveDevice
                0x001a8ff0                AddDevice
                0x001a9084                GetDeviceOpTab
 .text          0x001a90a8       0x7c c:/devkitpro/devkitarm/bin/../lib/gcc/arm-none-eabi/4.9.2/../../../../arm-none-eabi/lib/armv6k/fpu\libsysbase.a(close.o)
                0x001a90a8                _close_r
 .text          0x001a9124       0x6c c:/devkitpro/devkitarm/bin/../lib/gcc/arm-none-eabi/4.9.2/../../../../arm-none-eabi/lib/armv6k/fpu\libsysbase.a(fstat.o)
                0x001a9124                _fstat_r
 .text          0x001a9190       0x10 c:/devkitpro/devkitarm/bin/../lib/gcc/arm-none-eabi/4.9.2/../../../../arm-none-eabi/lib/armv6k/fpu\libsysbase.a(getpid.o)
                0x001a9190                _getpid_r
 .text          0x001a91a0        0x8 c:/devkitpro/devkitarm/bin/../lib/gcc/arm-none-eabi/4.9.2/../../../../arm-none-eabi/lib/armv6k/fpu\libsysbase.a(isatty.o)
                0x001a91a0                _isatty_r
 .text          0x001a91a8       0x10 c:/devkitpro/devkitarm/bin/../lib/gcc/arm-none-eabi/4.9.2/../../../../arm-none-eabi/lib/armv6k/fpu\libsysbase.a(kill.o)
                0x001a91a8                _kill_r
 .text          0x001a91b8       0x74 c:/devkitpro/devkitarm/bin/../lib/gcc/arm-none-eabi/4.9.2/../../../../arm-none-eabi/lib/armv6k/fpu\libsysbase.a(lseek.o)
                0x001a91b8                _lseek_r
 .text          0x001a922c       0xc8 c:/devkitpro/devkitarm/bin/../lib/gcc/arm-none-eabi/4.9.2/../../../../arm-none-eabi/lib/armv6k/fpu\libsysbase.a(open.o)
                0x001a922c                _open_r
 .text          0x001a92f4       0x74 c:/devkitpro/devkitarm/bin/../lib/gcc/arm-none-eabi/4.9.2/../../../../arm-none-eabi/lib/armv6k/fpu\libsysbase.a(read.o)
                0x001a92f4                _read_r
 .text          0x001a9368       0x70 c:/devkitpro/devkitarm/bin/../lib/gcc/arm-none-eabi/4.9.2/../../../../arm-none-eabi/lib/armv6k/fpu\libsysbase.a(sbrk.o)
                0x001a9368                _sbrk_r
 .text          0x001a93d8       0x5c c:/devkitpro/devkitarm/bin/../lib/gcc/arm-none-eabi/4.9.2/../../../../arm-none-eabi/lib/armv6k/fpu\libsysbase.a(unlink.o)
                0x001a93d8                _unlink_r
 .text          0x001a9434       0x74 c:/devkitpro/devkitarm/bin/../lib/gcc/arm-none-eabi/4.9.2/../../../../arm-none-eabi/lib/armv6k/fpu\libsysbase.a(write.o)
                0x001a9434                _write_r
 .text          0x001a94a8       0x20 c:/devkitpro/devkitarm/bin/../lib/gcc/arm-none-eabi/4.9.2/../../../../arm-none-eabi/lib/armv6k/fpu\libsysbase.a(_exit.o)
                0x001a94a8                _exit
 .text          0x001a94c8        0x0 c:/devkitpro/devkitarm/bin/../lib/gcc/arm-none-eabi/4.9.2/../../../../arm-none-eabi/lib/armv6k/fpu\libsysbase.a(malloc_vars.o)
 .text          0x001a94c8      0x3a4 c:/devkitpro/devkitarm/bin/../lib/gcc/arm-none-eabi/4.9.2/../../../../arm-none-eabi/lib/armv6k/fpu\libsysbase.a(chdir.o)
                0x001a94c8                _concatenate_path
                0x001a9684                chdir
                0x001a97cc                getcwd
 .text          0x001a986c        0x8 c:/devkitpro/devkitarm/bin/../lib/gcc/arm-none-eabi/4.9.2/../../../../arm-none-eabi/lib/armv6k/fpu\libsysbase.a(flock.o)
                0x001a986c                __flockfile
                0x001a9870                __funlockfile
 .text          0x001a9874      0x108 c:/devkitpro/devkitarm/bin/../lib/gcc/arm-none-eabi/4.9.2/../../../../arm-none-eabi/lib/armv6k/fpu\libsysbase.a(syscall_support.o)
                0x001a9874                __libc_lock_init
                0x001a988c                __libc_lock_acquire
                0x001a98a4                __libc_lock_try_acquire
                0x001a98c8                __libc_lock_release
                0x001a98e0                __libc_lock_close
                0x001a98f8                __libc_lock_init_recursive
                0x001a9910                __libc_lock_acquire_recursive
                0x001a9928                __libc_lock_try_acquire_recursive
                0x001a994c                __libc_lock_release_recursive
                0x001a9964                __libc_lock_close_recursive
 .text          0x001a997c      0x254 c:/devkitpro/devkitarm/bin/../lib/gcc/arm-none-eabi/4.9.2/../../../../arm-none-eabi/lib/armv6k/fpu\libsysbase.a(handle_manager.o)
                0x001a997c                __free_handle
                0x001a99c0                __release_handle
                0x001a99ec                __alloc_handle
                0x001a9a54                __get_handle
                0x001a9a70                dup
                0x001a9afc                dup2
 .text          0x001a9bd0       0x28 c:/devkitpro/devkitarm/bin/../lib/gcc/arm-none-eabi/4.9.2/../../../../arm-none-eabi/lib/armv6k/fpu\libsysbase.a(getreent.o)
                0x001a9bd0                __getreent
 .text          0x001a9bf8       0x3c c:/devkitpro/devkitarm/bin/../lib/gcc/arm-none-eabi/4.9.2/armv6k/fpu\libgcc.a(_aeabi_uldivmod.o)
                0x001a9bf8                __aeabi_uldivmod
 .text          0x001a9c34       0x78 c:/devkitpro/devkitarm/bin/../lib/gcc/arm-none-eabi/4.9.2/armv6k/fpu\libgcc.a(bpabi.o)
                0x001a9c34                __gnu_ldivmod_helper
                0x001a9c70                __gnu_uldivmod_helper
 .text          0x001a9cac      0x180 c:/devkitpro/devkitarm/bin/../lib/gcc/arm-none-eabi/4.9.2/armv6k/fpu\libgcc.a(_divdi3.o)
                0x001a9cac                __divdi3
 .text          0x001a9e2c      0x124 c:/devkitpro/devkitarm/bin/../lib/gcc/arm-none-eabi/4.9.2/armv6k/fpu\libgcc.a(_udivdi3.o)
                0x001a9e2c                __udivdi3
 .text          0x001a9f50        0x0 c:/devkitpro/devkitarm/bin/../lib/gcc/arm-none-eabi/4.9.2/../../../../arm-none-eabi/lib/armv6k/fpu\libg.a(lib_a-strnlen.o)
 .text          0x001a9f50        0x0 c:/devkitpro/devkitarm/bin/../lib/gcc/arm-none-eabi/4.9.2/armv6k/fpu/crtend.o
 .text          0x001a9f50        0x0 c:/devkitpro/devkitarm/bin/../lib/gcc/arm-none-eabi/4.9.2/armv6k/fpu/crtn.o
 *(.text.*)
 .text.startup  0x001a9f50      0x990 main.o
                0x001a9f50                main
 .text.unlikely
                0x001aa8e0      0x108 c:/devkitPro/portlibs/armv6k/lib\libpng.a(png.o)
 .text.unlikely
                0x001aa9e8      0xa78 c:/devkitPro/portlibs/armv6k/lib\libfreetype.a(truetype.o)
 .text.unlikely
                0x001ab460      0xa68 c:/devkitPro/portlibs/armv6k/lib\libfreetype.a(cff.o)
 .text.unlikely
                0x001abec8       0x34 c:/devkitPro/portlibs/armv6k/lib\libfreetype.a(type42.o)
 .text.unlikely
                0x001abefc     0x1044 c:/devkitPro/portlibs/armv6k/lib\libfreetype.a(autofit.o)
 .text.unlikely
                0x001acf40     0x17f4 c:/devkitPro/portlibs/armv6k/lib\libfreetype.a(raster.o)
 .text.unlikely
                0x001ae734       0x5c c:/devkitPro/portlibs/armv6k/lib\libfreetype.a(ftcache.o)
 .text.cosf     0x001ae790       0xa8 c:/devkitpro/devkitarm/bin/../lib/gcc/arm-none-eabi/4.9.2/../../../../arm-none-eabi/lib/armv6k/fpu\libm.a(lib_a-sf_cos.o)
                0x001ae790                cosf
 .text.floor    0x001ae838      0x180 c:/devkitpro/devkitarm/bin/../lib/gcc/arm-none-eabi/4.9.2/../../../../arm-none-eabi/lib/armv6k/fpu\libm.a(lib_a-s_floor.o)
                0x001ae838                floor
 .text.frexp    0x001ae9b8       0x98 c:/devkitpro/devkitarm/bin/../lib/gcc/arm-none-eabi/4.9.2/../../../../arm-none-eabi/lib/armv6k/fpu\libm.a(lib_a-s_frexp.o)
                0x001ae9b8                frexp
 .text.sinf     0x001aea50       0xb0 c:/devkitpro/devkitarm/bin/../lib/gcc/arm-none-eabi/4.9.2/../../../../arm-none-eabi/lib/armv6k/fpu\libm.a(lib_a-sf_sin.o)
                0x001aea50                sinf
 .text.modf     0x001aeb00       0xd4 c:/devkitpro/devkitarm/bin/../lib/gcc/arm-none-eabi/4.9.2/../../../../arm-none-eabi/lib/armv6k/fpu\libm.a(lib_a-s_modf.o)
                0x001aeb00                modf
 *fill*         0x001aebd4        0x4 
 .text.pow      0x001aebd8      0x3c0 c:/devkitpro/devkitarm/bin/../lib/gcc/arm-none-eabi/4.9.2/../../../../arm-none-eabi/lib/armv6k/fpu\libm.a(lib_a-w_pow.o)
                0x001aebd8                pow
 .text.__ieee754_rem_pio2f
                0x001aef98      0x2e0 c:/devkitpro/devkitarm/bin/../lib/gcc/arm-none-eabi/4.9.2/../../../../arm-none-eabi/lib/armv6k/fpu\libm.a(lib_a-ef_rem_pio2.o)
                0x001aef98                __ieee754_rem_pio2f
 .text.__ieee754_pow
                0x001af278      0x880 c:/devkitpro/devkitarm/bin/../lib/gcc/arm-none-eabi/4.9.2/../../../../arm-none-eabi/lib/armv6k/fpu\libm.a(lib_a-e_pow.o)
                0x001af278                __ieee754_pow
 .text.__ieee754_sqrt
                0x001afaf8      0x200 c:/devkitpro/devkitarm/bin/../lib/gcc/arm-none-eabi/4.9.2/../../../../arm-none-eabi/lib/armv6k/fpu\libm.a(lib_a-e_sqrt.o)
                0x001afaf8                __ieee754_sqrt
 .text.__kernel_cosf
                0x001afcf8      0x124 c:/devkitpro/devkitarm/bin/../lib/gcc/arm-none-eabi/4.9.2/../../../../arm-none-eabi/lib/armv6k/fpu\libm.a(lib_a-kf_cos.o)
                0x001afcf8                __kernel_cosf
 .text.__kernel_rem_pio2f
                0x001afe1c      0x838 c:/devkitpro/devkitarm/bin/../lib/gcc/arm-none-eabi/4.9.2/../../../../arm-none-eabi/lib/armv6k/fpu\libm.a(lib_a-kf_rem_pio2.o)
                0x001afe1c                __kernel_rem_pio2f
 .text.__kernel_sinf
                0x001b0654       0xa0 c:/devkitpro/devkitarm/bin/../lib/gcc/arm-none-eabi/4.9.2/../../../../arm-none-eabi/lib/armv6k/fpu\libm.a(lib_a-kf_sin.o)
                0x001b0654                __kernel_sinf
 .text.fabs     0x001b06f4       0x10 c:/devkitpro/devkitarm/bin/../lib/gcc/arm-none-eabi/4.9.2/../../../../arm-none-eabi/lib/armv6k/fpu\libm.a(lib_a-s_fabs.o)
                0x001b06f4                fabs
 .text.fabsf    0x001b0704       0x10 c:/devkitpro/devkitarm/bin/../lib/gcc/arm-none-eabi/4.9.2/../../../../arm-none-eabi/lib/armv6k/fpu\libm.a(lib_a-sf_fabs.o)
                0x001b0704                fabsf
 .text.floorf   0x001b0714       0xb8 c:/devkitpro/devkitarm/bin/../lib/gcc/arm-none-eabi/4.9.2/../../../../arm-none-eabi/lib/armv6k/fpu\libm.a(lib_a-sf_floor.o)
                0x001b0714                floorf
 .text.finite   0x001b07cc       0x14 c:/devkitpro/devkitarm/bin/../lib/gcc/arm-none-eabi/4.9.2/../../../../arm-none-eabi/lib/armv6k/fpu\libm.a(lib_a-s_finite.o)
                0x001b07cc                finite
 .text.__fpclassifyd
                0x001b07e0       0x74 c:/devkitpro/devkitarm/bin/../lib/gcc/arm-none-eabi/4.9.2/../../../../arm-none-eabi/lib/armv6k/fpu\libm.a(lib_a-s_fpclassify.o)
                0x001b07e0                __fpclassifyd
 .text.scalbnf  0x001b0854      0x118 c:/devkitpro/devkitarm/bin/../lib/gcc/arm-none-eabi/4.9.2/../../../../arm-none-eabi/lib/armv6k/fpu\libm.a(lib_a-sf_scalbn.o)
                0x001b0854                scalbnf
 .text.matherr  0x001b096c        0x8 c:/devkitpro/devkitarm/bin/../lib/gcc/arm-none-eabi/4.9.2/../../../../arm-none-eabi/lib/armv6k/fpu\libm.a(lib_a-s_matherr.o)
                0x001b096c                matherr
 *fill*         0x001b0974        0x4 
 .text.nan      0x001b0978       0x10 c:/devkitpro/devkitarm/bin/../lib/gcc/arm-none-eabi/4.9.2/../../../../arm-none-eabi/lib/armv6k/fpu\libm.a(lib_a-s_nan.o)
                0x001b0978                nan
 .text.rint     0x001b0988      0x170 c:/devkitpro/devkitarm/bin/../lib/gcc/arm-none-eabi/4.9.2/../../../../arm-none-eabi/lib/armv6k/fpu\libm.a(lib_a-s_rint.o)
                0x001b0988                rint
 .text.scalbn   0x001b0af8      0x198 c:/devkitpro/devkitarm/bin/../lib/gcc/arm-none-eabi/4.9.2/../../../../arm-none-eabi/lib/armv6k/fpu\libm.a(lib_a-s_scalbn.o)
                0x001b0af8                scalbn
 .text.copysign
                0x001b0c90       0x1c c:/devkitpro/devkitarm/bin/../lib/gcc/arm-none-eabi/4.9.2/../../../../arm-none-eabi/lib/armv6k/fpu\libm.a(lib_a-s_copysign.o)
                0x001b0c90                copysign
 .text.copysignf
                0x001b0cac       0x1c c:/devkitpro/devkitarm/bin/../lib/gcc/arm-none-eabi/4.9.2/../../../../arm-none-eabi/lib/armv6k/fpu\libm.a(lib_a-sf_copysign.o)
                0x001b0cac                copysignf
 .text.abort    0x001b0cc8       0x14 c:/devkitpro/devkitarm/bin/../lib/gcc/arm-none-eabi/4.9.2/../../../../arm-none-eabi/lib/armv6k/fpu\libg.a(lib_a-abort.o)
                0x001b0cc8                abort
 .text.atof     0x001b0cdc        0x8 c:/devkitpro/devkitarm/bin/../lib/gcc/arm-none-eabi/4.9.2/../../../../arm-none-eabi/lib/armv6k/fpu\libg.a(lib_a-atof.o)
                0x001b0cdc                atof
 .text.atol     0x001b0ce4        0xc c:/devkitpro/devkitarm/bin/../lib/gcc/arm-none-eabi/4.9.2/../../../../arm-none-eabi/lib/armv6k/fpu\libg.a(lib_a-atol.o)
                0x001b0ce4                atol
 .text._atol_r  0x001b0cf0        0xc c:/devkitpro/devkitarm/bin/../lib/gcc/arm-none-eabi/4.9.2/../../../../arm-none-eabi/lib/armv6k/fpu\libg.a(lib_a-atol.o)
                0x001b0cf0                _atol_r
 .text.bsearch  0x001b0cfc       0x78 c:/devkitpro/devkitarm/bin/../lib/gcc/arm-none-eabi/4.9.2/../../../../arm-none-eabi/lib/armv6k/fpu\libg.a(lib_a-bsearch.o)
                0x001b0cfc                bsearch
 .text.__errno  0x001b0d74        0xc c:/devkitpro/devkitarm/bin/../lib/gcc/arm-none-eabi/4.9.2/../../../../arm-none-eabi/lib/armv6k/fpu\libg.a(lib_a-errno.o)
                0x001b0d74                __errno
 .text._fclose_r
                0x001b0d80      0x118 c:/devkitpro/devkitarm/bin/../lib/gcc/arm-none-eabi/4.9.2/../../../../arm-none-eabi/lib/armv6k/fpu\libg.a(lib_a-fclose.o)
                0x001b0d80                _fclose_r
 .text.fclose   0x001b0e98       0x18 c:/devkitpro/devkitarm/bin/../lib/gcc/arm-none-eabi/4.9.2/../../../../arm-none-eabi/lib/armv6k/fpu\libg.a(lib_a-fclose.o)
                0x001b0e98                fclose
 .text.__sflush_r
                0x001b0eb0      0x238 c:/devkitpro/devkitarm/bin/../lib/gcc/arm-none-eabi/4.9.2/../../../../arm-none-eabi/lib/armv6k/fpu\libg.a(lib_a-fflush.o)
                0x001b0eb0                __sflush_r
 .text._fflush_r
                0x001b10e8       0x98 c:/devkitpro/devkitarm/bin/../lib/gcc/arm-none-eabi/4.9.2/../../../../arm-none-eabi/lib/armv6k/fpu\libg.a(lib_a-fflush.o)
                0x001b10e8                _fflush_r
 .text.fflush   0x001b1180       0x38 c:/devkitpro/devkitarm/bin/../lib/gcc/arm-none-eabi/4.9.2/../../../../arm-none-eabi/lib/armv6k/fpu\libg.a(lib_a-fflush.o)
                0x001b1180                fflush
 .text._cleanup_r
                0x001b11b8        0xc c:/devkitpro/devkitarm/bin/../lib/gcc/arm-none-eabi/4.9.2/../../../../arm-none-eabi/lib/armv6k/fpu\libg.a(lib_a-findfp.o)
                0x001b11b8                _cleanup_r
 .text.__fp_lock
                0x001b11c4       0x1c c:/devkitpro/devkitarm/bin/../lib/gcc/arm-none-eabi/4.9.2/../../../../arm-none-eabi/lib/armv6k/fpu\libg.a(lib_a-findfp.o)
 .text.__fp_unlock
                0x001b11e0       0x1c c:/devkitpro/devkitarm/bin/../lib/gcc/arm-none-eabi/4.9.2/../../../../arm-none-eabi/lib/armv6k/fpu\libg.a(lib_a-findfp.o)
 .text.__sinit.part.1
                0x001b11fc      0x15c c:/devkitpro/devkitarm/bin/../lib/gcc/arm-none-eabi/4.9.2/../../../../arm-none-eabi/lib/armv6k/fpu\libg.a(lib_a-findfp.o)
 .text.__sfmoreglue
                0x001b1358       0x48 c:/devkitpro/devkitarm/bin/../lib/gcc/arm-none-eabi/4.9.2/../../../../arm-none-eabi/lib/armv6k/fpu\libg.a(lib_a-findfp.o)
                0x001b1358                __sfmoreglue
 .text.__sfp    0x001b13a0       0xe8 c:/devkitpro/devkitarm/bin/../lib/gcc/arm-none-eabi/4.9.2/../../../../arm-none-eabi/lib/armv6k/fpu\libg.a(lib_a-findfp.o)
                0x001b13a0                __sfp
 .text._cleanup
                0x001b1488       0x18 c:/devkitpro/devkitarm/bin/../lib/gcc/arm-none-eabi/4.9.2/../../../../arm-none-eabi/lib/armv6k/fpu\libg.a(lib_a-findfp.o)
                0x001b1488                _cleanup
 .text.__sinit  0x001b14a0       0x10 c:/devkitpro/devkitarm/bin/../lib/gcc/arm-none-eabi/4.9.2/../../../../arm-none-eabi/lib/armv6k/fpu\libg.a(lib_a-findfp.o)
                0x001b14a0                __sinit
 .text.__sfp_lock_acquire
                0x001b14b0        0x4 c:/devkitpro/devkitarm/bin/../lib/gcc/arm-none-eabi/4.9.2/../../../../arm-none-eabi/lib/armv6k/fpu\libg.a(lib_a-findfp.o)
                0x001b14b0                __sfp_lock_acquire
 .text.__sfp_lock_release
                0x001b14b4        0x4 c:/devkitpro/devkitarm/bin/../lib/gcc/arm-none-eabi/4.9.2/../../../../arm-none-eabi/lib/armv6k/fpu\libg.a(lib_a-findfp.o)
                0x001b14b4                __sfp_lock_release
 .text.__sinit_lock_acquire
                0x001b14b8        0x4 c:/devkitpro/devkitarm/bin/../lib/gcc/arm-none-eabi/4.9.2/../../../../arm-none-eabi/lib/armv6k/fpu\libg.a(lib_a-findfp.o)
                0x001b14b8                __sinit_lock_acquire
 .text.__sinit_lock_release
                0x001b14bc        0x4 c:/devkitpro/devkitarm/bin/../lib/gcc/arm-none-eabi/4.9.2/../../../../arm-none-eabi/lib/armv6k/fpu\libg.a(lib_a-findfp.o)
                0x001b14bc                __sinit_lock_release
 .text.__fp_lock_all
                0x001b14c0       0x18 c:/devkitpro/devkitarm/bin/../lib/gcc/arm-none-eabi/4.9.2/../../../../arm-none-eabi/lib/armv6k/fpu\libg.a(lib_a-findfp.o)
                0x001b14c0                __fp_lock_all
 .text.__fp_unlock_all
                0x001b14d8       0x18 c:/devkitpro/devkitarm/bin/../lib/gcc/arm-none-eabi/4.9.2/../../../../arm-none-eabi/lib/armv6k/fpu\libg.a(lib_a-findfp.o)
                0x001b14d8                __fp_unlock_all
 .text.__libc_fini_array
                0x001b14f0       0x40 c:/devkitpro/devkitarm/bin/../lib/gcc/arm-none-eabi/4.9.2/../../../../arm-none-eabi/lib/armv6k/fpu\libg.a(lib_a-fini.o)
                0x001b14f0                __libc_fini_array
 .text._fopen_r
                0x001b1530      0x130 c:/devkitpro/devkitarm/bin/../lib/gcc/arm-none-eabi/4.9.2/../../../../arm-none-eabi/lib/armv6k/fpu\libg.a(lib_a-fopen.o)
                0x001b1530                _fopen_r
 .text.fopen    0x001b1660       0x20 c:/devkitpro/devkitarm/bin/../lib/gcc/arm-none-eabi/4.9.2/../../../../arm-none-eabi/lib/armv6k/fpu\libg.a(lib_a-fopen.o)
                0x001b1660                fopen
 .text._fprintf_r
                0x001b1680       0x30 c:/devkitpro/devkitarm/bin/../lib/gcc/arm-none-eabi/4.9.2/../../../../arm-none-eabi/lib/armv6k/fpu\libg.a(lib_a-fprintf.o)
                0x001b1680                _fprintf_r
 .text.fprintf  0x001b16b0       0x3c c:/devkitpro/devkitarm/bin/../lib/gcc/arm-none-eabi/4.9.2/../../../../arm-none-eabi/lib/armv6k/fpu\libg.a(lib_a-fprintf.o)
                0x001b16b0                fprintf
 .text._fputc_r
                0x001b16ec       0xa4 c:/devkitpro/devkitarm/bin/../lib/gcc/arm-none-eabi/4.9.2/../../../../arm-none-eabi/lib/armv6k/fpu\libg.a(lib_a-fputc.o)
                0x001b16ec                _fputc_r
 .text.fputc    0x001b1790       0x94 c:/devkitpro/devkitarm/bin/../lib/gcc/arm-none-eabi/4.9.2/../../../../arm-none-eabi/lib/armv6k/fpu\libg.a(lib_a-fputc.o)
                0x001b1790                fputc
 .text._fread_r
                0x001b1824      0x2f0 c:/devkitpro/devkitarm/bin/../lib/gcc/arm-none-eabi/4.9.2/../../../../arm-none-eabi/lib/armv6k/fpu\libg.a(lib_a-fread.o)
                0x001b1824                _fread_r
 .text.fread    0x001b1b14       0x38 c:/devkitpro/devkitarm/bin/../lib/gcc/arm-none-eabi/4.9.2/../../../../arm-none-eabi/lib/armv6k/fpu\libg.a(lib_a-fread.o)
                0x001b1b14                fread
 .text._malloc_trim_r
                0x001b1b4c       0xf8 c:/devkitpro/devkitarm/bin/../lib/gcc/arm-none-eabi/4.9.2/../../../../arm-none-eabi/lib/armv6k/fpu\libg.a(lib_a-freer.o)
                0x001b1b4c                _malloc_trim_r
 .text._free_r  0x001b1c44      0x2b4 c:/devkitpro/devkitarm/bin/../lib/gcc/arm-none-eabi/4.9.2/../../../../arm-none-eabi/lib/armv6k/fpu\libg.a(lib_a-freer.o)
                0x001b1c44                _free_r
 .text._fseek_r
                0x001b1ef8        0x4 c:/devkitpro/devkitarm/bin/../lib/gcc/arm-none-eabi/4.9.2/../../../../arm-none-eabi/lib/armv6k/fpu\libg.a(lib_a-fseek.o)
                0x001b1ef8                _fseek_r
 .text.fseek    0x001b1efc       0x28 c:/devkitpro/devkitarm/bin/../lib/gcc/arm-none-eabi/4.9.2/../../../../arm-none-eabi/lib/armv6k/fpu\libg.a(lib_a-fseek.o)
                0x001b1efc                fseek
 .text._fseeko_r
                0x001b1f24      0x4f8 c:/devkitpro/devkitarm/bin/../lib/gcc/arm-none-eabi/4.9.2/../../../../arm-none-eabi/lib/armv6k/fpu\libg.a(lib_a-fseeko.o)
                0x001b1f24                _fseeko_r
 .text.fseeko   0x001b241c       0x28 c:/devkitpro/devkitarm/bin/../lib/gcc/arm-none-eabi/4.9.2/../../../../arm-none-eabi/lib/armv6k/fpu\libg.a(lib_a-fseeko.o)
                0x001b241c                fseeko
 .text._ftell_r
                0x001b2444        0x4 c:/devkitpro/devkitarm/bin/../lib/gcc/arm-none-eabi/4.9.2/../../../../arm-none-eabi/lib/armv6k/fpu\libg.a(lib_a-ftell.o)
                0x001b2444                _ftell_r
 .text.ftell    0x001b2448       0x18 c:/devkitpro/devkitarm/bin/../lib/gcc/arm-none-eabi/4.9.2/../../../../arm-none-eabi/lib/armv6k/fpu\libg.a(lib_a-ftell.o)
                0x001b2448                ftell
 .text._ftello_r
                0x001b2460      0x164 c:/devkitpro/devkitarm/bin/../lib/gcc/arm-none-eabi/4.9.2/../../../../arm-none-eabi/lib/armv6k/fpu\libg.a(lib_a-ftello.o)
                0x001b2460                _ftello_r
 .text.ftello   0x001b25c4       0x18 c:/devkitpro/devkitarm/bin/../lib/gcc/arm-none-eabi/4.9.2/../../../../arm-none-eabi/lib/armv6k/fpu\libg.a(lib_a-ftello.o)
                0x001b25c4                ftello
 .text._fwalk   0x001b25dc       0x78 c:/devkitpro/devkitarm/bin/../lib/gcc/arm-none-eabi/4.9.2/../../../../arm-none-eabi/lib/armv6k/fpu\libg.a(lib_a-fwalk.o)
                0x001b25dc                _fwalk
 .text._fwalk_reent
                0x001b2654       0x80 c:/devkitpro/devkitarm/bin/../lib/gcc/arm-none-eabi/4.9.2/../../../../arm-none-eabi/lib/armv6k/fpu\libg.a(lib_a-fwalk.o)
                0x001b2654                _fwalk_reent
 .text._fwrite_r
                0x001b26d4      0x11c c:/devkitpro/devkitarm/bin/../lib/gcc/arm-none-eabi/4.9.2/../../../../arm-none-eabi/lib/armv6k/fpu\libg.a(lib_a-fwrite.o)
                0x001b26d4                _fwrite_r
 .text.fwrite   0x001b27f0       0x38 c:/devkitpro/devkitarm/bin/../lib/gcc/arm-none-eabi/4.9.2/../../../../arm-none-eabi/lib/armv6k/fpu\libg.a(lib_a-fwrite.o)
                0x001b27f0                fwrite
 .text.gmtime   0x001b2828       0x1c c:/devkitpro/devkitarm/bin/../lib/gcc/arm-none-eabi/4.9.2/../../../../arm-none-eabi/lib/armv6k/fpu\libg.a(lib_a-gmtime.o)
                0x001b2828                gmtime
 .text.gmtime_r
                0x001b2844      0x20c c:/devkitpro/devkitarm/bin/../lib/gcc/arm-none-eabi/4.9.2/../../../../arm-none-eabi/lib/armv6k/fpu\libg.a(lib_a-gmtime_r.o)
                0x001b2844                gmtime_r
 .text.__libc_init_array
                0x001b2a50       0x78 c:/devkitpro/devkitarm/bin/../lib/gcc/arm-none-eabi/4.9.2/../../../../arm-none-eabi/lib/armv6k/fpu\libg.a(lib_a-init.o)
                0x001b2a50                __libc_init_array
 .text.__smakebuf_r
                0x001b2ac8      0x160 c:/devkitpro/devkitarm/bin/../lib/gcc/arm-none-eabi/4.9.2/../../../../arm-none-eabi/lib/armv6k/fpu\libg.a(lib_a-makebuf.o)
                0x001b2ac8                __smakebuf_r
 .text.malloc   0x001b2c28       0x18 c:/devkitpro/devkitarm/bin/../lib/gcc/arm-none-eabi/4.9.2/../../../../arm-none-eabi/lib/armv6k/fpu\libg.a(lib_a-malloc.o)
                0x001b2c28                malloc
 .text.free     0x001b2c40       0x18 c:/devkitpro/devkitarm/bin/../lib/gcc/arm-none-eabi/4.9.2/../../../../arm-none-eabi/lib/armv6k/fpu\libg.a(lib_a-malloc.o)
                0x001b2c40                free
 .text._malloc_r
                0x001b2c58      0x740 c:/devkitpro/devkitarm/bin/../lib/gcc/arm-none-eabi/4.9.2/../../../../arm-none-eabi/lib/armv6k/fpu\libg.a(lib_a-mallocr.o)
                0x001b2c58                _malloc_r
 .text.memchr   0x001b3398      0x120 c:/devkitpro/devkitarm/bin/../lib/gcc/arm-none-eabi/4.9.2/../../../../arm-none-eabi/lib/armv6k/fpu\libg.a(lib_a-memchr.o)
                0x001b3398                memchr
 .text.memcmp   0x001b34b8       0xa8 c:/devkitpro/devkitarm/bin/../lib/gcc/arm-none-eabi/4.9.2/../../../../arm-none-eabi/lib/armv6k/fpu\libg.a(lib_a-memcmp.o)
                0x001b34b8                memcmp
 .text.memcpy   0x001b3560       0xf4 c:/devkitpro/devkitarm/bin/../lib/gcc/arm-none-eabi/4.9.2/../../../../arm-none-eabi/lib/armv6k/fpu\libg.a(lib_a-memcpy.o)
                0x001b3560                memcpy
 .text.memmove  0x001b3654      0x12c c:/devkitpro/devkitarm/bin/../lib/gcc/arm-none-eabi/4.9.2/../../../../arm-none-eabi/lib/armv6k/fpu\libg.a(lib_a-memmove.o)
                0x001b3654                memmove
 .text.memset   0x001b3780       0xf0 c:/devkitpro/devkitarm/bin/../lib/gcc/arm-none-eabi/4.9.2/../../../../arm-none-eabi/lib/armv6k/fpu\libg.a(lib_a-memset.o)
                0x001b3780                memset
 .text.__malloc_lock
                0x001b3870        0x4 c:/devkitpro/devkitarm/bin/../lib/gcc/arm-none-eabi/4.9.2/../../../../arm-none-eabi/lib/armv6k/fpu\libg.a(lib_a-mlock.o)
                0x001b3870                __malloc_lock
 .text.__malloc_unlock
                0x001b3874        0x4 c:/devkitpro/devkitarm/bin/../lib/gcc/arm-none-eabi/4.9.2/../../../../arm-none-eabi/lib/armv6k/fpu\libg.a(lib_a-mlock.o)
                0x001b3874                __malloc_unlock
 .text._putc_r  0x001b3878       0xf8 c:/devkitpro/devkitarm/bin/../lib/gcc/arm-none-eabi/4.9.2/../../../../arm-none-eabi/lib/armv6k/fpu\libg.a(lib_a-putc.o)
                0x001b3878                _putc_r
 .text.putc     0x001b3970       0xfc c:/devkitpro/devkitarm/bin/../lib/gcc/arm-none-eabi/4.9.2/../../../../arm-none-eabi/lib/armv6k/fpu\libg.a(lib_a-putc.o)
                0x001b3970                putc
 .text.qsort    0x001b3a6c      0x8a4 c:/devkitpro/devkitarm/bin/../lib/gcc/arm-none-eabi/4.9.2/../../../../arm-none-eabi/lib/armv6k/fpu\libg.a(lib_a-qsort.o)
                0x001b3a6c                qsort
 .text.realloc  0x001b4310       0x20 c:/devkitpro/devkitarm/bin/../lib/gcc/arm-none-eabi/4.9.2/../../../../arm-none-eabi/lib/armv6k/fpu\libg.a(lib_a-realloc.o)
                0x001b4310                realloc
 .text._realloc_r
                0x001b4330      0x564 c:/devkitpro/devkitarm/bin/../lib/gcc/arm-none-eabi/4.9.2/../../../../arm-none-eabi/lib/armv6k/fpu\libg.a(lib_a-reallocr.o)
                0x001b4330                _realloc_r
 .text.lflush   0x001b4894       0x1c c:/devkitpro/devkitarm/bin/../lib/gcc/arm-none-eabi/4.9.2/../../../../arm-none-eabi/lib/armv6k/fpu\libg.a(lib_a-refill.o)
 .text.__srefill_r
                0x001b48b0      0x1d8 c:/devkitpro/devkitarm/bin/../lib/gcc/arm-none-eabi/4.9.2/../../../../arm-none-eabi/lib/armv6k/fpu\libg.a(lib_a-refill.o)
                0x001b48b0                __srefill_r
 .text._remove_r
                0x001b4a88       0x1c c:/devkitpro/devkitarm/bin/../lib/gcc/arm-none-eabi/4.9.2/../../../../arm-none-eabi/lib/armv6k/fpu\libg.a(lib_a-remove.o)
                0x001b4a88                _remove_r
 .text.remove   0x001b4aa4       0x28 c:/devkitpro/devkitarm/bin/../lib/gcc/arm-none-eabi/4.9.2/../../../../arm-none-eabi/lib/armv6k/fpu\libg.a(lib_a-remove.o)
                0x001b4aa4                remove
 .text._init_signal_r
                0x001b4acc       0x60 c:/devkitpro/devkitarm/bin/../lib/gcc/arm-none-eabi/4.9.2/../../../../arm-none-eabi/lib/armv6k/fpu\libg.a(lib_a-signal.o)
                0x001b4acc                _init_signal_r
 .text._signal_r
                0x001b4b2c       0x5c c:/devkitpro/devkitarm/bin/../lib/gcc/arm-none-eabi/4.9.2/../../../../arm-none-eabi/lib/armv6k/fpu\libg.a(lib_a-signal.o)
                0x001b4b2c                _signal_r
 .text._raise_r
                0x001b4b88       0x98 c:/devkitpro/devkitarm/bin/../lib/gcc/arm-none-eabi/4.9.2/../../../../arm-none-eabi/lib/armv6k/fpu\libg.a(lib_a-signal.o)
                0x001b4b88                _raise_r
 .text.__sigtramp_r
                0x001b4c20       0x94 c:/devkitpro/devkitarm/bin/../lib/gcc/arm-none-eabi/4.9.2/../../../../arm-none-eabi/lib/armv6k/fpu\libg.a(lib_a-signal.o)
                0x001b4c20                __sigtramp_r
 .text.raise    0x001b4cb4       0x18 c:/devkitpro/devkitarm/bin/../lib/gcc/arm-none-eabi/4.9.2/../../../../arm-none-eabi/lib/armv6k/fpu\libg.a(lib_a-signal.o)
                0x001b4cb4                raise
 .text.signal   0x001b4ccc       0x20 c:/devkitpro/devkitarm/bin/../lib/gcc/arm-none-eabi/4.9.2/../../../../arm-none-eabi/lib/armv6k/fpu\libg.a(lib_a-signal.o)
                0x001b4ccc                signal
 .text._init_signal
                0x001b4cec       0x10 c:/devkitpro/devkitarm/bin/../lib/gcc/arm-none-eabi/4.9.2/../../../../arm-none-eabi/lib/armv6k/fpu\libg.a(lib_a-signal.o)
                0x001b4cec                _init_signal
 .text.__sigtramp
                0x001b4cfc       0x18 c:/devkitpro/devkitarm/bin/../lib/gcc/arm-none-eabi/4.9.2/../../../../arm-none-eabi/lib/armv6k/fpu\libg.a(lib_a-signal.o)
                0x001b4cfc                __sigtramp
 .text._snprintf_r
                0x001b4d14       0xd8 c:/devkitpro/devkitarm/bin/../lib/gcc/arm-none-eabi/4.9.2/../../../../arm-none-eabi/lib/armv6k/fpu\libg.a(lib_a-snprintf.o)
                0x001b4d14                _snprintf_r
 .text.snprintf
                0x001b4dec       0xe0 c:/devkitpro/devkitarm/bin/../lib/gcc/arm-none-eabi/4.9.2/../../../../arm-none-eabi/lib/armv6k/fpu\libg.a(lib_a-snprintf.o)
                0x001b4dec                snprintf
 .text._sprintf_r
                0x001b4ecc       0x68 c:/devkitpro/devkitarm/bin/../lib/gcc/arm-none-eabi/4.9.2/../../../../arm-none-eabi/lib/armv6k/fpu\libg.a(lib_a-sprintf.o)
                0x001b4ecc                _sprintf_r
 .text.sprintf  0x001b4f34       0x68 c:/devkitpro/devkitarm/bin/../lib/gcc/arm-none-eabi/4.9.2/../../../../arm-none-eabi/lib/armv6k/fpu\libg.a(lib_a-sprintf.o)
                0x001b4f34                sprintf
 .text.__sread  0x001b4f9c       0x30 c:/devkitpro/devkitarm/bin/../lib/gcc/arm-none-eabi/4.9.2/../../../../arm-none-eabi/lib/armv6k/fpu\libg.a(lib_a-stdio.o)
                0x001b4f9c                __sread
 .text.__seofread
                0x001b4fcc        0x8 c:/devkitpro/devkitarm/bin/../lib/gcc/arm-none-eabi/4.9.2/../../../../arm-none-eabi/lib/armv6k/fpu\libg.a(lib_a-stdio.o)
                0x001b4fcc                __seofread
 .text.__swrite
                0x001b4fd4       0x54 c:/devkitpro/devkitarm/bin/../lib/gcc/arm-none-eabi/4.9.2/../../../../arm-none-eabi/lib/armv6k/fpu\libg.a(lib_a-stdio.o)
                0x001b4fd4                __swrite
 .text.__sseek  0x001b5028       0x2c c:/devkitpro/devkitarm/bin/../lib/gcc/arm-none-eabi/4.9.2/../../../../arm-none-eabi/lib/armv6k/fpu\libg.a(lib_a-stdio.o)
                0x001b5028                __sseek
 .text.__sclose
                0x001b5054        0x8 c:/devkitpro/devkitarm/bin/../lib/gcc/arm-none-eabi/4.9.2/../../../../arm-none-eabi/lib/armv6k/fpu\libg.a(lib_a-stdio.o)
                0x001b5054                __sclose
 .text.strchr   0x001b505c      0x16c c:/devkitpro/devkitarm/bin/../lib/gcc/arm-none-eabi/4.9.2/../../../../arm-none-eabi/lib/armv6k/fpu\libg.a(lib_a-strchr.o)
                0x001b505c                strchr
 .text.strcpy   0x001b51c8       0xf0 c:/devkitpro/devkitarm/bin/../lib/gcc/arm-none-eabi/4.9.2/../../../../arm-none-eabi/lib/armv6k/fpu\libg.a(lib_a-strcpy.o)
                0x001b51c8                strcpy
 .text._strerror_r
                0x001b52b8      0x63c c:/devkitpro/devkitarm/bin/../lib/gcc/arm-none-eabi/4.9.2/../../../../arm-none-eabi/lib/armv6k/fpu\libg.a(lib_a-strerror.o)
                0x001b52b8                _strerror_r
 .text.strerror
                0x001b58f4       0x20 c:/devkitpro/devkitarm/bin/../lib/gcc/arm-none-eabi/4.9.2/../../../../arm-none-eabi/lib/armv6k/fpu\libg.a(lib_a-strerror.o)
                0x001b58f4                strerror
 .text.strlen   0x001b5914       0x5c c:/devkitpro/devkitarm/bin/../lib/gcc/arm-none-eabi/4.9.2/../../../../arm-none-eabi/lib/armv6k/fpu\libg.a(lib_a-strlen.o)
                0x001b5914                strlen
 .text.strncat  0x001b5970       0xa4 c:/devkitpro/devkitarm/bin/../lib/gcc/arm-none-eabi/4.9.2/../../../../arm-none-eabi/lib/armv6k/fpu\libg.a(lib_a-strncat.o)
                0x001b5970                strncat
 .text.strncmp  0x001b5a14      0x110 c:/devkitpro/devkitarm/bin/../lib/gcc/arm-none-eabi/4.9.2/../../../../arm-none-eabi/lib/armv6k/fpu\libg.a(lib_a-strncmp.o)
                0x001b5a14                strncmp
 .text.strncpy  0x001b5b24       0xe0 c:/devkitpro/devkitarm/bin/../lib/gcc/arm-none-eabi/4.9.2/../../../../arm-none-eabi/lib/armv6k/fpu\libg.a(lib_a-strncpy.o)
                0x001b5b24                strncpy
 .text.strrchr  0x001b5c04       0x44 c:/devkitpro/devkitarm/bin/../lib/gcc/arm-none-eabi/4.9.2/../../../../arm-none-eabi/lib/armv6k/fpu\libg.a(lib_a-strrchr.o)
                0x001b5c04                strrchr
 .text.critical_factorization
                0x001b5c48      0x110 c:/devkitpro/devkitarm/bin/../lib/gcc/arm-none-eabi/4.9.2/../../../../arm-none-eabi/lib/armv6k/fpu\libg.a(lib_a-strstr.o)
 .text.two_way_long_needle
                0x001b5d58      0x398 c:/devkitpro/devkitarm/bin/../lib/gcc/arm-none-eabi/4.9.2/../../../../arm-none-eabi/lib/armv6k/fpu\libg.a(lib_a-strstr.o)
 .text.strstr   0x001b60f0      0x370 c:/devkitpro/devkitarm/bin/../lib/gcc/arm-none-eabi/4.9.2/../../../../arm-none-eabi/lib/armv6k/fpu\libg.a(lib_a-strstr.o)
                0x001b60f0                strstr
 .text.unlikely.sulp
                0x001b6460       0x58 c:/devkitpro/devkitarm/bin/../lib/gcc/arm-none-eabi/4.9.2/../../../../arm-none-eabi/lib/armv6k/fpu\libg.a(lib_a-strtod.o)
 .text._strtod_r
                0x001b64b8     0x13e8 c:/devkitpro/devkitarm/bin/../lib/gcc/arm-none-eabi/4.9.2/../../../../arm-none-eabi/lib/armv6k/fpu\libg.a(lib_a-strtod.o)
                0x001b64b8                _strtod_r
 .text.strtod   0x001b78a0       0x20 c:/devkitpro/devkitarm/bin/../lib/gcc/arm-none-eabi/4.9.2/../../../../arm-none-eabi/lib/armv6k/fpu\libg.a(lib_a-strtod.o)
                0x001b78a0                strtod
 .text.strtof   0x001b78c0       0x48 c:/devkitpro/devkitarm/bin/../lib/gcc/arm-none-eabi/4.9.2/../../../../arm-none-eabi/lib/armv6k/fpu\libg.a(lib_a-strtod.o)
                0x001b78c0                strtof
 .text.strtok   0x001b7908       0x28 c:/devkitpro/devkitarm/bin/../lib/gcc/arm-none-eabi/4.9.2/../../../../arm-none-eabi/lib/armv6k/fpu\libg.a(lib_a-strtok.o)
                0x001b7908                strtok
 .text.__strtok_r
                0x001b7930       0xc0 c:/devkitpro/devkitarm/bin/../lib/gcc/arm-none-eabi/4.9.2/../../../../arm-none-eabi/lib/armv6k/fpu\libg.a(lib_a-strtok_r.o)
                0x001b7930                __strtok_r
 .text.strtok_r
                0x001b79f0        0x8 c:/devkitpro/devkitarm/bin/../lib/gcc/arm-none-eabi/4.9.2/../../../../arm-none-eabi/lib/armv6k/fpu\libg.a(lib_a-strtok_r.o)
                0x001b79f0                strtok_r
 .text._strtol_r
                0x001b79f8      0x1dc c:/devkitpro/devkitarm/bin/../lib/gcc/arm-none-eabi/4.9.2/../../../../arm-none-eabi/lib/armv6k/fpu\libg.a(lib_a-strtol.o)
                0x001b79f8                _strtol_r
 .text.strtol   0x001b7bd4       0x28 c:/devkitpro/devkitarm/bin/../lib/gcc/arm-none-eabi/4.9.2/../../../../arm-none-eabi/lib/armv6k/fpu\libg.a(lib_a-strtol.o)
                0x001b7bd4                strtol
 .text.get_arg  0x001b7bfc      0x860 c:/devkitpro/devkitarm/bin/../lib/gcc/arm-none-eabi/4.9.2/../../../../arm-none-eabi/lib/armv6k/fpu\libg.a(lib_a-svfprintf.o)
 *fill*         0x001b845c        0x4 
 .text._svfprintf_r
                0x001b8460     0x4320 c:/devkitpro/devkitarm/bin/../lib/gcc/arm-none-eabi/4.9.2/../../../../arm-none-eabi/lib/armv6k/fpu\libg.a(lib_a-svfprintf.o)
                0x001b8460                _svfprintf_r
 .text._user_strerror
                0x001bc780        0x8 c:/devkitpro/devkitarm/bin/../lib/gcc/arm-none-eabi/4.9.2/../../../../arm-none-eabi/lib/armv6k/fpu\libg.a(lib_a-u_strerr.o)
                0x001bc780                _user_strerror
 .text.get_arg  0x001bc788      0x860 c:/devkitpro/devkitarm/bin/../lib/gcc/arm-none-eabi/4.9.2/../../../../arm-none-eabi/lib/armv6k/fpu\libg.a(lib_a-vfprintf.o)
 .text._vfprintf_r
                0x001bcfe8     0x4408 c:/devkitpro/devkitarm/bin/../lib/gcc/arm-none-eabi/4.9.2/../../../../arm-none-eabi/lib/armv6k/fpu\libg.a(lib_a-vfprintf.o)
                0x001bcfe8                _vfprintf_r
 .text.vfprintf
                0x001c13f0       0x28 c:/devkitpro/devkitarm/bin/../lib/gcc/arm-none-eabi/4.9.2/../../../../arm-none-eabi/lib/armv6k/fpu\libg.a(lib_a-vfprintf.o)
                0x001c13f0                vfprintf
 .text.__sbprintf
                0x001c1418       0xa8 c:/devkitpro/devkitarm/bin/../lib/gcc/arm-none-eabi/4.9.2/../../../../arm-none-eabi/lib/armv6k/fpu\libg.a(lib_a-vfprintf.o)
 .text._vsnprintf_r
                0x001c14c0       0xb0 c:/devkitpro/devkitarm/bin/../lib/gcc/arm-none-eabi/4.9.2/../../../../arm-none-eabi/lib/armv6k/fpu\libg.a(lib_a-vsnprintf.o)
                0x001c14c0                _vsnprintf_r
 .text.vsnprintf
                0x001c1570       0x38 c:/devkitpro/devkitarm/bin/../lib/gcc/arm-none-eabi/4.9.2/../../../../arm-none-eabi/lib/armv6k/fpu\libg.a(lib_a-vsnprintf.o)
                0x001c1570                vsnprintf
 .text._vswprintf_r
                0x001c15a8       0xa4 c:/devkitpro/devkitarm/bin/../lib/gcc/arm-none-eabi/4.9.2/../../../../arm-none-eabi/lib/armv6k/fpu\libg.a(lib_a-vswprintf.o)
                0x001c15a8                _vswprintf_r
 .text.vswprintf
                0x001c164c       0x38 c:/devkitpro/devkitarm/bin/../lib/gcc/arm-none-eabi/4.9.2/../../../../arm-none-eabi/lib/armv6k/fpu\libg.a(lib_a-vswprintf.o)
                0x001c164c                vswprintf
 .text.__swbuf_r
                0x001c1684      0x124 c:/devkitpro/devkitarm/bin/../lib/gcc/arm-none-eabi/4.9.2/../../../../arm-none-eabi/lib/armv6k/fpu\libg.a(lib_a-wbuf.o)
                0x001c1684                __swbuf_r
 .text.__swbuf  0x001c17a8       0x20 c:/devkitpro/devkitarm/bin/../lib/gcc/arm-none-eabi/4.9.2/../../../../arm-none-eabi/lib/armv6k/fpu\libg.a(lib_a-wbuf.o)
                0x001c17a8                __swbuf
 .text._wcrtomb_r
                0x001c17c8       0x8c c:/devkitpro/devkitarm/bin/../lib/gcc/arm-none-eabi/4.9.2/../../../../arm-none-eabi/lib/armv6k/fpu\libg.a(lib_a-wcrtomb.o)
                0x001c17c8                _wcrtomb_r
 .text.wcrtomb  0x001c1854       0x94 c:/devkitpro/devkitarm/bin/../lib/gcc/arm-none-eabi/4.9.2/../../../../arm-none-eabi/lib/armv6k/fpu\libg.a(lib_a-wcrtomb.o)
                0x001c1854                wcrtomb
 .text._wcsrtombs_r
                0x001c18e8       0x20 c:/devkitpro/devkitarm/bin/../lib/gcc/arm-none-eabi/4.9.2/../../../../arm-none-eabi/lib/armv6k/fpu\libg.a(lib_a-wcsrtombs.o)
                0x001c18e8                _wcsrtombs_r
 .text.wcsrtombs
                0x001c1908       0x3c c:/devkitpro/devkitarm/bin/../lib/gcc/arm-none-eabi/4.9.2/../../../../arm-none-eabi/lib/armv6k/fpu\libg.a(lib_a-wcsrtombs.o)
                0x001c1908                wcsrtombs
 .text.__utf8_wctomb
                0x001c1944      0x114 c:/devkitpro/devkitarm/bin/../lib/gcc/arm-none-eabi/4.9.2/../../../../arm-none-eabi/lib/armv6k/fpu\libg.a(lib_a-wctomb_r.o)
                0x001c1944                __utf8_wctomb
 .text._wctomb_r
                0x001c1a58       0x48 c:/devkitpro/devkitarm/bin/../lib/gcc/arm-none-eabi/4.9.2/../../../../arm-none-eabi/lib/armv6k/fpu\libg.a(lib_a-wctomb_r.o)
                0x001c1a58                _wctomb_r
 .text.__ascii_wctomb
                0x001c1aa0       0x28 c:/devkitpro/devkitarm/bin/../lib/gcc/arm-none-eabi/4.9.2/../../../../arm-none-eabi/lib/armv6k/fpu\libg.a(lib_a-wctomb_r.o)
                0x001c1aa0                __ascii_wctomb
 .text.__sjis_wctomb
                0x001c1ac8       0x84 c:/devkitpro/devkitarm/bin/../lib/gcc/arm-none-eabi/4.9.2/../../../../arm-none-eabi/lib/armv6k/fpu\libg.a(lib_a-wctomb_r.o)
                0x001c1ac8                __sjis_wctomb
 .text.__eucjp_wctomb
                0x001c1b4c       0xc8 c:/devkitpro/devkitarm/bin/../lib/gcc/arm-none-eabi/4.9.2/../../../../arm-none-eabi/lib/armv6k/fpu\libg.a(lib_a-wctomb_r.o)
                0x001c1b4c                __eucjp_wctomb
 .text.__jis_wctomb
                0x001c1c14       0xd4 c:/devkitpro/devkitarm/bin/../lib/gcc/arm-none-eabi/4.9.2/../../../../arm-none-eabi/lib/armv6k/fpu\libg.a(lib_a-wctomb_r.o)
                0x001c1c14                __jis_wctomb
 .text.__swsetup_r
                0x001c1ce8      0x14c c:/devkitpro/devkitarm/bin/../lib/gcc/arm-none-eabi/4.9.2/../../../../arm-none-eabi/lib/armv6k/fpu\libg.a(lib_a-wsetup.o)
                0x001c1ce8                __swsetup_r
 .text.__set_ctype
                0x001c1e34       0x18 c:/devkitpro/devkitarm/bin/../lib/gcc/arm-none-eabi/4.9.2/../../../../arm-none-eabi/lib/armv6k/fpu\libg.a(lib_a-ctype_.o)
                0x001c1e34                __set_ctype
 .text.quorem   0x001c1e4c      0x1c0 c:/devkitpro/devkitarm/bin/../lib/gcc/arm-none-eabi/4.9.2/../../../../arm-none-eabi/lib/armv6k/fpu\libg.a(lib_a-dtoa.o)
 *fill*         0x001c200c        0x4 
 .text._dtoa_r  0x001c2010     0x12e0 c:/devkitpro/devkitarm/bin/../lib/gcc/arm-none-eabi/4.9.2/../../../../arm-none-eabi/lib/armv6k/fpu\libg.a(lib_a-dtoa.o)
                0x001c2010                _dtoa_r
 .text.__sflags
                0x001c32f0       0xb0 c:/devkitpro/devkitarm/bin/../lib/gcc/arm-none-eabi/4.9.2/../../../../arm-none-eabi/lib/armv6k/fpu\libg.a(lib_a-flags.o)
                0x001c32f0                __sflags
 .text.__sfvwrite_r
                0x001c33a0      0x4c4 c:/devkitpro/devkitarm/bin/../lib/gcc/arm-none-eabi/4.9.2/../../../../arm-none-eabi/lib/armv6k/fpu\libg.a(lib_a-fvwrite.o)
                0x001c33a0                __sfvwrite_r
 .text.rshift   0x001c3864       0xec c:/devkitpro/devkitarm/bin/../lib/gcc/arm-none-eabi/4.9.2/../../../../arm-none-eabi/lib/armv6k/fpu\libg.a(lib_a-gdtoa-gethex.o)
 .text.__gethex
                0x001c3950      0x7e8 c:/devkitpro/devkitarm/bin/../lib/gcc/arm-none-eabi/4.9.2/../../../../arm-none-eabi/lib/armv6k/fpu\libg.a(lib_a-gdtoa-gethex.o)
                0x001c3950                __gethex
 .text.__hexnan
                0x001c4138      0x260 c:/devkitpro/devkitarm/bin/../lib/gcc/arm-none-eabi/4.9.2/../../../../arm-none-eabi/lib/armv6k/fpu\libg.a(lib_a-gdtoa-hexnan.o)
                0x001c4138                __hexnan
 .text.__get_locale_env
                0x001c4398       0x8c c:/devkitpro/devkitarm/bin/../lib/gcc/arm-none-eabi/4.9.2/../../../../arm-none-eabi/lib/armv6k/fpu\libg.a(lib_a-locale.o)
 .text.loadlocale
                0x001c4424      0x8a4 c:/devkitpro/devkitarm/bin/../lib/gcc/arm-none-eabi/4.9.2/../../../../arm-none-eabi/lib/armv6k/fpu\libg.a(lib_a-locale.o)
 .text.currentlocale
                0x001c4cc8       0x88 c:/devkitpro/devkitarm/bin/../lib/gcc/arm-none-eabi/4.9.2/../../../../arm-none-eabi/lib/armv6k/fpu\libg.a(lib_a-locale.o)
 .text._setlocale_r
                0x001c4d50      0x300 c:/devkitpro/devkitarm/bin/../lib/gcc/arm-none-eabi/4.9.2/../../../../arm-none-eabi/lib/armv6k/fpu\libg.a(lib_a-locale.o)
                0x001c4d50                _setlocale_r
 .text.__locale_charset
                0x001c5050        0xc c:/devkitpro/devkitarm/bin/../lib/gcc/arm-none-eabi/4.9.2/../../../../arm-none-eabi/lib/armv6k/fpu\libg.a(lib_a-locale.o)
                0x001c5050                __locale_charset
 .text.__locale_mb_cur_max
                0x001c505c       0x10 c:/devkitpro/devkitarm/bin/../lib/gcc/arm-none-eabi/4.9.2/../../../../arm-none-eabi/lib/armv6k/fpu\libg.a(lib_a-locale.o)
                0x001c505c                __locale_mb_cur_max
 .text.__locale_msgcharset
                0x001c506c        0xc c:/devkitpro/devkitarm/bin/../lib/gcc/arm-none-eabi/4.9.2/../../../../arm-none-eabi/lib/armv6k/fpu\libg.a(lib_a-locale.o)
                0x001c506c                __locale_msgcharset
 .text.__locale_cjk_lang
                0x001c5078       0x10 c:/devkitpro/devkitarm/bin/../lib/gcc/arm-none-eabi/4.9.2/../../../../arm-none-eabi/lib/armv6k/fpu\libg.a(lib_a-locale.o)
                0x001c5078                __locale_cjk_lang
 .text._localeconv_r
                0x001c5088        0xc c:/devkitpro/devkitarm/bin/../lib/gcc/arm-none-eabi/4.9.2/../../../../arm-none-eabi/lib/armv6k/fpu\libg.a(lib_a-locale.o)
                0x001c5088                _localeconv_r
 .text.setlocale
                0x001c5094       0x20 c:/devkitpro/devkitarm/bin/../lib/gcc/arm-none-eabi/4.9.2/../../../../arm-none-eabi/lib/armv6k/fpu\libg.a(lib_a-locale.o)
                0x001c5094                setlocale
 .text.localeconv
                0x001c50b4       0x14 c:/devkitpro/devkitarm/bin/../lib/gcc/arm-none-eabi/4.9.2/../../../../arm-none-eabi/lib/armv6k/fpu\libg.a(lib_a-locale.o)
                0x001c50b4                localeconv
 .text.__utf8_mbtowc
                0x001c50c8      0x2fc c:/devkitpro/devkitarm/bin/../lib/gcc/arm-none-eabi/4.9.2/../../../../arm-none-eabi/lib/armv6k/fpu\libg.a(lib_a-mbtowc_r.o)
                0x001c50c8                __utf8_mbtowc
 .text._mbtowc_r
                0x001c53c4       0x4c c:/devkitpro/devkitarm/bin/../lib/gcc/arm-none-eabi/4.9.2/../../../../arm-none-eabi/lib/armv6k/fpu\libg.a(lib_a-mbtowc_r.o)
                0x001c53c4                _mbtowc_r
 .text.__ascii_mbtowc
                0x001c5410       0x4c c:/devkitpro/devkitarm/bin/../lib/gcc/arm-none-eabi/4.9.2/../../../../arm-none-eabi/lib/armv6k/fpu\libg.a(lib_a-mbtowc_r.o)
                0x001c5410                __ascii_mbtowc
 .text.__sjis_mbtowc
                0x001c545c       0xd4 c:/devkitpro/devkitarm/bin/../lib/gcc/arm-none-eabi/4.9.2/../../../../arm-none-eabi/lib/armv6k/fpu\libg.a(lib_a-mbtowc_r.o)
                0x001c545c                __sjis_mbtowc
 .text.__eucjp_mbtowc
                0x001c5530      0x140 c:/devkitpro/devkitarm/bin/../lib/gcc/arm-none-eabi/4.9.2/../../../../arm-none-eabi/lib/armv6k/fpu\libg.a(lib_a-mbtowc_r.o)
                0x001c5530                __eucjp_mbtowc
 .text.__jis_mbtowc
                0x001c5670      0x1a8 c:/devkitpro/devkitarm/bin/../lib/gcc/arm-none-eabi/4.9.2/../../../../arm-none-eabi/lib/armv6k/fpu\libg.a(lib_a-mbtowc_r.o)
                0x001c5670                __jis_mbtowc
 .text._Balloc  0x001c5818       0x8c c:/devkitpro/devkitarm/bin/../lib/gcc/arm-none-eabi/4.9.2/../../../../arm-none-eabi/lib/armv6k/fpu\libg.a(lib_a-mprec.o)
                0x001c5818                _Balloc
 .text._Bfree   0x001c58a4       0x1c c:/devkitpro/devkitarm/bin/../lib/gcc/arm-none-eabi/4.9.2/../../../../arm-none-eabi/lib/armv6k/fpu\libg.a(lib_a-mprec.o)
                0x001c58a4                _Bfree
 .text.__multadd
                0x001c58c0       0xd0 c:/devkitpro/devkitarm/bin/../lib/gcc/arm-none-eabi/4.9.2/../../../../arm-none-eabi/lib/armv6k/fpu\libg.a(lib_a-mprec.o)
                0x001c58c0                __multadd
 .text.__s2b    0x001c5990       0xe4 c:/devkitpro/devkitarm/bin/../lib/gcc/arm-none-eabi/4.9.2/../../../../arm-none-eabi/lib/armv6k/fpu\libg.a(lib_a-mprec.o)
                0x001c5990                __s2b
 .text.__hi0bits
                0x001c5a74       0x5c c:/devkitpro/devkitarm/bin/../lib/gcc/arm-none-eabi/4.9.2/../../../../arm-none-eabi/lib/armv6k/fpu\libg.a(lib_a-mprec.o)
                0x001c5a74                __hi0bits
 .text.__lo0bits
                0x001c5ad0       0x98 c:/devkitpro/devkitarm/bin/../lib/gcc/arm-none-eabi/4.9.2/../../../../arm-none-eabi/lib/armv6k/fpu\libg.a(lib_a-mprec.o)
                0x001c5ad0                __lo0bits
 .text.__i2b    0x001c5b68       0x20 c:/devkitpro/devkitarm/bin/../lib/gcc/arm-none-eabi/4.9.2/../../../../arm-none-eabi/lib/armv6k/fpu\libg.a(lib_a-mprec.o)
                0x001c5b68                __i2b
 .text.__multiply
                0x001c5b88      0x1dc c:/devkitpro/devkitarm/bin/../lib/gcc/arm-none-eabi/4.9.2/../../../../arm-none-eabi/lib/armv6k/fpu\libg.a(lib_a-mprec.o)
                0x001c5b88                __multiply
 .text.__pow5mult
                0x001c5d64      0x100 c:/devkitpro/devkitarm/bin/../lib/gcc/arm-none-eabi/4.9.2/../../../../arm-none-eabi/lib/armv6k/fpu\libg.a(lib_a-mprec.o)
                0x001c5d64                __pow5mult
 .text.__lshift
                0x001c5e64       0xf4 c:/devkitpro/devkitarm/bin/../lib/gcc/arm-none-eabi/4.9.2/../../../../arm-none-eabi/lib/armv6k/fpu\libg.a(lib_a-mprec.o)
                0x001c5e64                __lshift
 .text.__mcmp   0x001c5f58       0x64 c:/devkitpro/devkitarm/bin/../lib/gcc/arm-none-eabi/4.9.2/../../../../arm-none-eabi/lib/armv6k/fpu\libg.a(lib_a-mprec.o)
                0x001c5f58                __mcmp
 .text.__mdiff  0x001c5fbc      0x13c c:/devkitpro/devkitarm/bin/../lib/gcc/arm-none-eabi/4.9.2/../../../../arm-none-eabi/lib/armv6k/fpu\libg.a(lib_a-mprec.o)
                0x001c5fbc                __mdiff
 .text.__ulp    0x001c60f8       0x74 c:/devkitpro/devkitarm/bin/../lib/gcc/arm-none-eabi/4.9.2/../../../../arm-none-eabi/lib/armv6k/fpu\libg.a(lib_a-mprec.o)
                0x001c60f8                __ulp
 .text.__b2d    0x001c616c       0xe4 c:/devkitpro/devkitarm/bin/../lib/gcc/arm-none-eabi/4.9.2/../../../../arm-none-eabi/lib/armv6k/fpu\libg.a(lib_a-mprec.o)
                0x001c616c                __b2d
 .text.__d2b    0x001c6250      0x104 c:/devkitpro/devkitarm/bin/../lib/gcc/arm-none-eabi/4.9.2/../../../../arm-none-eabi/lib/armv6k/fpu\libg.a(lib_a-mprec.o)
                0x001c6250                __d2b
 .text.__ratio  0x001c6354       0x7c c:/devkitpro/devkitarm/bin/../lib/gcc/arm-none-eabi/4.9.2/../../../../arm-none-eabi/lib/armv6k/fpu\libg.a(lib_a-mprec.o)
                0x001c6354                __ratio
 .text._mprec_log10
                0x001c63d0       0x48 c:/devkitpro/devkitarm/bin/../lib/gcc/arm-none-eabi/4.9.2/../../../../arm-none-eabi/lib/armv6k/fpu\libg.a(lib_a-mprec.o)
                0x001c63d0                _mprec_log10
 .text.__copybits
                0x001c6418       0x6c c:/devkitpro/devkitarm/bin/../lib/gcc/arm-none-eabi/4.9.2/../../../../arm-none-eabi/lib/armv6k/fpu\libg.a(lib_a-mprec.o)
                0x001c6418                __copybits
 .text.__any_on
                0x001c6484       0x80 c:/devkitpro/devkitarm/bin/../lib/gcc/arm-none-eabi/4.9.2/../../../../arm-none-eabi/lib/armv6k/fpu\libg.a(lib_a-mprec.o)
                0x001c6484                __any_on
 .text.nanf     0x001c6504        0xc c:/devkitpro/devkitarm/bin/../lib/gcc/arm-none-eabi/4.9.2/../../../../arm-none-eabi/lib/armv6k/fpu\libg.a(lib_a-sf_nan.o)
                0x001c6504                nanf
 .text.strcasecmp
                0x001c6510       0x68 c:/devkitpro/devkitarm/bin/../lib/gcc/arm-none-eabi/4.9.2/../../../../arm-none-eabi/lib/armv6k/fpu\libg.a(lib_a-strcasecmp.o)
                0x001c6510                strcasecmp
 .text.strcat   0x001c6578       0x80 c:/devkitpro/devkitarm/bin/../lib/gcc/arm-none-eabi/4.9.2/../../../../arm-none-eabi/lib/armv6k/fpu\libg.a(lib_a-strcat.o)
                0x001c6578                strcat
 .text.strlcpy  0x001c65f8       0x48 c:/devkitpro/devkitarm/bin/../lib/gcc/arm-none-eabi/4.9.2/../../../../arm-none-eabi/lib/armv6k/fpu\libg.a(lib_a-strlcpy.o)
                0x001c65f8                strlcpy
 .text.strncasecmp
                0x001c6640       0x8c c:/devkitpro/devkitarm/bin/../lib/gcc/arm-none-eabi/4.9.2/../../../../arm-none-eabi/lib/armv6k/fpu\libg.a(lib_a-strncasecmp.o)
                0x001c6640                strncasecmp
 .text.get_arg  0x001c66cc      0x860 c:/devkitpro/devkitarm/bin/../lib/gcc/arm-none-eabi/4.9.2/../../../../arm-none-eabi/lib/armv6k/fpu\libg.a(lib_a-svfiprintf.o)
 .text.__ssprint_r
                0x001c6f2c      0x1a8 c:/devkitpro/devkitarm/bin/../lib/gcc/arm-none-eabi/4.9.2/../../../../arm-none-eabi/lib/armv6k/fpu\libg.a(lib_a-svfiprintf.o)
                0x001c6f2c                __ssprint_r
 .text._svfiprintf_r
                0x001c70d4     0x2fdc c:/devkitpro/devkitarm/bin/../lib/gcc/arm-none-eabi/4.9.2/../../../../arm-none-eabi/lib/armv6k/fpu\libg.a(lib_a-svfiprintf.o)
                0x001c70d4                _svfiprintf_r
 .text.wcvt     0x001ca0b0      0x308 c:/devkitpro/devkitarm/bin/../lib/gcc/arm-none-eabi/4.9.2/../../../../arm-none-eabi/lib/armv6k/fpu\libg.a(lib_a-svfwprintf.o)
 .text.get_arg.isra.0
                0x001ca3b8      0x7f4 c:/devkitpro/devkitarm/bin/../lib/gcc/arm-none-eabi/4.9.2/../../../../arm-none-eabi/lib/armv6k/fpu\libg.a(lib_a-svfwprintf.o)
 *fill*         0x001cabac        0x4 
 .text._svfwprintf_r
                0x001cabb0     0x3e40 c:/devkitpro/devkitarm/bin/../lib/gcc/arm-none-eabi/4.9.2/../../../../arm-none-eabi/lib/armv6k/fpu\libg.a(lib_a-svfwprintf.o)
                0x001cabb0                _svfwprintf_r
 .text.get_arg  0x001ce9f0      0x860 c:/devkitpro/devkitarm/bin/../lib/gcc/arm-none-eabi/4.9.2/../../../../arm-none-eabi/lib/armv6k/fpu\libg.a(lib_a-vfiprintf.o)
 .text.__sprint_r.part.0
                0x001cf250       0xa4 c:/devkitpro/devkitarm/bin/../lib/gcc/arm-none-eabi/4.9.2/../../../../arm-none-eabi/lib/armv6k/fpu\libg.a(lib_a-vfiprintf.o)
 .text.__sprint_r
                0x001cf2f4       0x1c c:/devkitpro/devkitarm/bin/../lib/gcc/arm-none-eabi/4.9.2/../../../../arm-none-eabi/lib/armv6k/fpu\libg.a(lib_a-vfiprintf.o)
                0x001cf2f4                __sprint_r
 .text._vfiprintf_r
                0x001cf310     0x3114 c:/devkitpro/devkitarm/bin/../lib/gcc/arm-none-eabi/4.9.2/../../../../arm-none-eabi/lib/armv6k/fpu\libg.a(lib_a-vfiprintf.o)
                0x001cf310                _vfiprintf_r
 .text.vfiprintf
                0x001d2424       0x28 c:/devkitpro/devkitarm/bin/../lib/gcc/arm-none-eabi/4.9.2/../../../../arm-none-eabi/lib/armv6k/fpu\libg.a(lib_a-vfiprintf.o)
                0x001d2424                vfiprintf
 .text.__sbprintf
                0x001d244c       0xa8 c:/devkitpro/devkitarm/bin/../lib/gcc/arm-none-eabi/4.9.2/../../../../arm-none-eabi/lib/armv6k/fpu\libg.a(lib_a-vfiprintf.o)
 .text.wcslen   0x001d24f4       0x2c c:/devkitpro/devkitarm/bin/../lib/gcc/arm-none-eabi/4.9.2/../../../../arm-none-eabi/lib/armv6k/fpu\libg.a(lib_a-wcslen.o)
                0x001d24f4                wcslen
 .text._wcsnrtombs_r
                0x001d2520      0x184 c:/devkitpro/devkitarm/bin/../lib/gcc/arm-none-eabi/4.9.2/../../../../arm-none-eabi/lib/armv6k/fpu\libg.a(lib_a-wcsnrtombs.o)
                0x001d2520                _wcsnrtombs_r
 .text.wcsnrtombs
                0x001d26a4       0x40 c:/devkitpro/devkitarm/bin/../lib/gcc/arm-none-eabi/4.9.2/../../../../arm-none-eabi/lib/armv6k/fpu\libg.a(lib_a-wcsnrtombs.o)
                0x001d26a4                wcsnrtombs
 .text.wmemchr  0x001d26e4       0x5c c:/devkitpro/devkitarm/bin/../lib/gcc/arm-none-eabi/4.9.2/../../../../arm-none-eabi/lib/armv6k/fpu\libg.a(lib_a-wmemchr.o)
                0x001d26e4                wmemchr
 .text.btowc    0x001d2740       0x78 c:/devkitpro/devkitarm/bin/../lib/gcc/arm-none-eabi/4.9.2/../../../../arm-none-eabi/lib/armv6k/fpu\libg.a(lib_a-btowc.o)
                0x001d2740                btowc
 .text._calloc_r
                0x001d27b8       0x94 c:/devkitpro/devkitarm/bin/../lib/gcc/arm-none-eabi/4.9.2/../../../../arm-none-eabi/lib/armv6k/fpu\libg.a(lib_a-callocr.o)
                0x001d27b8                _calloc_r
 .text.__fputwc
                0x001d284c      0x124 c:/devkitpro/devkitarm/bin/../lib/gcc/arm-none-eabi/4.9.2/../../../../arm-none-eabi/lib/armv6k/fpu\libg.a(lib_a-fputwc.o)
                0x001d284c                __fputwc
 .text._fputwc_r
                0x001d2970       0xa8 c:/devkitpro/devkitarm/bin/../lib/gcc/arm-none-eabi/4.9.2/../../../../arm-none-eabi/lib/armv6k/fpu\libg.a(lib_a-fputwc.o)
                0x001d2970                _fputwc_r
 .text.fputwc   0x001d2a18       0x3c c:/devkitpro/devkitarm/bin/../lib/gcc/arm-none-eabi/4.9.2/../../../../arm-none-eabi/lib/armv6k/fpu\libg.a(lib_a-fputwc.o)
                0x001d2a18                fputwc
 .text._findenv_r
                0x001d2a54       0xc8 c:/devkitpro/devkitarm/bin/../lib/gcc/arm-none-eabi/4.9.2/../../../../arm-none-eabi/lib/armv6k/fpu\libg.a(lib_a-getenv_r.o)
                0x001d2a54                _findenv_r
 .text._getenv_r
                0x001d2b1c       0x18 c:/devkitpro/devkitarm/bin/../lib/gcc/arm-none-eabi/4.9.2/../../../../arm-none-eabi/lib/armv6k/fpu\libg.a(lib_a-getenv_r.o)
                0x001d2b1c                _getenv_r
 .text.mbrlen   0x001d2b34       0x40 c:/devkitpro/devkitarm/bin/../lib/gcc/arm-none-eabi/4.9.2/../../../../arm-none-eabi/lib/armv6k/fpu\libg.a(lib_a-mbrlen.o)
                0x001d2b34                mbrlen
 .text._mbrtowc_r
                0x001d2b74       0x98 c:/devkitpro/devkitarm/bin/../lib/gcc/arm-none-eabi/4.9.2/../../../../arm-none-eabi/lib/armv6k/fpu\libg.a(lib_a-mbrtowc.o)
                0x001d2b74                _mbrtowc_r
 .text.mbrtowc  0x001d2c0c       0x9c c:/devkitpro/devkitarm/bin/../lib/gcc/arm-none-eabi/4.9.2/../../../../arm-none-eabi/lib/armv6k/fpu\libg.a(lib_a-mbrtowc.o)
                0x001d2c0c                mbrtowc
 .text._mbsnrtowcs_r
                0x001d2ca8       0xf8 c:/devkitpro/devkitarm/bin/../lib/gcc/arm-none-eabi/4.9.2/../../../../arm-none-eabi/lib/armv6k/fpu\libg.a(lib_a-mbsnrtowcs.o)
                0x001d2ca8                _mbsnrtowcs_r
 .text.mbsnrtowcs
                0x001d2da0       0x40 c:/devkitpro/devkitarm/bin/../lib/gcc/arm-none-eabi/4.9.2/../../../../arm-none-eabi/lib/armv6k/fpu\libg.a(lib_a-mbsnrtowcs.o)
                0x001d2da0                mbsnrtowcs
 .text.__env_lock
                0x001d2de0        0x4 c:/devkitpro/devkitarm/bin/../lib/gcc/arm-none-eabi/4.9.2/../../../../arm-none-eabi/lib/armv6k/fpu\libg.a(lib_a-envlock.o)
                0x001d2de0                __env_lock
 .text.__env_unlock
                0x001d2de4        0x4 c:/devkitpro/devkitarm/bin/../lib/gcc/arm-none-eabi/4.9.2/../../../../arm-none-eabi/lib/armv6k/fpu\libg.a(lib_a-envlock.o)
                0x001d2de4                __env_unlock
 .text.strnlen  0x001d2de8       0x5c c:/devkitpro/devkitarm/bin/../lib/gcc/arm-none-eabi/4.9.2/../../../../arm-none-eabi/lib/armv6k/fpu\libg.a(lib_a-strnlen.o)
                0x001d2de8                strnlen
 *(.glue_7)
 .glue_7        0x001d2e44        0x0 linker stubs
 *(.glue_7t)
 .glue_7t       0x001d2e44        0x0 linker stubs
 *(.stub)
 *(.gnu.warning)
 *(.gnu.linkonce.t*)
                0x001d2e44                . = ALIGN (0x4)
 *(.fini)
 .fini          0x001d2e44        0xc c:/devkitpro/devkitarm/bin/../lib/gcc/arm-none-eabi/4.9.2/armv6k/fpu/crti.o
                0x001d2e44                _fini
 .fini          0x001d2e50        0xc c:/devkitpro/devkitarm/bin/../lib/gcc/arm-none-eabi/4.9.2/armv6k/fpu/crtn.o
                0x001d2e5c                . = ALIGN (0x4)

.vfp11_veneer   0x001d2e5c        0x0
 .vfp11_veneer  0x001d2e5c        0x0 linker stubs

.v4_bx          0x001d2e5c        0x0
 .v4_bx         0x001d2e5c        0x0 linker stubs

.iplt           0x001d2e5c        0x0
 .iplt          0x001d2e5c        0x0 c:/devkitpro/devkitarm/bin/../lib/gcc/arm-none-eabi/4.9.2/../../../../arm-none-eabi/lib/armv6k/fpu/3dsx_crt0.o

.rodata         0x001d3000    0x2e044
 *(.rodata)
 .rodata        0x001d3000     0x4eac eightbit.ttf.o
                0x001d3000                eightbit_ttf
                0x001d7ea8                eightbit_ttf_size
                0x001d7ea8                eightbit_ttf_end
 .rodata        0x001d7eac      0x140 friskBack0.png.o
                0x001d7eac                friskBack0_png
                0x001d7fe5                friskBack0_png_end
                0x001d7fe8                friskBack0_png_size
 .rodata        0x001d7fec      0x13c friskBack1.png.o
                0x001d7fec                friskBack1_png
                0x001d8121                friskBack1_png_end
                0x001d8124                friskBack1_png_size
 .rodata        0x001d8128      0x140 friskBack2.png.o
                0x001d8128                friskBack2_png
                0x001d8261                friskBack2_png_end
                0x001d8264                friskBack2_png_size
 .rodata        0x001d8268      0x13c friskBack3.png.o
                0x001d8268                friskBack3_png
                0x001d83a0                friskBack3_png_size
                0x001d83a0                friskBack3_png_end
 .rodata        0x001d83a4      0x17c friskFace0.png.o
                0x001d83a4                friskFace0_png
                0x001d8519                friskFace0_png_end
                0x001d851c                friskFace0_png_size
 .rodata        0x001d8520      0x174 friskFace1.png.o
                0x001d8520                friskFace1_png
                0x001d868d                friskFace1_png_end
                0x001d8690                friskFace1_png_size
 .rodata        0x001d8694      0x17c friskFace2.png.o
                0x001d8694                friskFace2_png
                0x001d8809                friskFace2_png_end
                0x001d880c                friskFace2_png_size
 .rodata        0x001d8810      0x178 friskFace3.png.o
                0x001d8810                friskFace3_png
                0x001d8981                friskFace3_png_end
                0x001d8984                friskFace3_png_size
 .rodata        0x001d8988      0x1c0 friskLeft0.png.o
                0x001d8988                friskLeft0_png
                0x001d8b44                friskLeft0_png_size
                0x001d8b44                friskLeft0_png_end
 .rodata        0x001d8b48      0x1d4 friskLeft1.png.o
                0x001d8b48                friskLeft1_png
                0x001d8d17                friskLeft1_png_end
                0x001d8d18                friskLeft1_png_size
 .rodata        0x001d8d1c      0x1b4 friskRight0.png.o
                0x001d8d1c                friskRight0_png
                0x001d8ecc                friskRight0_png_end
                0x001d8ecc                friskRight0_png_size
 .rodata        0x001d8ed0      0x1dc friskRight1.png.o
                0x001d8ed0                friskRight1_png
                0x001d90a7                friskRight1_png_end
                0x001d90a8                friskRight1_png_size
 .rodata        0x001d90ac     0x29bc torielHouse-old.png.o
                0x001d90ac                torielHouse_old_png
                0x001dba61                torielHouse_old_png_end
                0x001dba64                torielHouse_old_png_size
 .rodata        0x001dba68     0x1058 torielHouse1.png.o
                0x001dba68                torielHouse1_png
                0x001dcab9                torielHouse1_png_end
                0x001dcabc                torielHouse1_png_size
 .rodata        0x001dcac0     0x1278 torielHouse2.png.o
                0x001dcac0                torielHouse2_png
                0x001ddd33                torielHouse2_png_end
                0x001ddd34                torielHouse2_png_size
 .rodata        0x001ddd38     0x16fc torielHouse3.png.o
                0x001ddd38                torielHouse3_png
                0x001df42f                torielHouse3_png_end
                0x001df430                torielHouse3_png_size
 .rodata        0x001df434      0xd04 torielHouse4.png.o
                0x001df434                torielHouse4_png
                0x001e0133                torielHouse4_png_end
                0x001e0134                torielHouse4_png_size
 .rodata        0x001e0138     0x1b3c torielHouse5.png.o
                0x001e0138                torielHouse5_png
                0x001e1c6e                torielHouse5_png_end
                0x001e1c70                torielHouse5_png_size
 .rodata        0x001e1c74     0x1270 torielHouse6.png.o
                0x001e1c74                torielHouse6_png
                0x001e2edf                torielHouse6_png_end
                0x001e2ee0                torielHouse6_png_size
 .rodata        0x001e2ee4      0x9a8 c:/devkitPro/portlibs/armv6k/lib\libpng.a(png.o)
                0x001e308c                png_sRGB_delta
                0x001e328c                png_sRGB_base
                0x001e368c                png_sRGB_table
 .rodata        0x001e388c       0x24 c:/devkitPro/portlibs/armv6k/lib\libpng.a(pngerror.o)
 .rodata        0x001e38b0       0x20 c:/devkitPro/portlibs/armv6k/lib\libpng.a(pngread.o)
 .rodata        0x001e38d0      0x124 c:/devkitPro/portlibs/armv6k/lib\libpng.a(pngrutil.o)
 .rodata        0x001e39f4       0x58 c:/devkitPro/portlibs/armv6k/lib\libpng.a(pngset.o)
 .rodata        0x001e3a4c      0x300 c:/devkitPro/portlibs/armv6k/lib\libpng.a(pngtrans.o)
 .rodata        0x001e3d4c       0x38 c:/devkitPro/portlibs/armv6k/lib\libpng.a(pngwutil.o)
 .rodata        0x001e3d84       0x4c c:/devkitPro/portlibs/armv6k/lib\libfreetype.a(ftinit.o)
 .rodata        0x001e3dd0       0xa0 c:/devkitPro/portlibs/armv6k/lib\libfreetype.a(ftbase.o)
 .rodata        0x001e3e70      0x5b8 c:/devkitPro/portlibs/armv6k/lib\libfreetype.a(truetype.o)
                0x001e4360                tt_default_graphics_state
                0x001e43a4                tt_driver_class
 .rodata        0x001e4428      0x6b8 c:/devkitPro/portlibs/armv6k/lib\libfreetype.a(type1.o)
                0x001e4a48                t1_driver_class
 .rodata        0x001e4ae0      0xf10 c:/devkitPro/portlibs/armv6k/lib\libfreetype.a(cff.o)
                0x001e4b08                cff_cmap_encoding_class_rec
                0x001e4b30                cff_cmap_unicode_class_rec
                0x001e5958                cff_driver_class
 .rodata        0x001e59f0      0x70c c:/devkitPro/portlibs/armv6k/lib\libfreetype.a(type1cid.o)
                0x001e6078                t1cid_driver_class
 .rodata        0x001e60fc      0x148 c:/devkitPro/portlibs/armv6k/lib\libfreetype.a(pfr.o)
                0x001e61b0                pfr_cmap_class_rec
                0x001e61d8                pfr_driver_class
 .rodata        0x001e6244      0x328 c:/devkitPro/portlibs/armv6k/lib\libfreetype.a(type42.o)
                0x001e64ec                t42_driver_class
 .rodata        0x001e656c      0x204 c:/devkitPro/portlibs/armv6k/lib\libfreetype.a(winfnt.o)
                0x001e670c                winfnt_driver_class
 .rodata        0x001e6770      0x1bc c:/devkitPro/portlibs/armv6k/lib\libfreetype.a(pcf.o)
                0x001e68c4                pcf_driver_class
 .rodata        0x001e692c      0x6a4 c:/devkitPro/portlibs/armv6k/lib\libfreetype.a(bdf.o)
                0x001e6f68                bdf_driver_class
 .rodata        0x001e6fd0      0x664 c:/devkitPro/portlibs/armv6k/lib\libfreetype.a(sfnt.o)
                0x001e73a0                sfnt_module_class
                0x001e7460                tt_cmap14_class_rec
                0x001e7494                tt_cmap13_class_rec
                0x001e74c8                tt_cmap12_class_rec
                0x001e74fc                tt_cmap10_class_rec
                0x001e7530                tt_cmap8_class_rec
                0x001e7564                tt_cmap6_class_rec
                0x001e7598                tt_cmap4_class_rec
                0x001e75cc                tt_cmap2_class_rec
                0x001e7600                tt_cmap0_class_rec
 .rodata        0x001e7634     0x1514 c:/devkitPro/portlibs/armv6k/lib\libfreetype.a(autofit.o)
                0x001e7734                af_style_classes
                0x001e7808                af_writing_system_classes
                0x001e782c                af_script_classes
                0x001e7894                af_blue_stringsets
                0x001e79a4                af_blue_strings
                0x001e7db4                af_arab_dflt_style_class
                0x001e7dbc                autofit_module_class
                0x001e7de0                af_autofitter_interface
                0x001e7df8                af_indic_writing_system_class
                0x001e7e14                af_cjk_writing_system_class
                0x001e7e30                af_latin_writing_system_class
                0x001e7e4c                af_dummy_writing_system_class
                0x001e7e68                af_hani_nonbase_uniranges
                0x001e7e80                af_hani_uniranges
                0x001e7f78                af_tibt_nonbase_uniranges
                0x001e7fc8                af_tibt_uniranges
                0x001e7fd8                af_taml_nonbase_uniranges
                0x001e7ff8                af_taml_uniranges
                0x001e8008                af_sylo_nonbase_uniranges
                0x001e8030                af_sylo_uniranges
                0x001e8040                af_sund_nonbase_uniranges
                0x001e8058                af_sund_uniranges
                0x001e8070                af_sinh_nonbase_uniranges
                0x001e8088                af_sinh_uniranges
                0x001e8098                af_orya_nonbase_uniranges
                0x001e80d0                af_orya_uniranges
                0x001e80e0                af_mlym_nonbase_uniranges
                0x001e8100                af_mlym_uniranges
                0x001e8110                af_limb_nonbase_uniranges
                0x001e8130                af_limb_uniranges
                0x001e8140                af_knda_nonbase_uniranges
                0x001e8178                af_knda_uniranges
                0x001e8188                af_guru_nonbase_uniranges
                0x001e81b8                af_guru_uniranges
                0x001e81c8                af_gujr_nonbase_uniranges
                0x001e81f8                af_gujr_uniranges
                0x001e8208                af_beng_nonbase_uniranges
                0x001e8238                af_beng_uniranges
                0x001e8248                af_thai_nonbase_uniranges
                0x001e8268                af_thai_uniranges
                0x001e8278                af_telu_nonbase_uniranges
                0x001e82a0                af_telu_uniranges
                0x001e82b0                af_none_nonbase_uniranges
                0x001e82b8                af_none_uniranges
                0x001e82c0                af_latp_nonbase_uniranges
                0x001e82c8                af_latp_uniranges
                0x001e8338                af_latb_nonbase_uniranges
                0x001e8340                af_latb_uniranges
                0x001e8360                af_latn_nonbase_uniranges
                0x001e83e8                af_latn_uniranges
                0x001e84f0                af_lao_nonbase_uniranges
                0x001e8510                af_lao_uniranges
                0x001e8520                af_hebr_nonbase_uniranges
                0x001e8550                af_hebr_uniranges
                0x001e8568                af_grek_nonbase_uniranges
                0x001e85a8                af_grek_uniranges
                0x001e85c0                af_deva_nonbase_uniranges
                0x001e8600                af_deva_uniranges
                0x001e8638                af_cyrl_nonbase_uniranges
                0x001e8660                af_cyrl_uniranges
                0x001e8688                af_arab_nonbase_uniranges
                0x001e8720                af_arab_uniranges
                0x001e8758                af_hani_dflt_style_class
                0x001e8760                af_tibt_dflt_style_class
                0x001e8768                af_taml_dflt_style_class
                0x001e8770                af_sylo_dflt_style_class
                0x001e8778                af_sund_dflt_style_class
                0x001e8780                af_sinh_dflt_style_class
                0x001e8788                af_orya_dflt_style_class
                0x001e8790                af_mlym_dflt_style_class
                0x001e8798                af_limb_dflt_style_class
                0x001e87a0                af_knda_dflt_style_class
                0x001e87a8                af_guru_dflt_style_class
                0x001e87b0                af_gujr_dflt_style_class
                0x001e87b8                af_beng_dflt_style_class
                0x001e87c0                af_thai_dflt_style_class
                0x001e87c8                af_telu_dflt_style_class
                0x001e87d0                af_none_dflt_style_class
                0x001e87d8                af_latp_dflt_style_class
                0x001e87e0                af_latb_dflt_style_class
                0x001e87e8                af_latn_dflt_style_class
                0x001e87f0                af_latn_titl_style_class
                0x001e87f8                af_latn_sups_style_class
                0x001e8800                af_latn_subs_style_class
                0x001e8808                af_latn_smcp_style_class
                0x001e8810                af_latn_sinf_style_class
                0x001e8818                af_latn_pcap_style_class
                0x001e8820                af_latn_ordn_style_class
                0x001e8828                af_latn_c2sc_style_class
                0x001e8830                af_latn_c2cp_style_class
                0x001e8838                af_lao_dflt_style_class
                0x001e8840                af_hebr_dflt_style_class
                0x001e8848                af_grek_dflt_style_class
                0x001e8850                af_grek_titl_style_class
                0x001e8858                af_grek_sups_style_class
                0x001e8860                af_grek_subs_style_class
                0x001e8868                af_grek_smcp_style_class
                0x001e8870                af_grek_sinf_style_class
                0x001e8878                af_grek_pcap_style_class
                0x001e8880                af_grek_ordn_style_class
                0x001e8888                af_grek_c2sc_style_class
                0x001e8890                af_grek_c2cp_style_class
                0x001e8898                af_deva_dflt_style_class
                0x001e88a0                af_cyrl_dflt_style_class
                0x001e88a8                af_cyrl_titl_style_class
                0x001e88b0                af_cyrl_sups_style_class
                0x001e88b8                af_cyrl_subs_style_class
                0x001e88c0                af_cyrl_smcp_style_class
                0x001e88c8                af_cyrl_sinf_style_class
                0x001e88d0                af_cyrl_pcap_style_class
                0x001e88d8                af_cyrl_ordn_style_class
                0x001e88e0                af_cyrl_c2sc_style_class
                0x001e88e8                af_cyrl_c2cp_style_class
                0x001e88f0                af_hani_script_class
                0x001e8908                af_tibt_script_class
                0x001e8920                af_taml_script_class
                0x001e8938                af_sylo_script_class
                0x001e8950                af_sund_script_class
                0x001e8968                af_sinh_script_class
                0x001e8980                af_orya_script_class
                0x001e8998                af_mlym_script_class
                0x001e89b0                af_limb_script_class
                0x001e89c8                af_knda_script_class
                0x001e89e0                af_guru_script_class
                0x001e89f8                af_gujr_script_class
                0x001e8a10                af_beng_script_class
                0x001e8a28                af_thai_script_class
                0x001e8a40                af_telu_script_class
                0x001e8a58                af_none_script_class
                0x001e8a70                af_latp_script_class
                0x001e8a88                af_latb_script_class
                0x001e8aa0                af_latn_script_class
                0x001e8ab8                af_lao_script_class
                0x001e8ad0                af_hebr_script_class
                0x001e8ae8                af_grek_script_class
                0x001e8b00                af_deva_script_class
                0x001e8b18                af_cyrl_script_class
                0x001e8b30                af_arab_script_class
 .rodata        0x001e8b48       0x30 c:/devkitPro/portlibs/armv6k/lib\libfreetype.a(pshinter.o)
                0x001e8b48                pshinter_module_class
 .rodata        0x001e8b78       0x54 c:/devkitPro/portlibs/armv6k/lib\libfreetype.a(raster.o)
                0x001e8b78                ft_raster1_renderer_class
                0x001e8bb4                ft_standard_raster
 .rodata        0x001e8bcc       0xe4 c:/devkitPro/portlibs/armv6k/lib\libfreetype.a(smooth.o)
                0x001e8be4                ft_smooth_lcdv_renderer_class
                0x001e8c20                ft_smooth_lcd_renderer_class
                0x001e8c5c                ft_smooth_renderer_class
                0x001e8c98                ft_grays_raster
 .rodata        0x001e8cb0       0xc4 c:/devkitPro/portlibs/armv6k/lib\libfreetype.a(ftcache.o)
 .rodata        0x001e8d74      0x380 c:/devkitPro/portlibs/armv6k/lib\libfreetype.a(psaux.o)
                0x001e8d74                ps_parser_funcs
                0x001e8e28                ps_table_funcs
                0x001e8e38                t1_builder_funcs
                0x001e8e58                t1_decoder_funcs
                0x001e8ff8                t1_cmap_unicode_class_rec
                0x001e9020                t1_cmap_custom_class_rec
                0x001e9048                t1_cmap_expert_class_rec
                0x001e9070                t1_cmap_standard_class_rec
                0x001e9098                psaux_module_class
                0x001e90d8                t1_cmap_classes
                0x001e90e8                afm_parser_funcs
 .rodata        0x001e90f4     0xf2f0 c:/devkitPro/portlibs/armv6k/lib\libfreetype.a(psnames.o)
                0x001f7fa0                psnames_module_class
 .rodata        0x001f83e4       0x40 c:/devkitPro/portlibs/armv6k/lib\libfreetype.a(ftglyph.o)
                0x001f83e4                ft_outline_glyph_class
                0x001f8404                ft_bitmap_glyph_class
 .rodata        0x001f8424     0x2000 c:/devkitPro/portlibs/armv6k/lib\libz.a(crc32.o)
 .rodata        0x001fa424       0xbc c:/devkitPro/portlibs/armv6k/lib\libz.a(deflate.o)
                0x001fa49c                deflate_copyright
 .rodata        0x001fa4e0      0x8a8 c:/devkitPro/portlibs/armv6k/lib\libz.a(inflate.o)
 .rodata        0x001fad88      0x130 c:/devkitPro/portlibs/armv6k/lib\libz.a(inftrees.o)
                0x001fae88                inflate_copyright
 .rodata        0x001faeb8      0xa30 c:/devkitPro/portlibs/armv6k/lib\libz.a(trees.o)
                0x001faeb8                _length_code
                0x001fb0a0                _dist_code
 .rodata        0x001fb8e8       0x28 c:/devkitPro/portlibs/armv6k/lib\libz.a(zutil.o)
                0x001fb8e8                z_errmsg
 .rodata        0x001fb910       0x30 c:/devkitPro/libctru/lib\libsf2d.a(sf2d_texture.o)
 .rodata        0x001fb940       0xe8 c:/devkitPro/libctru/lib\libsf2d.a(shader.vsh.o)
                0x001fb940                shader_vsh_shbin
                0x001fba24                shader_vsh_shbin_size
                0x001fba24                shader_vsh_shbin_end
 .rodata        0x001fba28       0x14 c:/devkitPro/libctru/lib\libctru.a(gfx.o)
 .rodata        0x001fba3c       0x64 c:/devkitPro/libctru/lib\libctru.a(os.o)
 .rodata        0x001fbaa0       0x30 c:/devkitPro/libctru/lib\libctru.a(romfs_dev.o)
 .rodata        0x001fbad0        0xc c:/devkitPro/libctru/lib\libctru.a(gpu.o)
                0x001fbad0                GPU_FORMATSIZE
                0x001fbad4                GPU_TEVID
 .rodata        0x001fbadc        0x8 c:/devkitPro/libctru/lib\libctru.a(shaderProgram.o)
 .rodata        0x001fbae4       0x24 c:/devkitPro/libctru/lib\libctru.a(shbin.o)
 .rodata        0x001fbb08        0xc c:/devkitPro/libctru/lib\libctru.a(apt.o)
 .rodata        0x001fbb14       0x30 c:/devkitPro/libctru/lib\libctru.a(sdmc_dev.o)
 .rodata        0x001fbb44       0x68 c:/devkitpro/devkitarm/bin/../lib/gcc/arm-none-eabi/4.9.2/../../../../arm-none-eabi/lib/armv6k/fpu\libsysbase.a(iosupport.o)
                0x001fbb44                dotab_stdnull
 .rodata        0x001fbbac        0xc c:/devkitpro/devkitarm/bin/../lib/gcc/arm-none-eabi/4.9.2/../../../../arm-none-eabi/lib/armv6k/fpu\libsysbase.a(chdir.o)
                0x001fbbac                DIRECTORY_PARENT
                0x001fbbb0                DIRECTORY_THIS
                0x001fbbb4                DIRECTORY_SEPARATOR
 *(.roda)
 *(.rodata.*)
 .rodata.str1.4
                0x001fbbb8       0x67 main.o
                                 0x68 (size before relaxing)
 *fill*         0x001fbc1f        0x1 
 .rodata.str1.4
                0x001fbc20        0x7 c:/devkitPro/libctru/lib\libsfil.a(sfil_png.o)
                                  0xc (size before relaxing)
 *fill*         0x001fbc27        0x1 
 .rodata.str1.4
                0x001fbc28      0x9a2 c:/devkitPro/portlibs/armv6k/lib\libpng.a(png.o)
                                0x9c4 (size before relaxing)
 *fill*         0x001fc5ca        0x2 
 .rodata.str1.4
                0x001fc5cc       0xa2 c:/devkitPro/portlibs/armv6k/lib\libpng.a(pngerror.o)
                                 0xa4 (size before relaxing)
 .rodata.str1.4
                0x001fc66e       0xa2 c:/devkitPro/portlibs/armv6k/lib\libpng.a(pngget.o)
                                 0x18 (size before relaxing)
 *fill*         0x001fc66e        0x2 
 .rodata.str1.4
                0x001fc670       0x5a c:/devkitPro/portlibs/armv6k/lib\libpng.a(pngmem.o)
                                 0x5c (size before relaxing)
 *fill*         0x001fc6ca        0x2 
 .rodata.str1.4
                0x001fc6cc      0x879 c:/devkitPro/portlibs/armv6k/lib\libpng.a(pngread.o)
                                0x888 (size before relaxing)
 *fill*         0x001fcf45        0x3 
 .rodata.str1.4
                0x001fcf48       0x6c c:/devkitPro/portlibs/armv6k/lib\libpng.a(pngrio.o)
 .rodata.str1.4
                0x001fcfb4      0x344 c:/devkitPro/portlibs/armv6k/lib\libpng.a(pngrtran.o)
 .rodata.str1.4
                0x001fd2f8      0x52d c:/devkitPro/portlibs/armv6k/lib\libpng.a(pngrutil.o)
                                0x578 (size before relaxing)
 *fill*         0x001fd825        0x3 
 .rodata.str1.4
                0x001fd828      0x60a c:/devkitPro/portlibs/armv6k/lib\libpng.a(pngset.o)
                                0x628 (size before relaxing)
 *fill*         0x001fde32        0x2 
 .rodata.str1.4
                0x001fde34       0xa3 c:/devkitPro/portlibs/armv6k/lib\libpng.a(pngtrans.o)
                                 0xa4 (size before relaxing)
 *fill*         0x001fded7        0x1 
 .rodata.str1.4
                0x001fded8      0x3fd c:/devkitPro/portlibs/armv6k/lib\libpng.a(pngwrite.o)
                                0x43c (size before relaxing)
 *fill*         0x001fe2d5        0x3 
 .rodata.str1.4
                0x001fe2d8      0x6be c:/devkitPro/portlibs/armv6k/lib\libpng.a(pngwutil.o)
                                0x6dc (size before relaxing)
 *fill*         0x001fe996        0x2 
 .rodata.str1.4
                0x001fe998       0x28 c:/devkitPro/portlibs/armv6k/lib\libpng.a(pngwio.o)
                                 0x6c (size before relaxing)
 .rodata.str1.4
                0x001fe9c0       0x28 c:/devkitPro/libctru/lib\libsftd.a(sftd.o)
                                  0x4 (size before relaxing)
 .rodata.str1.4
                0x001fe9c0       0xd0 c:/devkitPro/portlibs/armv6k/lib\libfreetype.a(ftbase.o)
                                 0xd8 (size before relaxing)
 .rodata.str1.4
                0x001fea90       0x70 c:/devkitPro/portlibs/armv6k/lib\libfreetype.a(truetype.o)
                                 0xa0 (size before relaxing)
 .rodata.str1.4
                0x001feb00      0x2e7 c:/devkitPro/portlibs/armv6k/lib\libfreetype.a(type1.o)
                                0x37c (size before relaxing)
 *fill*         0x001fede7        0x1 
 .rodata.str1.4
                0x001fede8       0x44 c:/devkitPro/portlibs/armv6k/lib\libfreetype.a(cff.o)
                                 0xe0 (size before relaxing)
 .rodata.str1.4
                0x001fee2c      0x138 c:/devkitPro/portlibs/armv6k/lib\libfreetype.a(type1cid.o)
                                0x330 (size before relaxing)
 .rodata.str1.4
                0x001fef64       0x14 c:/devkitPro/portlibs/armv6k/lib\libfreetype.a(pfr.o)
                                 0x20 (size before relaxing)
 .rodata.str1.4
                0x001fef78       0x2a c:/devkitPro/portlibs/armv6k/lib\libfreetype.a(type42.o)
                                0x1d0 (size before relaxing)
 *fill*         0x001fefa2        0x2 
 .rodata.str1.4
                0x001fefa4       0x2c c:/devkitPro/portlibs/armv6k/lib\libfreetype.a(winfnt.o)
                                 0x48 (size before relaxing)
 .rodata.str1.4
                0x001fefd0       0xac c:/devkitPro/portlibs/armv6k/lib\libfreetype.a(pcf.o)
                                 0xfc (size before relaxing)
 .rodata.str1.4
                0x001ff07c      0x3df c:/devkitPro/portlibs/armv6k/lib\libfreetype.a(bdf.o)
                                0x634 (size before relaxing)
 .rodata.str1.4
                0x001ff45b       0x84 c:/devkitPro/portlibs/armv6k/lib\libfreetype.a(sfnt.o)
 *fill*         0x001ff45b        0x1 
 .rodata.str1.4
                0x001ff45c       0x5b c:/devkitPro/portlibs/armv6k/lib\libfreetype.a(autofit.o)
                                 0x68 (size before relaxing)
 .rodata.str1.4
                0x001ff4b7        0xc c:/devkitPro/portlibs/armv6k/lib\libfreetype.a(pshinter.o)
 *fill*         0x001ff4b7        0x1 
 .rodata.str1.4
                0x001ff4b8        0x8 c:/devkitPro/portlibs/armv6k/lib\libfreetype.a(raster.o)
 .rodata.str1.4
                0x001ff4c0       0x1f c:/devkitPro/portlibs/armv6k/lib\libfreetype.a(smooth.o)
                                 0x20 (size before relaxing)
 .rodata.str1.4
                0x001ff4df        0x8 c:/devkitPro/portlibs/armv6k/lib\libfreetype.a(ftgzip.o)
 *fill*         0x001ff4df        0x1 
 .rodata.str1.4
                0x001ff4e0      0x25c c:/devkitPro/portlibs/armv6k/lib\libfreetype.a(psaux.o)
                                0x34c (size before relaxing)
 .rodata.str1.4
                0x001ff73c        0x8 c:/devkitPro/portlibs/armv6k/lib\libfreetype.a(psnames.o)
                                 0x1c (size before relaxing)
 .rodata.str1.4
                0x001ff744        0x4 c:/devkitPro/portlibs/armv6k/lib\libfreetype.a(ftsystem.o)
 .rodata.str1.4
                0x001ff744      0x1e7 c:/devkitPro/portlibs/armv6k/lib\libz.a(inflate.o)
                                0x1e8 (size before relaxing)
 *fill*         0x001ff92b        0x1 
 .rodata.str1.4
                0x001ff92c       0x69 c:/devkitPro/portlibs/armv6k/lib\libz.a(zutil.o)
                                 0x8c (size before relaxing)
 .rodata.str1.4
                0x001ff995       0x54 c:/devkitPro/portlibs/armv6k/lib\libz.a(inffast.o)
 *fill*         0x001ff995        0x3 
 .rodata.str1.4
                0x001ff998        0xb c:/devkitPro/libctru/lib\libsf2d.a(sf2d.o)
                                  0xc (size before relaxing)
 *fill*         0x001ff9a3        0x1 
 .rodata.str1.4
                0x001ff9a4       0xe8 c:/devkitPro/libctru/lib\libctru.a(os.o)
                                 0xec (size before relaxing)
 .rodata.str1.4
                0x001ffa8c       0x2a c:/devkitPro/libctru/lib\libctru.a(romfs_dev.o)
                                 0x30 (size before relaxing)
 *fill*         0x001ffab6        0x2 
 .rodata.str1.4
                0x001ffab8        0xf c:/devkitPro/libctru/lib\libctru.a(srv.o)
                                 0x10 (size before relaxing)
 *fill*         0x001ffac7        0x1 
 .rodata.str1.4
                0x001ffac8       0x16 c:/devkitPro/libctru/lib\libctru.a(apt.o)
                                 0x18 (size before relaxing)
 *fill*         0x001ffade        0x2 
 .rodata.str1.4
                0x001ffae0       0x16 c:/devkitPro/libctru/lib\libctru.a(cfgu.o)
                                 0x18 (size before relaxing)
 *fill*         0x001ffaf6        0x2 
 .rodata.str1.4
                0x001ffaf8        0x9 c:/devkitPro/libctru/lib\libctru.a(csnd.o)
                                  0xc (size before relaxing)
 *fill*         0x001ffb01        0x3 
 .rodata.str1.4
                0x001ffb04        0x8 c:/devkitPro/libctru/lib\libctru.a(fs.o)
 .rodata.str1.4
                0x001ffb0c       0x15 c:/devkitPro/libctru/lib\libctru.a(gsp.o)
                                 0x18 (size before relaxing)
 *fill*         0x001ffb21        0x3 
 .rodata.str1.4
                0x001ffb24       0x15 c:/devkitPro/libctru/lib\libctru.a(hid.o)
                                 0x18 (size before relaxing)
 *fill*         0x001ffb39        0x3 
 .rodata.str1.4
                0x001ffb3c        0x7 c:/devkitPro/libctru/lib\libctru.a(irrst.o)
                                  0x8 (size before relaxing)
 *fill*         0x001ffb43        0x1 
 .rodata.str1.4
                0x001ffb44       0x11 c:/devkitPro/libctru/lib\libctru.a(ptm.o)
                                 0x14 (size before relaxing)
 *fill*         0x001ffb55        0x3 
 .rodata.str1.4
                0x001ffb58        0x5 c:/devkitPro/libctru/lib\libctru.a(sdmc_dev.o)
                                  0xc (size before relaxing)
 *fill*         0x001ffb5d        0x3 
 .rodata.str1.4
                0x001ffb60        0x4 c:/devkitpro/devkitarm/bin/../lib/gcc/arm-none-eabi/4.9.2/../../../../arm-none-eabi/lib/armv6k/fpu\libm.a(lib_a-w_pow.o)
 .rodata.npio2_hw
                0x001ffb64       0x80 c:/devkitpro/devkitarm/bin/../lib/gcc/arm-none-eabi/4.9.2/../../../../arm-none-eabi/lib/armv6k/fpu\libm.a(lib_a-ef_rem_pio2.o)
 .rodata.two_over_pi
                0x001ffbe4      0x318 c:/devkitpro/devkitarm/bin/../lib/gcc/arm-none-eabi/4.9.2/../../../../arm-none-eabi/lib/armv6k/fpu\libm.a(lib_a-ef_rem_pio2.o)
 *fill*         0x001ffefc        0x4 
 .rodata.dp_h   0x001fff00       0x10 c:/devkitpro/devkitarm/bin/../lib/gcc/arm-none-eabi/4.9.2/../../../../arm-none-eabi/lib/armv6k/fpu\libm.a(lib_a-e_pow.o)
 .rodata.dp_l   0x001fff10       0x10 c:/devkitpro/devkitarm/bin/../lib/gcc/arm-none-eabi/4.9.2/../../../../arm-none-eabi/lib/armv6k/fpu\libm.a(lib_a-e_pow.o)
 .rodata.bp     0x001fff20       0x10 c:/devkitpro/devkitarm/bin/../lib/gcc/arm-none-eabi/4.9.2/../../../../arm-none-eabi/lib/armv6k/fpu\libm.a(lib_a-e_pow.o)
 .rodata.str1.4
                0x001fff30        0x4 c:/devkitpro/devkitarm/bin/../lib/gcc/arm-none-eabi/4.9.2/../../../../arm-none-eabi/lib/armv6k/fpu\libm.a(lib_a-e_pow.o)
 .rodata.init_jk
                0x001fff30        0xc c:/devkitpro/devkitarm/bin/../lib/gcc/arm-none-eabi/4.9.2/../../../../arm-none-eabi/lib/armv6k/fpu\libm.a(lib_a-kf_rem_pio2.o)
 .rodata.PIo2   0x001fff3c       0x2c c:/devkitpro/devkitarm/bin/../lib/gcc/arm-none-eabi/4.9.2/../../../../arm-none-eabi/lib/armv6k/fpu\libm.a(lib_a-kf_rem_pio2.o)
 .rodata.TWO52  0x001fff68       0x10 c:/devkitpro/devkitarm/bin/../lib/gcc/arm-none-eabi/4.9.2/../../../../arm-none-eabi/lib/armv6k/fpu\libm.a(lib_a-s_rint.o)
 .rodata.str1.4
                0x001fff78        0x4 c:/devkitpro/devkitarm/bin/../lib/gcc/arm-none-eabi/4.9.2/../../../../arm-none-eabi/lib/armv6k/fpu\libg.a(lib_a-impure.o)
 .rodata._global_impure_ptr
                0x001fff78        0x4 c:/devkitpro/devkitarm/bin/../lib/gcc/arm-none-eabi/4.9.2/../../../../arm-none-eabi/lib/armv6k/fpu\libg.a(lib_a-impure.o)
                0x001fff78                _global_impure_ptr
 .rodata.__month_lengths
                0x001fff7c       0x60 c:/devkitpro/devkitarm/bin/../lib/gcc/arm-none-eabi/4.9.2/../../../../arm-none-eabi/lib/armv6k/fpu\libg.a(lib_a-month_lengths.o)
                0x001fff7c                __month_lengths
 .rodata.str1.4
                0x001fffdc      0x6fd c:/devkitpro/devkitarm/bin/../lib/gcc/arm-none-eabi/4.9.2/../../../../arm-none-eabi/lib/armv6k/fpu\libg.a(lib_a-strerror.o)
                                0x704 (size before relaxing)
 *fill*         0x002006d9        0x3 
 .rodata.fpinan.5303
                0x002006dc       0x14 c:/devkitpro/devkitarm/bin/../lib/gcc/arm-none-eabi/4.9.2/../../../../arm-none-eabi/lib/armv6k/fpu\libg.a(lib_a-strtod.o)
 .rodata.str1.4
                0x002006f0        0xf c:/devkitpro/devkitarm/bin/../lib/gcc/arm-none-eabi/4.9.2/../../../../arm-none-eabi/lib/armv6k/fpu\libg.a(lib_a-strtod.o)
                                 0x10 (size before relaxing)
 *fill*         0x002006ff        0x1 
 .rodata.tinytens
                0x00200700       0x28 c:/devkitpro/devkitarm/bin/../lib/gcc/arm-none-eabi/4.9.2/../../../../arm-none-eabi/lib/armv6k/fpu\libg.a(lib_a-strtod.o)
 .rodata.fpi.5267
                0x00200728       0x14 c:/devkitpro/devkitarm/bin/../lib/gcc/arm-none-eabi/4.9.2/../../../../arm-none-eabi/lib/armv6k/fpu\libg.a(lib_a-strtod.o)
 .rodata.zeroes.7037
                0x0020073c       0x10 c:/devkitpro/devkitarm/bin/../lib/gcc/arm-none-eabi/4.9.2/../../../../arm-none-eabi/lib/armv6k/fpu\libg.a(lib_a-svfprintf.o)
 .rodata.str1.4
                0x0020074c       0x3f c:/devkitpro/devkitarm/bin/../lib/gcc/arm-none-eabi/4.9.2/../../../../arm-none-eabi/lib/armv6k/fpu\libg.a(lib_a-svfprintf.o)
                                 0x44 (size before relaxing)
 *fill*         0x0020078b        0x1 
 .rodata.blanks.7036
                0x0020078c       0x10 c:/devkitpro/devkitarm/bin/../lib/gcc/arm-none-eabi/4.9.2/../../../../arm-none-eabi/lib/armv6k/fpu\libg.a(lib_a-svfprintf.o)
 .rodata.zeroes.7052
                0x0020079c       0x10 c:/devkitpro/devkitarm/bin/../lib/gcc/arm-none-eabi/4.9.2/../../../../arm-none-eabi/lib/armv6k/fpu\libg.a(lib_a-vfprintf.o)
 .rodata.str1.4
                0x002007ac       0x44 c:/devkitpro/devkitarm/bin/../lib/gcc/arm-none-eabi/4.9.2/../../../../arm-none-eabi/lib/armv6k/fpu\libg.a(lib_a-vfprintf.o)
 .rodata.blanks.7051
                0x002007ac       0x10 c:/devkitpro/devkitarm/bin/../lib/gcc/arm-none-eabi/4.9.2/../../../../arm-none-eabi/lib/armv6k/fpu\libg.a(lib_a-vfprintf.o)
 .rodata._ctype_
                0x002007bc      0x104 c:/devkitpro/devkitarm/bin/../lib/gcc/arm-none-eabi/4.9.2/../../../../arm-none-eabi/lib/armv6k/fpu\libg.a(lib_a-ctype_.o)
                0x002007bc                _ctype_
 .rodata.str1.4
                0x002008c0       0x10 c:/devkitpro/devkitarm/bin/../lib/gcc/arm-none-eabi/4.9.2/../../../../arm-none-eabi/lib/armv6k/fpu\libg.a(lib_a-dtoa.o)
                                 0x14 (size before relaxing)
 .rodata.__hexdig
                0x002008d0      0x100 c:/devkitpro/devkitarm/bin/../lib/gcc/arm-none-eabi/4.9.2/../../../../arm-none-eabi/lib/armv6k/fpu\libg.a(lib_a-gdtoa-gethex.o)
                0x002008d0                __hexdig
 .rodata.str1.4
                0x002009d0      0x118 c:/devkitpro/devkitarm/bin/../lib/gcc/arm-none-eabi/4.9.2/../../../../arm-none-eabi/lib/armv6k/fpu\libg.a(lib_a-locale.o)
                                0x130 (size before relaxing)
 .rodata.categories
                0x00200ae8       0x1c c:/devkitpro/devkitarm/bin/../lib/gcc/arm-none-eabi/4.9.2/../../../../arm-none-eabi/lib/armv6k/fpu\libg.a(lib_a-locale.o)
 .rodata.JIS_state_table
                0x00200b04       0x48 c:/devkitpro/devkitarm/bin/../lib/gcc/arm-none-eabi/4.9.2/../../../../arm-none-eabi/lib/armv6k/fpu\libg.a(lib_a-mbtowc_r.o)
 .rodata.JIS_action_table
                0x00200b4c       0x48 c:/devkitpro/devkitarm/bin/../lib/gcc/arm-none-eabi/4.9.2/../../../../arm-none-eabi/lib/armv6k/fpu\libg.a(lib_a-mbtowc_r.o)
 .rodata.p05.5298
                0x00200b94        0xc c:/devkitpro/devkitarm/bin/../lib/gcc/arm-none-eabi/4.9.2/../../../../arm-none-eabi/lib/armv6k/fpu\libg.a(lib_a-mprec.o)
 .rodata.__mprec_tens
                0x00200ba0       0xc8 c:/devkitpro/devkitarm/bin/../lib/gcc/arm-none-eabi/4.9.2/../../../../arm-none-eabi/lib/armv6k/fpu\libg.a(lib_a-mprec.o)
                0x00200ba0                __mprec_tens
 .rodata.__mprec_bigtens
                0x00200c68       0x28 c:/devkitpro/devkitarm/bin/../lib/gcc/arm-none-eabi/4.9.2/../../../../arm-none-eabi/lib/armv6k/fpu\libg.a(lib_a-mprec.o)
                0x00200c68                __mprec_bigtens
 .rodata.__mprec_tinytens
                0x00200c90       0x28 c:/devkitpro/devkitarm/bin/../lib/gcc/arm-none-eabi/4.9.2/../../../../arm-none-eabi/lib/armv6k/fpu\libg.a(lib_a-mprec.o)
                0x00200c90                __mprec_tinytens
 .rodata.__state_table
                0x00200cb8       0x6c c:/devkitpro/devkitarm/bin/../lib/gcc/arm-none-eabi/4.9.2/../../../../arm-none-eabi/lib/armv6k/fpu\libg.a(lib_a-svfiprintf.o)
                0x00200cb8                __state_table
 .rodata.blanks.7015
                0x00200d24       0x10 c:/devkitpro/devkitarm/bin/../lib/gcc/arm-none-eabi/4.9.2/../../../../arm-none-eabi/lib/armv6k/fpu\libg.a(lib_a-svfiprintf.o)
 .rodata.__chclass
                0x00200d34      0x100 c:/devkitpro/devkitarm/bin/../lib/gcc/arm-none-eabi/4.9.2/../../../../arm-none-eabi/lib/armv6k/fpu\libg.a(lib_a-svfiprintf.o)
                0x00200d34                __chclass
 .rodata.str1.4
                0x00200e34       0x30 c:/devkitpro/devkitarm/bin/../lib/gcc/arm-none-eabi/4.9.2/../../../../arm-none-eabi/lib/armv6k/fpu\libg.a(lib_a-svfiprintf.o)
 .rodata.__action_table
                0x00200e34       0x6c c:/devkitpro/devkitarm/bin/../lib/gcc/arm-none-eabi/4.9.2/../../../../arm-none-eabi/lib/armv6k/fpu\libg.a(lib_a-svfiprintf.o)
                0x00200e34                __action_table
 .rodata.zeroes.7016
                0x00200ea0       0x10 c:/devkitpro/devkitarm/bin/../lib/gcc/arm-none-eabi/4.9.2/../../../../arm-none-eabi/lib/armv6k/fpu\libg.a(lib_a-svfiprintf.o)
 .rodata.zeroes.6918
                0x00200eb0       0x40 c:/devkitpro/devkitarm/bin/../lib/gcc/arm-none-eabi/4.9.2/../../../../arm-none-eabi/lib/armv6k/fpu\libg.a(lib_a-svfwprintf.o)
 .rodata.blanks.6917
                0x00200ef0       0x40 c:/devkitpro/devkitarm/bin/../lib/gcc/arm-none-eabi/4.9.2/../../../../arm-none-eabi/lib/armv6k/fpu\libg.a(lib_a-svfwprintf.o)
 .rodata.str4.4
                0x00200f30       0xec c:/devkitpro/devkitarm/bin/../lib/gcc/arm-none-eabi/4.9.2/../../../../arm-none-eabi/lib/armv6k/fpu\libg.a(lib_a-svfwprintf.o)
 .rodata.zeroes.7030
                0x0020101c       0x10 c:/devkitpro/devkitarm/bin/../lib/gcc/arm-none-eabi/4.9.2/../../../../arm-none-eabi/lib/armv6k/fpu\libg.a(lib_a-vfiprintf.o)
 .rodata.str1.4
                0x0020102c       0x30 c:/devkitpro/devkitarm/bin/../lib/gcc/arm-none-eabi/4.9.2/../../../../arm-none-eabi/lib/armv6k/fpu\libg.a(lib_a-vfiprintf.o)
 .rodata.blanks.7029
                0x0020102c       0x10 c:/devkitpro/devkitarm/bin/../lib/gcc/arm-none-eabi/4.9.2/../../../../arm-none-eabi/lib/armv6k/fpu\libg.a(lib_a-vfiprintf.o)
 .rodata.str1.4
                0x0020103c        0x4 c:/devkitpro/devkitarm/bin/../lib/gcc/arm-none-eabi/4.9.2/../../../../arm-none-eabi/lib/armv6k/fpu\libg.a(lib_a-mbrtowc.o)
 .rodata.str1.4
                0x0020103c        0x8 c:/devkitpro/devkitarm/bin/../lib/gcc/arm-none-eabi/4.9.2/../../../../arm-none-eabi/lib/armv6k/fpu\libsysbase.a(iosupport.o)
 *all.rodata*(*)
 *(.gnu.linkonce.r*)
                0x0020105c                . = ALIGN (0x4)

.rel.dyn        0x00201044        0x0
 .rel.iplt      0x00201044        0x0 c:/devkitpro/devkitarm/bin/../lib/gcc/arm-none-eabi/4.9.2/../../../../arm-none-eabi/lib/armv6k/fpu/3dsx_crt0.o

.ARM.extab
 *(.ARM.extab* .gnu.linkonce.armextab.*)
                0x00201044                __exidx_start = .

ARM.exidx
 *(.ARM.exidx* .gnu.linkonce.armexidx.*)
                0x00201044                __exidx_end = .

.data           0x00202000     0x40c0
 *(.data)
 .data          0x00202000        0x0 c:/devkitpro/devkitarm/bin/../lib/gcc/arm-none-eabi/4.9.2/../../../../arm-none-eabi/lib/armv6k/fpu/3dsx_crt0.o
 .data          0x00202000        0x0 c:/devkitpro/devkitarm/bin/../lib/gcc/arm-none-eabi/4.9.2/armv6k/fpu/crti.o
 .data          0x00202000        0x4 c:/devkitpro/devkitarm/bin/../lib/gcc/arm-none-eabi/4.9.2/armv6k/fpu/crtbegin.o
                0x00202000                __dso_handle
 .data          0x00202004        0x0 eightbit.ttf.o
 .data          0x00202004        0x0 friskBack0.png.o
 .data          0x00202004        0x0 friskBack1.png.o
 .data          0x00202004        0x0 friskBack2.png.o
 .data          0x00202004        0x0 friskBack3.png.o
 .data          0x00202004        0x0 friskFace0.png.o
 .data          0x00202004        0x0 friskFace1.png.o
 .data          0x00202004        0x0 friskFace2.png.o
 .data          0x00202004        0x0 friskFace3.png.o
 .data          0x00202004        0x0 friskLeft0.png.o
 .data          0x00202004        0x0 friskLeft1.png.o
 .data          0x00202004        0x0 friskRight0.png.o
 .data          0x00202004        0x0 friskRight1.png.o
 .data          0x00202004        0x0 torielHouse-old.png.o
 .data          0x00202004        0x0 torielHouse1.png.o
 .data          0x00202004        0x0 torielHouse2.png.o
 .data          0x00202004        0x0 torielHouse3.png.o
 .data          0x00202004        0x0 torielHouse4.png.o
 .data          0x00202004        0x0 torielHouse5.png.o
 .data          0x00202004        0x0 torielHouse6.png.o
 .data          0x00202004        0x4 main.o
                0x00202004                room
 .data          0x00202008        0x0 c:/devkitPro/libctru/lib\libsfil.a(sfil_png.o)
 .data          0x00202008        0x0 c:/devkitPro/portlibs/armv6k/lib\libpng.a(png.o)
 .data          0x00202008        0x0 c:/devkitPro/portlibs/armv6k/lib\libpng.a(pngerror.o)
 .data          0x00202008        0x0 c:/devkitPro/portlibs/armv6k/lib\libpng.a(pngget.o)
 .data          0x00202008        0x0 c:/devkitPro/portlibs/armv6k/lib\libpng.a(pngmem.o)
 .data          0x00202008        0x0 c:/devkitPro/portlibs/armv6k/lib\libpng.a(pngread.o)
 .data          0x00202008        0x0 c:/devkitPro/portlibs/armv6k/lib\libpng.a(pngrio.o)
 .data          0x00202008        0x0 c:/devkitPro/portlibs/armv6k/lib\libpng.a(pngrtran.o)
 .data          0x00202008        0x0 c:/devkitPro/portlibs/armv6k/lib\libpng.a(pngrutil.o)
 .data          0x00202008        0x0 c:/devkitPro/portlibs/armv6k/lib\libpng.a(pngset.o)
 .data          0x00202008        0x0 c:/devkitPro/portlibs/armv6k/lib\libpng.a(pngtrans.o)
 .data          0x00202008        0x0 c:/devkitPro/portlibs/armv6k/lib\libpng.a(pngwrite.o)
 .data          0x00202008        0x0 c:/devkitPro/portlibs/armv6k/lib\libpng.a(pngwtran.o)
 .data          0x00202008        0x0 c:/devkitPro/portlibs/armv6k/lib\libpng.a(pngwutil.o)
 .data          0x00202008        0x0 c:/devkitPro/portlibs/armv6k/lib\libpng.a(pngwio.o)
 .data          0x00202008        0x0 c:/devkitPro/libctru/lib\libsftd.a(sftd.o)
 .data          0x00202008        0x0 c:/devkitPro/libctru/lib\libsftd.a(texture_atlas.o)
 .data          0x00202008        0x0 c:/devkitPro/libctru/lib\libsftd.a(bin_packing_2d.o)
 .data          0x00202008        0x0 c:/devkitPro/libctru/lib\libsftd.a(int_htab.o)
 .data          0x00202008        0x0 c:/devkitPro/portlibs/armv6k/lib\libfreetype.a(ftinit.o)
 .data          0x00202008        0x0 c:/devkitPro/portlibs/armv6k/lib\libfreetype.a(ftbase.o)
 .data          0x00202008        0x0 c:/devkitPro/portlibs/armv6k/lib\libfreetype.a(truetype.o)
 .data          0x00202008        0x0 c:/devkitPro/portlibs/armv6k/lib\libfreetype.a(type1.o)
 .data          0x00202008        0x0 c:/devkitPro/portlibs/armv6k/lib\libfreetype.a(cff.o)
 .data          0x00202008        0x0 c:/devkitPro/portlibs/armv6k/lib\libfreetype.a(type1cid.o)
 .data          0x00202008        0x0 c:/devkitPro/portlibs/armv6k/lib\libfreetype.a(pfr.o)
 .data          0x00202008        0x0 c:/devkitPro/portlibs/armv6k/lib\libfreetype.a(type42.o)
 .data          0x00202008        0x0 c:/devkitPro/portlibs/armv6k/lib\libfreetype.a(winfnt.o)
 .data          0x00202008        0x0 c:/devkitPro/portlibs/armv6k/lib\libfreetype.a(pcf.o)
 .data          0x00202008        0x0 c:/devkitPro/portlibs/armv6k/lib\libfreetype.a(bdf.o)
 .data          0x00202008        0x0 c:/devkitPro/portlibs/armv6k/lib\libfreetype.a(sfnt.o)
 .data          0x00202008        0x0 c:/devkitPro/portlibs/armv6k/lib\libfreetype.a(autofit.o)
 .data          0x00202008        0x0 c:/devkitPro/portlibs/armv6k/lib\libfreetype.a(pshinter.o)
 .data          0x00202008        0x0 c:/devkitPro/portlibs/armv6k/lib\libfreetype.a(raster.o)
 .data          0x00202008        0x0 c:/devkitPro/portlibs/armv6k/lib\libfreetype.a(smooth.o)
 .data          0x00202008        0x0 c:/devkitPro/portlibs/armv6k/lib\libfreetype.a(ftcache.o)
 .data          0x00202008        0x0 c:/devkitPro/portlibs/armv6k/lib\libfreetype.a(ftgzip.o)
 .data          0x00202008        0x0 c:/devkitPro/portlibs/armv6k/lib\libfreetype.a(ftlzw.o)
 .data          0x00202008        0x0 c:/devkitPro/portlibs/armv6k/lib\libfreetype.a(psaux.o)
 .data          0x00202008        0x0 c:/devkitPro/portlibs/armv6k/lib\libfreetype.a(psnames.o)
 .data          0x00202008        0x0 c:/devkitPro/portlibs/armv6k/lib\libfreetype.a(ftsystem.o)
 .data          0x00202008        0x0 c:/devkitPro/portlibs/armv6k/lib\libfreetype.a(ftbitmap.o)
 .data          0x00202008        0x0 c:/devkitPro/portlibs/armv6k/lib\libfreetype.a(ftglyph.o)
 .data          0x00202008        0x0 c:/devkitPro/portlibs/armv6k/lib\libz.a(adler32.o)
 .data          0x00202008        0x0 c:/devkitPro/portlibs/armv6k/lib\libz.a(crc32.o)
 .data          0x00202008        0x0 c:/devkitPro/portlibs/armv6k/lib\libz.a(deflate.o)
 .data          0x00202008        0x0 c:/devkitPro/portlibs/armv6k/lib\libz.a(inflate.o)
 .data          0x00202008        0x0 c:/devkitPro/portlibs/armv6k/lib\libz.a(inftrees.o)
 .data          0x00202008       0x3c c:/devkitPro/portlibs/armv6k/lib\libz.a(trees.o)
 .data          0x00202044        0x0 c:/devkitPro/portlibs/armv6k/lib\libz.a(zutil.o)
 .data          0x00202044        0x0 c:/devkitPro/portlibs/armv6k/lib\libz.a(inffast.o)
 .data          0x00202044        0xc c:/devkitPro/libctru/lib\libsf2d.a(sf2d.o)
 .data          0x00202050        0x0 c:/devkitPro/libctru/lib\libsf2d.a(sf2d_private.o)
 .data          0x00202050        0x0 c:/devkitPro/libctru/lib\libsf2d.a(sf2d_texture.o)
 .data          0x00202050        0x0 c:/devkitPro/libctru/lib\libsf2d.a(shader.vsh.o)
 .data          0x00202050        0x0 c:/devkitPro/libctru/lib\libctru.a(linear.o)
 .data          0x00202050        0x0 c:/devkitPro/libctru/lib\libctru.a(mem_pool.o)
 .data          0x00202050        0x0 c:/devkitPro/libctru/lib\libctru.a(vram.o)
 .data          0x00202050        0xc c:/devkitPro/libctru/lib\libctru.a(gfx.o)
 .data          0x0020205c        0x0 c:/devkitPro/libctru/lib\libctru.a(os.o)
 .data          0x0020205c       0x68 c:/devkitPro/libctru/lib\libctru.a(romfs_dev.o)
 .data          0x002020c4        0x0 c:/devkitPro/libctru/lib\libctru.a(srv.o)
 .data          0x002020c4        0x0 c:/devkitPro/libctru/lib\libctru.a(gpu.o)
 .data          0x002020c4      0x53c c:/devkitPro/libctru/lib\libctru.a(gpuResetSequence.o)
                0x002020c4                gpuResetSequenceLength
                0x002020c8                gpuResetSequence
 .data          0x00202600        0x0 c:/devkitPro/libctru/lib\libctru.a(shaderProgram.o)
 .data          0x00202600        0x0 c:/devkitPro/libctru/lib\libctru.a(shbin.o)
 .data          0x00202600        0x0 c:/devkitPro/libctru/lib\libctru.a(apt.o)
 .data          0x00202600        0x0 c:/devkitPro/libctru/lib\libctru.a(cfgu.o)
 .data          0x00202600        0x0 c:/devkitPro/libctru/lib\libctru.a(csnd.o)
 .data          0x00202600        0x0 c:/devkitPro/libctru/lib\libctru.a(fs.o)
 .data          0x00202600        0x0 c:/devkitPro/libctru/lib\libctru.a(gsp.o)
 .data          0x00202600        0x0 c:/devkitPro/libctru/lib\libctru.a(gx.o)
 .data          0x00202600        0x0 c:/devkitPro/libctru/lib\libctru.a(hid.o)
 .data          0x00202600        0x0 c:/devkitPro/libctru/lib\libctru.a(irrst.o)
 .data          0x00202600        0x0 c:/devkitPro/libctru/lib\libctru.a(ptm.o)
 .data          0x00202600        0x0 c:/devkitPro/libctru/lib\libctru.a(rbtree_find.o)
 .data          0x00202600        0x0 c:/devkitPro/libctru/lib\libctru.a(rbtree_init.o)
 .data          0x00202600        0x0 c:/devkitPro/libctru/lib\libctru.a(rbtree_insert.o)
 .data          0x00202600        0x0 c:/devkitPro/libctru/lib\libctru.a(rbtree_remove.o)
 .data          0x00202600        0x0 c:/devkitPro/libctru/lib\libctru.a(rbtree_rotate.o)
 .data          0x00202600        0x0 c:/devkitPro/libctru/lib\libctru.a(utf8_to_utf16.o)
 .data          0x00202600        0x0 c:/devkitPro/libctru/lib\libctru.a(allocateHeaps.o)
 .data          0x00202600        0x0 c:/devkitPro/libctru/lib\libctru.a(initArgv.o)
 .data          0x00202600        0x0 c:/devkitPro/libctru/lib\libctru.a(initSystem.o)
 .data          0x00202600        0x0 c:/devkitPro/libctru/lib\libctru.a(svc.o)
 .data          0x00202600        0x4 c:/devkitPro/libctru/lib\libctru.a(stack_adjust.o)
                0x00202600                __stacksize__
 .data          0x00202604        0x0 c:/devkitPro/libctru/lib\libctru.a(mappable.o)
 .data          0x00202604        0x0 c:/devkitPro/libctru/lib\libctru.a(rbtree_iterator.o)
 .data          0x00202604        0x0 c:/devkitPro/libctru/lib\libctru.a(decode_utf8.o)
 .data          0x00202604        0x0 c:/devkitPro/libctru/lib\libctru.a(encode_utf16.o)
 .data          0x00202604        0x0 c:/devkitPro/libctru/lib\libctru.a(appExit.o)
 .data          0x00202604        0x0 c:/devkitPro/libctru/lib\libctru.a(appInit.o)
 .data          0x00202604        0x0 c:/devkitPro/libctru/lib\libctru.a(ctru_exit.o)
 .data          0x00202604     0x1084 c:/devkitPro/libctru/lib\libctru.a(sdmc_dev.o)
 .data          0x00203688        0x0 c:/devkitPro/libctru/lib\libctru.a(utf16_to_utf8.o)
 .data          0x00203688        0x0 c:/devkitPro/libctru/lib\libctru.a(decode_utf16.o)
 .data          0x00203688        0x0 c:/devkitPro/libctru/lib\libctru.a(encode_utf8.o)
 .data          0x00203688        0x0 c:/devkitpro/devkitarm/bin/../lib/gcc/arm-none-eabi/4.9.2/../../../../arm-none-eabi/lib/armv6k/fpu\libm.a(lib_a-sf_cos.o)
 .data          0x00203688        0x0 c:/devkitpro/devkitarm/bin/../lib/gcc/arm-none-eabi/4.9.2/../../../../arm-none-eabi/lib/armv6k/fpu\libm.a(lib_a-s_floor.o)
 .data          0x00203688        0x0 c:/devkitpro/devkitarm/bin/../lib/gcc/arm-none-eabi/4.9.2/../../../../arm-none-eabi/lib/armv6k/fpu\libm.a(lib_a-s_frexp.o)
 .data          0x00203688        0x0 c:/devkitpro/devkitarm/bin/../lib/gcc/arm-none-eabi/4.9.2/../../../../arm-none-eabi/lib/armv6k/fpu\libm.a(lib_a-sf_sin.o)
 .data          0x00203688        0x0 c:/devkitpro/devkitarm/bin/../lib/gcc/arm-none-eabi/4.9.2/../../../../arm-none-eabi/lib/armv6k/fpu\libm.a(lib_a-s_modf.o)
 .data          0x00203688        0x0 c:/devkitpro/devkitarm/bin/../lib/gcc/arm-none-eabi/4.9.2/../../../../arm-none-eabi/lib/armv6k/fpu\libm.a(lib_a-w_pow.o)
 .data          0x00203688        0x0 c:/devkitpro/devkitarm/bin/../lib/gcc/arm-none-eabi/4.9.2/../../../../arm-none-eabi/lib/armv6k/fpu\libm.a(lib_a-ef_rem_pio2.o)
 .data          0x00203688        0x0 c:/devkitpro/devkitarm/bin/../lib/gcc/arm-none-eabi/4.9.2/../../../../arm-none-eabi/lib/armv6k/fpu\libm.a(lib_a-e_pow.o)
 .data          0x00203688        0x0 c:/devkitpro/devkitarm/bin/../lib/gcc/arm-none-eabi/4.9.2/../../../../arm-none-eabi/lib/armv6k/fpu\libm.a(lib_a-e_sqrt.o)
 .data          0x00203688        0x0 c:/devkitpro/devkitarm/bin/../lib/gcc/arm-none-eabi/4.9.2/../../../../arm-none-eabi/lib/armv6k/fpu\libm.a(lib_a-kf_cos.o)
 .data          0x00203688        0x0 c:/devkitpro/devkitarm/bin/../lib/gcc/arm-none-eabi/4.9.2/../../../../arm-none-eabi/lib/armv6k/fpu\libm.a(lib_a-kf_rem_pio2.o)
 .data          0x00203688        0x0 c:/devkitpro/devkitarm/bin/../lib/gcc/arm-none-eabi/4.9.2/../../../../arm-none-eabi/lib/armv6k/fpu\libm.a(lib_a-kf_sin.o)
 .data          0x00203688        0x0 c:/devkitpro/devkitarm/bin/../lib/gcc/arm-none-eabi/4.9.2/../../../../arm-none-eabi/lib/armv6k/fpu\libm.a(lib_a-s_fabs.o)
 .data          0x00203688        0x0 c:/devkitpro/devkitarm/bin/../lib/gcc/arm-none-eabi/4.9.2/../../../../arm-none-eabi/lib/armv6k/fpu\libm.a(lib_a-sf_fabs.o)
 .data          0x00203688        0x0 c:/devkitpro/devkitarm/bin/../lib/gcc/arm-none-eabi/4.9.2/../../../../arm-none-eabi/lib/armv6k/fpu\libm.a(lib_a-sf_floor.o)
 .data          0x00203688        0x0 c:/devkitpro/devkitarm/bin/../lib/gcc/arm-none-eabi/4.9.2/../../../../arm-none-eabi/lib/armv6k/fpu\libm.a(lib_a-s_finite.o)
 .data          0x00203688        0x0 c:/devkitpro/devkitarm/bin/../lib/gcc/arm-none-eabi/4.9.2/../../../../arm-none-eabi/lib/armv6k/fpu\libm.a(lib_a-s_fpclassify.o)
 .data          0x00203688        0x0 c:/devkitpro/devkitarm/bin/../lib/gcc/arm-none-eabi/4.9.2/../../../../arm-none-eabi/lib/armv6k/fpu\libm.a(lib_a-sf_scalbn.o)
 .data          0x00203688        0x0 c:/devkitpro/devkitarm/bin/../lib/gcc/arm-none-eabi/4.9.2/../../../../arm-none-eabi/lib/armv6k/fpu\libm.a(lib_a-s_lib_ver.o)
 .data          0x00203688        0x0 c:/devkitpro/devkitarm/bin/../lib/gcc/arm-none-eabi/4.9.2/../../../../arm-none-eabi/lib/armv6k/fpu\libm.a(lib_a-s_matherr.o)
 .data          0x00203688        0x0 c:/devkitpro/devkitarm/bin/../lib/gcc/arm-none-eabi/4.9.2/../../../../arm-none-eabi/lib/armv6k/fpu\libm.a(lib_a-s_nan.o)
 .data          0x00203688        0x0 c:/devkitpro/devkitarm/bin/../lib/gcc/arm-none-eabi/4.9.2/../../../../arm-none-eabi/lib/armv6k/fpu\libm.a(lib_a-s_rint.o)
 .data          0x00203688        0x0 c:/devkitpro/devkitarm/bin/../lib/gcc/arm-none-eabi/4.9.2/../../../../arm-none-eabi/lib/armv6k/fpu\libm.a(lib_a-s_scalbn.o)
 .data          0x00203688        0x0 c:/devkitpro/devkitarm/bin/../lib/gcc/arm-none-eabi/4.9.2/../../../../arm-none-eabi/lib/armv6k/fpu\libm.a(lib_a-s_copysign.o)
 .data          0x00203688        0x0 c:/devkitpro/devkitarm/bin/../lib/gcc/arm-none-eabi/4.9.2/../../../../arm-none-eabi/lib/armv6k/fpu\libm.a(lib_a-sf_copysign.o)
 .data          0x00203688        0x0 c:/devkitpro/devkitarm/bin/../lib/gcc/arm-none-eabi/4.9.2/armv6k/fpu\libgcc.a(_udivsi3.o)
 .data          0x00203688        0x0 c:/devkitpro/devkitarm/bin/../lib/gcc/arm-none-eabi/4.9.2/armv6k/fpu\libgcc.a(_divsi3.o)
 .data          0x00203688        0x0 c:/devkitpro/devkitarm/bin/../lib/gcc/arm-none-eabi/4.9.2/armv6k/fpu\libgcc.a(_dvmd_tls.o)
 .data          0x00203688        0x0 c:/devkitpro/devkitarm/bin/../lib/gcc/arm-none-eabi/4.9.2/armv6k/fpu\libgcc.a(_arm_addsubsf3.o)
 .data          0x00203688        0x0 c:/devkitpro/devkitarm/bin/../lib/gcc/arm-none-eabi/4.9.2/armv6k/fpu\libgcc.a(_popcountsi2.o)
 .data          0x00203688        0x0 c:/devkitpro/devkitarm/bin/../lib/gcc/arm-none-eabi/4.9.2/../../../../arm-none-eabi/lib/armv6k/fpu\libg.a(lib_a-abort.o)
 .data          0x00203688        0x0 c:/devkitpro/devkitarm/bin/../lib/gcc/arm-none-eabi/4.9.2/../../../../arm-none-eabi/lib/armv6k/fpu\libg.a(lib_a-atof.o)
 .data          0x00203688        0x0 c:/devkitpro/devkitarm/bin/../lib/gcc/arm-none-eabi/4.9.2/../../../../arm-none-eabi/lib/armv6k/fpu\libg.a(lib_a-atol.o)
 .data          0x00203688        0x0 c:/devkitpro/devkitarm/bin/../lib/gcc/arm-none-eabi/4.9.2/../../../../arm-none-eabi/lib/armv6k/fpu\libg.a(lib_a-bsearch.o)
 .data          0x00203688        0x0 c:/devkitpro/devkitarm/bin/../lib/gcc/arm-none-eabi/4.9.2/../../../../arm-none-eabi/lib/armv6k/fpu\libg.a(lib_a-errno.o)
 .data          0x00203688        0x0 c:/devkitpro/devkitarm/bin/../lib/gcc/arm-none-eabi/4.9.2/../../../../arm-none-eabi/lib/armv6k/fpu\libg.a(lib_a-fclose.o)
 .data          0x00203688        0x0 c:/devkitpro/devkitarm/bin/../lib/gcc/arm-none-eabi/4.9.2/../../../../arm-none-eabi/lib/armv6k/fpu\libg.a(lib_a-fflush.o)
 .data          0x00203688        0x0 c:/devkitpro/devkitarm/bin/../lib/gcc/arm-none-eabi/4.9.2/../../../../arm-none-eabi/lib/armv6k/fpu\libg.a(lib_a-findfp.o)
 .data          0x00203688        0x0 c:/devkitpro/devkitarm/bin/../lib/gcc/arm-none-eabi/4.9.2/../../../../arm-none-eabi/lib/armv6k/fpu\libg.a(lib_a-fini.o)
 .data          0x00203688        0x0 c:/devkitpro/devkitarm/bin/../lib/gcc/arm-none-eabi/4.9.2/../../../../arm-none-eabi/lib/armv6k/fpu\libg.a(lib_a-fopen.o)
 .data          0x00203688        0x0 c:/devkitpro/devkitarm/bin/../lib/gcc/arm-none-eabi/4.9.2/../../../../arm-none-eabi/lib/armv6k/fpu\libg.a(lib_a-fprintf.o)
 .data          0x00203688        0x0 c:/devkitpro/devkitarm/bin/../lib/gcc/arm-none-eabi/4.9.2/../../../../arm-none-eabi/lib/armv6k/fpu\libg.a(lib_a-fputc.o)
 .data          0x00203688        0x0 c:/devkitpro/devkitarm/bin/../lib/gcc/arm-none-eabi/4.9.2/../../../../arm-none-eabi/lib/armv6k/fpu\libg.a(lib_a-fread.o)
 .data          0x00203688        0x0 c:/devkitpro/devkitarm/bin/../lib/gcc/arm-none-eabi/4.9.2/../../../../arm-none-eabi/lib/armv6k/fpu\libg.a(lib_a-freer.o)
 .data          0x00203688        0x0 c:/devkitpro/devkitarm/bin/../lib/gcc/arm-none-eabi/4.9.2/../../../../arm-none-eabi/lib/armv6k/fpu\libg.a(lib_a-fseek.o)
 .data          0x00203688        0x0 c:/devkitpro/devkitarm/bin/../lib/gcc/arm-none-eabi/4.9.2/../../../../arm-none-eabi/lib/armv6k/fpu\libg.a(lib_a-fseeko.o)
 .data          0x00203688        0x0 c:/devkitpro/devkitarm/bin/../lib/gcc/arm-none-eabi/4.9.2/../../../../arm-none-eabi/lib/armv6k/fpu\libg.a(lib_a-ftell.o)
 .data          0x00203688        0x0 c:/devkitpro/devkitarm/bin/../lib/gcc/arm-none-eabi/4.9.2/../../../../arm-none-eabi/lib/armv6k/fpu\libg.a(lib_a-ftello.o)
 .data          0x00203688        0x0 c:/devkitpro/devkitarm/bin/../lib/gcc/arm-none-eabi/4.9.2/../../../../arm-none-eabi/lib/armv6k/fpu\libg.a(lib_a-fwalk.o)
 .data          0x00203688        0x0 c:/devkitpro/devkitarm/bin/../lib/gcc/arm-none-eabi/4.9.2/../../../../arm-none-eabi/lib/armv6k/fpu\libg.a(lib_a-fwrite.o)
 .data          0x00203688        0x0 c:/devkitpro/devkitarm/bin/../lib/gcc/arm-none-eabi/4.9.2/../../../../arm-none-eabi/lib/armv6k/fpu\libg.a(lib_a-gmtime.o)
 .data          0x00203688        0x0 c:/devkitpro/devkitarm/bin/../lib/gcc/arm-none-eabi/4.9.2/../../../../arm-none-eabi/lib/armv6k/fpu\libg.a(lib_a-gmtime_r.o)
 .data          0x00203688        0x0 c:/devkitpro/devkitarm/bin/../lib/gcc/arm-none-eabi/4.9.2/../../../../arm-none-eabi/lib/armv6k/fpu\libg.a(lib_a-impure.o)
 .data          0x00203688        0x0 c:/devkitpro/devkitarm/bin/../lib/gcc/arm-none-eabi/4.9.2/../../../../arm-none-eabi/lib/armv6k/fpu\libg.a(lib_a-init.o)
 .data          0x00203688        0x0 c:/devkitpro/devkitarm/bin/../lib/gcc/arm-none-eabi/4.9.2/../../../../arm-none-eabi/lib/armv6k/fpu\libg.a(lib_a-makebuf.o)
 .data          0x00203688        0x0 c:/devkitpro/devkitarm/bin/../lib/gcc/arm-none-eabi/4.9.2/../../../../arm-none-eabi/lib/armv6k/fpu\libg.a(lib_a-malloc.o)
 .data          0x00203688        0x0 c:/devkitpro/devkitarm/bin/../lib/gcc/arm-none-eabi/4.9.2/../../../../arm-none-eabi/lib/armv6k/fpu\libg.a(lib_a-mallocr.o)
 .data          0x00203688        0x0 c:/devkitpro/devkitarm/bin/../lib/gcc/arm-none-eabi/4.9.2/../../../../arm-none-eabi/lib/armv6k/fpu\libg.a(lib_a-memchr.o)
 .data          0x00203688        0x0 c:/devkitpro/devkitarm/bin/../lib/gcc/arm-none-eabi/4.9.2/../../../../arm-none-eabi/lib/armv6k/fpu\libg.a(lib_a-memcmp.o)
 .data          0x00203688        0x0 c:/devkitpro/devkitarm/bin/../lib/gcc/arm-none-eabi/4.9.2/../../../../arm-none-eabi/lib/armv6k/fpu\libg.a(lib_a-memcpy.o)
 .data          0x00203688        0x0 c:/devkitpro/devkitarm/bin/../lib/gcc/arm-none-eabi/4.9.2/../../../../arm-none-eabi/lib/armv6k/fpu\libg.a(lib_a-memmove.o)
 .data          0x00203688        0x0 c:/devkitpro/devkitarm/bin/../lib/gcc/arm-none-eabi/4.9.2/../../../../arm-none-eabi/lib/armv6k/fpu\libg.a(lib_a-memset.o)
 .data          0x00203688        0x0 c:/devkitpro/devkitarm/bin/../lib/gcc/arm-none-eabi/4.9.2/../../../../arm-none-eabi/lib/armv6k/fpu\libg.a(lib_a-mlock.o)
 .data          0x00203688        0x0 c:/devkitpro/devkitarm/bin/../lib/gcc/arm-none-eabi/4.9.2/../../../../arm-none-eabi/lib/armv6k/fpu\libg.a(lib_a-month_lengths.o)
 .data          0x00203688        0x0 c:/devkitpro/devkitarm/bin/../lib/gcc/arm-none-eabi/4.9.2/../../../../arm-none-eabi/lib/armv6k/fpu\libg.a(lib_a-putc.o)
 .data          0x00203688        0x0 c:/devkitpro/devkitarm/bin/../lib/gcc/arm-none-eabi/4.9.2/../../../../arm-none-eabi/lib/armv6k/fpu\libg.a(lib_a-qsort.o)
 .data          0x00203688        0x0 c:/devkitpro/devkitarm/bin/../lib/gcc/arm-none-eabi/4.9.2/../../../../arm-none-eabi/lib/armv6k/fpu\libg.a(lib_a-realloc.o)
 .data          0x00203688        0x0 c:/devkitpro/devkitarm/bin/../lib/gcc/arm-none-eabi/4.9.2/../../../../arm-none-eabi/lib/armv6k/fpu\libg.a(lib_a-reallocr.o)
 .data          0x00203688        0x0 c:/devkitpro/devkitarm/bin/../lib/gcc/arm-none-eabi/4.9.2/../../../../arm-none-eabi/lib/armv6k/fpu\libg.a(lib_a-refill.o)
 .data          0x00203688        0x0 c:/devkitpro/devkitarm/bin/../lib/gcc/arm-none-eabi/4.9.2/../../../../arm-none-eabi/lib/armv6k/fpu\libg.a(lib_a-remove.o)
 .data          0x00203688        0x0 c:/devkitpro/devkitarm/bin/../lib/gcc/arm-none-eabi/4.9.2/../../../../arm-none-eabi/lib/armv6k/fpu\libg.a(lib_a-setjmp.o)
 .data          0x00203688        0x0 c:/devkitpro/devkitarm/bin/../lib/gcc/arm-none-eabi/4.9.2/../../../../arm-none-eabi/lib/armv6k/fpu\libg.a(lib_a-signal.o)
 .data          0x00203688        0x0 c:/devkitpro/devkitarm/bin/../lib/gcc/arm-none-eabi/4.9.2/../../../../arm-none-eabi/lib/armv6k/fpu\libg.a(lib_a-snprintf.o)
 .data          0x00203688        0x0 c:/devkitpro/devkitarm/bin/../lib/gcc/arm-none-eabi/4.9.2/../../../../arm-none-eabi/lib/armv6k/fpu\libg.a(lib_a-sprintf.o)
 .data          0x00203688        0x0 c:/devkitpro/devkitarm/bin/../lib/gcc/arm-none-eabi/4.9.2/../../../../arm-none-eabi/lib/armv6k/fpu\libg.a(lib_a-stdio.o)
 .data          0x00203688        0x0 c:/devkitpro/devkitarm/bin/../lib/gcc/arm-none-eabi/4.9.2/../../../../arm-none-eabi/lib/armv6k/fpu\libg.a(lib_a-strchr.o)
 .data          0x00203688        0x0 c:/devkitpro/devkitarm/bin/../lib/gcc/arm-none-eabi/4.9.2/../../../../arm-none-eabi/lib/armv6k/fpu\libg.a(lib_a-strcmp.o)
 .data          0x00203688        0x0 c:/devkitpro/devkitarm/bin/../lib/gcc/arm-none-eabi/4.9.2/../../../../arm-none-eabi/lib/armv6k/fpu\libg.a(lib_a-strcpy.o)
 .data          0x00203688        0x0 c:/devkitpro/devkitarm/bin/../lib/gcc/arm-none-eabi/4.9.2/../../../../arm-none-eabi/lib/armv6k/fpu\libg.a(lib_a-strerror.o)
 .data          0x00203688        0x0 c:/devkitpro/devkitarm/bin/../lib/gcc/arm-none-eabi/4.9.2/../../../../arm-none-eabi/lib/armv6k/fpu\libg.a(lib_a-strlen.o)
 .data          0x00203688        0x0 c:/devkitpro/devkitarm/bin/../lib/gcc/arm-none-eabi/4.9.2/../../../../arm-none-eabi/lib/armv6k/fpu\libg.a(lib_a-strncat.o)
 .data          0x00203688        0x0 c:/devkitpro/devkitarm/bin/../lib/gcc/arm-none-eabi/4.9.2/../../../../arm-none-eabi/lib/armv6k/fpu\libg.a(lib_a-strncmp.o)
 .data          0x00203688        0x0 c:/devkitpro/devkitarm/bin/../lib/gcc/arm-none-eabi/4.9.2/../../../../arm-none-eabi/lib/armv6k/fpu\libg.a(lib_a-strncpy.o)
 .data          0x00203688        0x0 c:/devkitpro/devkitarm/bin/../lib/gcc/arm-none-eabi/4.9.2/../../../../arm-none-eabi/lib/armv6k/fpu\libg.a(lib_a-strrchr.o)
 .data          0x00203688        0x0 c:/devkitpro/devkitarm/bin/../lib/gcc/arm-none-eabi/4.9.2/../../../../arm-none-eabi/lib/armv6k/fpu\libg.a(lib_a-strstr.o)
 .data          0x00203688        0x0 c:/devkitpro/devkitarm/bin/../lib/gcc/arm-none-eabi/4.9.2/../../../../arm-none-eabi/lib/armv6k/fpu\libg.a(lib_a-strtod.o)
 .data          0x00203688        0x0 c:/devkitpro/devkitarm/bin/../lib/gcc/arm-none-eabi/4.9.2/../../../../arm-none-eabi/lib/armv6k/fpu\libg.a(lib_a-strtok.o)
 .data          0x00203688        0x0 c:/devkitpro/devkitarm/bin/../lib/gcc/arm-none-eabi/4.9.2/../../../../arm-none-eabi/lib/armv6k/fpu\libg.a(lib_a-strtok_r.o)
 .data          0x00203688        0x0 c:/devkitpro/devkitarm/bin/../lib/gcc/arm-none-eabi/4.9.2/../../../../arm-none-eabi/lib/armv6k/fpu\libg.a(lib_a-strtol.o)
 .data          0x00203688        0x0 c:/devkitpro/devkitarm/bin/../lib/gcc/arm-none-eabi/4.9.2/../../../../arm-none-eabi/lib/armv6k/fpu\libg.a(lib_a-svfprintf.o)
 .data          0x00203688        0x0 c:/devkitpro/devkitarm/bin/../lib/gcc/arm-none-eabi/4.9.2/../../../../arm-none-eabi/lib/armv6k/fpu\libg.a(lib_a-u_strerr.o)
 .data          0x00203688        0x0 c:/devkitpro/devkitarm/bin/../lib/gcc/arm-none-eabi/4.9.2/../../../../arm-none-eabi/lib/armv6k/fpu\libg.a(lib_a-vfprintf.o)
 .data          0x00203688        0x0 c:/devkitpro/devkitarm/bin/../lib/gcc/arm-none-eabi/4.9.2/../../../../arm-none-eabi/lib/armv6k/fpu\libg.a(lib_a-vsnprintf.o)
 .data          0x00203688        0x0 c:/devkitpro/devkitarm/bin/../lib/gcc/arm-none-eabi/4.9.2/../../../../arm-none-eabi/lib/armv6k/fpu\libg.a(lib_a-vswprintf.o)
 .data          0x00203688        0x0 c:/devkitpro/devkitarm/bin/../lib/gcc/arm-none-eabi/4.9.2/../../../../arm-none-eabi/lib/armv6k/fpu\libg.a(lib_a-wbuf.o)
 .data          0x00203688        0x0 c:/devkitpro/devkitarm/bin/../lib/gcc/arm-none-eabi/4.9.2/../../../../arm-none-eabi/lib/armv6k/fpu\libg.a(lib_a-wcrtomb.o)
 .data          0x00203688        0x0 c:/devkitpro/devkitarm/bin/../lib/gcc/arm-none-eabi/4.9.2/../../../../arm-none-eabi/lib/armv6k/fpu\libg.a(lib_a-wcsrtombs.o)
 .data          0x00203688        0x0 c:/devkitpro/devkitarm/bin/../lib/gcc/arm-none-eabi/4.9.2/../../../../arm-none-eabi/lib/armv6k/fpu\libg.a(lib_a-wctomb_r.o)
 .data          0x00203688        0x0 c:/devkitpro/devkitarm/bin/../lib/gcc/arm-none-eabi/4.9.2/../../../../arm-none-eabi/lib/armv6k/fpu\libg.a(lib_a-wsetup.o)
 .data          0x00203688        0x0 c:/devkitpro/devkitarm/bin/../lib/gcc/arm-none-eabi/4.9.2/../../../../arm-none-eabi/lib/armv6k/fpu\libg.a(lib_a-ctype_.o)
 .data          0x00203688        0x0 c:/devkitpro/devkitarm/bin/../lib/gcc/arm-none-eabi/4.9.2/../../../../arm-none-eabi/lib/armv6k/fpu\libg.a(lib_a-dtoa.o)
 .data          0x00203688        0x0 c:/devkitpro/devkitarm/bin/../lib/gcc/arm-none-eabi/4.9.2/../../../../arm-none-eabi/lib/armv6k/fpu\libg.a(lib_a-flags.o)
 .data          0x00203688        0x0 c:/devkitpro/devkitarm/bin/../lib/gcc/arm-none-eabi/4.9.2/../../../../arm-none-eabi/lib/armv6k/fpu\libg.a(lib_a-fvwrite.o)
 .data          0x00203688        0x0 c:/devkitpro/devkitarm/bin/../lib/gcc/arm-none-eabi/4.9.2/../../../../arm-none-eabi/lib/armv6k/fpu\libg.a(lib_a-gdtoa-gethex.o)
 .data          0x00203688        0x0 c:/devkitpro/devkitarm/bin/../lib/gcc/arm-none-eabi/4.9.2/../../../../arm-none-eabi/lib/armv6k/fpu\libg.a(lib_a-gdtoa-hexnan.o)
 .data          0x00203688        0x0 c:/devkitpro/devkitarm/bin/../lib/gcc/arm-none-eabi/4.9.2/../../../../arm-none-eabi/lib/armv6k/fpu\libg.a(lib_a-locale.o)
 .data          0x00203688        0x0 c:/devkitpro/devkitarm/bin/../lib/gcc/arm-none-eabi/4.9.2/../../../../arm-none-eabi/lib/armv6k/fpu\libg.a(lib_a-mbtowc_r.o)
 .data          0x00203688        0x0 c:/devkitpro/devkitarm/bin/../lib/gcc/arm-none-eabi/4.9.2/../../../../arm-none-eabi/lib/armv6k/fpu\libg.a(lib_a-mprec.o)
 .data          0x00203688        0x0 c:/devkitpro/devkitarm/bin/../lib/gcc/arm-none-eabi/4.9.2/../../../../arm-none-eabi/lib/armv6k/fpu\libg.a(lib_a-sf_nan.o)
 .data          0x00203688        0x0 c:/devkitpro/devkitarm/bin/../lib/gcc/arm-none-eabi/4.9.2/../../../../arm-none-eabi/lib/armv6k/fpu\libg.a(lib_a-strcasecmp.o)
 .data          0x00203688        0x0 c:/devkitpro/devkitarm/bin/../lib/gcc/arm-none-eabi/4.9.2/../../../../arm-none-eabi/lib/armv6k/fpu\libg.a(lib_a-strcat.o)
 .data          0x00203688        0x0 c:/devkitpro/devkitarm/bin/../lib/gcc/arm-none-eabi/4.9.2/../../../../arm-none-eabi/lib/armv6k/fpu\libg.a(lib_a-strlcpy.o)
 .data          0x00203688        0x0 c:/devkitpro/devkitarm/bin/../lib/gcc/arm-none-eabi/4.9.2/../../../../arm-none-eabi/lib/armv6k/fpu\libg.a(lib_a-strncasecmp.o)
 .data          0x00203688        0x0 c:/devkitpro/devkitarm/bin/../lib/gcc/arm-none-eabi/4.9.2/../../../../arm-none-eabi/lib/armv6k/fpu\libg.a(lib_a-svfiprintf.o)
 .data          0x00203688        0x0 c:/devkitpro/devkitarm/bin/../lib/gcc/arm-none-eabi/4.9.2/../../../../arm-none-eabi/lib/armv6k/fpu\libg.a(lib_a-svfwprintf.o)
 .data          0x00203688        0x0 c:/devkitpro/devkitarm/bin/../lib/gcc/arm-none-eabi/4.9.2/../../../../arm-none-eabi/lib/armv6k/fpu\libg.a(lib_a-vfiprintf.o)
 .data          0x00203688        0x0 c:/devkitpro/devkitarm/bin/../lib/gcc/arm-none-eabi/4.9.2/../../../../arm-none-eabi/lib/armv6k/fpu\libg.a(lib_a-wcslen.o)
 .data          0x00203688        0x0 c:/devkitpro/devkitarm/bin/../lib/gcc/arm-none-eabi/4.9.2/../../../../arm-none-eabi/lib/armv6k/fpu\libg.a(lib_a-wcsnrtombs.o)
 .data          0x00203688        0x0 c:/devkitpro/devkitarm/bin/../lib/gcc/arm-none-eabi/4.9.2/../../../../arm-none-eabi/lib/armv6k/fpu\libg.a(lib_a-wmemchr.o)
 .data          0x00203688        0x0 c:/devkitpro/devkitarm/bin/../lib/gcc/arm-none-eabi/4.9.2/../../../../arm-none-eabi/lib/armv6k/fpu\libg.a(lib_a-btowc.o)
 .data          0x00203688        0x0 c:/devkitpro/devkitarm/bin/../lib/gcc/arm-none-eabi/4.9.2/../../../../arm-none-eabi/lib/armv6k/fpu\libg.a(lib_a-callocr.o)
 .data          0x00203688        0x0 c:/devkitpro/devkitarm/bin/../lib/gcc/arm-none-eabi/4.9.2/../../../../arm-none-eabi/lib/armv6k/fpu\libg.a(lib_a-fputwc.o)
 .data          0x00203688        0x0 c:/devkitpro/devkitarm/bin/../lib/gcc/arm-none-eabi/4.9.2/../../../../arm-none-eabi/lib/armv6k/fpu\libg.a(lib_a-getenv_r.o)
 .data          0x00203688        0x0 c:/devkitpro/devkitarm/bin/../lib/gcc/arm-none-eabi/4.9.2/../../../../arm-none-eabi/lib/armv6k/fpu\libg.a(lib_a-mbrlen.o)
 .data          0x00203688        0x0 c:/devkitpro/devkitarm/bin/../lib/gcc/arm-none-eabi/4.9.2/../../../../arm-none-eabi/lib/armv6k/fpu\libg.a(lib_a-mbrtowc.o)
 .data          0x00203688        0x0 c:/devkitpro/devkitarm/bin/../lib/gcc/arm-none-eabi/4.9.2/../../../../arm-none-eabi/lib/armv6k/fpu\libg.a(lib_a-mbsnrtowcs.o)
 .data          0x00203688        0x0 c:/devkitpro/devkitarm/bin/../lib/gcc/arm-none-eabi/4.9.2/../../../../arm-none-eabi/lib/armv6k/fpu\libg.a(lib_a-environ.o)
 .data          0x00203688        0x0 c:/devkitpro/devkitarm/bin/../lib/gcc/arm-none-eabi/4.9.2/../../../../arm-none-eabi/lib/armv6k/fpu\libg.a(lib_a-envlock.o)
 .data          0x00203688       0x44 c:/devkitpro/devkitarm/bin/../lib/gcc/arm-none-eabi/4.9.2/../../../../arm-none-eabi/lib/armv6k/fpu\libsysbase.a(iosupport.o)
                0x0020368c                devoptab_list
 .data          0x002036cc        0x0 c:/devkitpro/devkitarm/bin/../lib/gcc/arm-none-eabi/4.9.2/../../../../arm-none-eabi/lib/armv6k/fpu\libsysbase.a(close.o)
 .data          0x002036cc        0x0 c:/devkitpro/devkitarm/bin/../lib/gcc/arm-none-eabi/4.9.2/../../../../arm-none-eabi/lib/armv6k/fpu\libsysbase.a(fstat.o)
 .data          0x002036cc        0x0 c:/devkitpro/devkitarm/bin/../lib/gcc/arm-none-eabi/4.9.2/../../../../arm-none-eabi/lib/armv6k/fpu\libsysbase.a(getpid.o)
 .data          0x002036cc        0x0 c:/devkitpro/devkitarm/bin/../lib/gcc/arm-none-eabi/4.9.2/../../../../arm-none-eabi/lib/armv6k/fpu\libsysbase.a(isatty.o)
 .data          0x002036cc        0x0 c:/devkitpro/devkitarm/bin/../lib/gcc/arm-none-eabi/4.9.2/../../../../arm-none-eabi/lib/armv6k/fpu\libsysbase.a(kill.o)
 .data          0x002036cc        0x0 c:/devkitpro/devkitarm/bin/../lib/gcc/arm-none-eabi/4.9.2/../../../../arm-none-eabi/lib/armv6k/fpu\libsysbase.a(lseek.o)
 .data          0x002036cc        0x0 c:/devkitpro/devkitarm/bin/../lib/gcc/arm-none-eabi/4.9.2/../../../../arm-none-eabi/lib/armv6k/fpu\libsysbase.a(open.o)
 .data          0x002036cc        0x0 c:/devkitpro/devkitarm/bin/../lib/gcc/arm-none-eabi/4.9.2/../../../../arm-none-eabi/lib/armv6k/fpu\libsysbase.a(read.o)
 .data          0x002036cc        0x0 c:/devkitpro/devkitarm/bin/../lib/gcc/arm-none-eabi/4.9.2/../../../../arm-none-eabi/lib/armv6k/fpu\libsysbase.a(sbrk.o)
 .data          0x002036cc        0x0 c:/devkitpro/devkitarm/bin/../lib/gcc/arm-none-eabi/4.9.2/../../../../arm-none-eabi/lib/armv6k/fpu\libsysbase.a(unlink.o)
 .data          0x002036cc        0x0 c:/devkitpro/devkitarm/bin/../lib/gcc/arm-none-eabi/4.9.2/../../../../arm-none-eabi/lib/armv6k/fpu\libsysbase.a(write.o)
 .data          0x002036cc        0x0 c:/devkitpro/devkitarm/bin/../lib/gcc/arm-none-eabi/4.9.2/../../../../arm-none-eabi/lib/armv6k/fpu\libsysbase.a(_exit.o)
 .data          0x002036cc        0x0 c:/devkitpro/devkitarm/bin/../lib/gcc/arm-none-eabi/4.9.2/../../../../arm-none-eabi/lib/armv6k/fpu\libsysbase.a(malloc_vars.o)
 .data          0x002036cc     0x1000 c:/devkitpro/devkitarm/bin/../lib/gcc/arm-none-eabi/4.9.2/../../../../arm-none-eabi/lib/armv6k/fpu\libsysbase.a(chdir.o)
 .data          0x002046cc        0x0 c:/devkitpro/devkitarm/bin/../lib/gcc/arm-none-eabi/4.9.2/../../../../arm-none-eabi/lib/armv6k/fpu\libsysbase.a(flock.o)
 .data          0x002046cc        0x0 c:/devkitpro/devkitarm/bin/../lib/gcc/arm-none-eabi/4.9.2/../../../../arm-none-eabi/lib/armv6k/fpu\libsysbase.a(syscall_support.o)
 .data          0x002046cc     0x1024 c:/devkitpro/devkitarm/bin/../lib/gcc/arm-none-eabi/4.9.2/../../../../arm-none-eabi/lib/armv6k/fpu\libsysbase.a(handle_manager.o)
 .data          0x002056f0        0x0 c:/devkitpro/devkitarm/bin/../lib/gcc/arm-none-eabi/4.9.2/../../../../arm-none-eabi/lib/armv6k/fpu\libsysbase.a(getreent.o)
 .data          0x002056f0        0x0 c:/devkitpro/devkitarm/bin/../lib/gcc/arm-none-eabi/4.9.2/armv6k/fpu\libgcc.a(_aeabi_uldivmod.o)
 .data          0x002056f0        0x0 c:/devkitpro/devkitarm/bin/../lib/gcc/arm-none-eabi/4.9.2/armv6k/fpu\libgcc.a(bpabi.o)
 .data          0x002056f0        0x0 c:/devkitpro/devkitarm/bin/../lib/gcc/arm-none-eabi/4.9.2/armv6k/fpu\libgcc.a(_divdi3.o)
 .data          0x002056f0        0x0 c:/devkitpro/devkitarm/bin/../lib/gcc/arm-none-eabi/4.9.2/armv6k/fpu\libgcc.a(_udivdi3.o)
 .data          0x002056f0        0x0 c:/devkitpro/devkitarm/bin/../lib/gcc/arm-none-eabi/4.9.2/../../../../arm-none-eabi/lib/armv6k/fpu\libg.a(lib_a-strnlen.o)
 .data          0x002056f0        0x0 c:/devkitpro/devkitarm/bin/../lib/gcc/arm-none-eabi/4.9.2/armv6k/fpu/crtend.o
 .data          0x002056f0        0x0 c:/devkitpro/devkitarm/bin/../lib/gcc/arm-none-eabi/4.9.2/armv6k/fpu/crtn.o
 *(.data.*)
 .data.__fdlib_version
                0x002056f0        0x1 c:/devkitpro/devkitarm/bin/../lib/gcc/arm-none-eabi/4.9.2/../../../../arm-none-eabi/lib/armv6k/fpu\libm.a(lib_a-s_lib_ver.o)
                0x002056f0                __fdlib_version
 *fill*         0x002056f1        0x7 
 .data.impure_data
                0x002056f8      0x428 c:/devkitpro/devkitarm/bin/../lib/gcc/arm-none-eabi/4.9.2/../../../../arm-none-eabi/lib/armv6k/fpu\libg.a(lib_a-impure.o)
 .data._impure_ptr
                0x00205b20        0x4 c:/devkitpro/devkitarm/bin/../lib/gcc/arm-none-eabi/4.9.2/../../../../arm-none-eabi/lib/armv6k/fpu\libg.a(lib_a-impure.o)
                0x00205b20                _impure_ptr
 .data.__malloc_av_
                0x00205b24      0x408 c:/devkitpro/devkitarm/bin/../lib/gcc/arm-none-eabi/4.9.2/../../../../arm-none-eabi/lib/armv6k/fpu\libg.a(lib_a-mallocr.o)
                0x00205b24                __malloc_av_
 .data.__malloc_trim_threshold
                0x00205f2c        0x4 c:/devkitpro/devkitarm/bin/../lib/gcc/arm-none-eabi/4.9.2/../../../../arm-none-eabi/lib/armv6k/fpu\libg.a(lib_a-mallocr.o)
                0x00205f2c                __malloc_trim_threshold
 .data.__malloc_sbrk_base
                0x00205f30        0x4 c:/devkitpro/devkitarm/bin/../lib/gcc/arm-none-eabi/4.9.2/../../../../arm-none-eabi/lib/armv6k/fpu\libg.a(lib_a-mallocr.o)
                0x00205f30                __malloc_sbrk_base
 .data.__wctomb
                0x00205f34        0x4 c:/devkitpro/devkitarm/bin/../lib/gcc/arm-none-eabi/4.9.2/../../../../arm-none-eabi/lib/armv6k/fpu\libg.a(lib_a-wctomb_r.o)
                0x00205f34                __wctomb
 .data.__ctype_ptr__
                0x00205f38        0x4 c:/devkitpro/devkitarm/bin/../lib/gcc/arm-none-eabi/4.9.2/../../../../arm-none-eabi/lib/armv6k/fpu\libg.a(lib_a-ctype_.o)
                0x00205f38                __ctype_ptr__
 .data.lc_message_charset
                0x00205f3c       0x20 c:/devkitpro/devkitarm/bin/../lib/gcc/arm-none-eabi/4.9.2/../../../../arm-none-eabi/lib/armv6k/fpu\libg.a(lib_a-locale.o)
 .data.lconv    0x00205f5c       0x38 c:/devkitpro/devkitarm/bin/../lib/gcc/arm-none-eabi/4.9.2/../../../../arm-none-eabi/lib/armv6k/fpu\libg.a(lib_a-locale.o)
 .data.current_categories
                0x00205f94       0xe0 c:/devkitpro/devkitarm/bin/../lib/gcc/arm-none-eabi/4.9.2/../../../../arm-none-eabi/lib/armv6k/fpu\libg.a(lib_a-locale.o)
 .data.lc_ctype_charset
                0x00206074       0x20 c:/devkitpro/devkitarm/bin/../lib/gcc/arm-none-eabi/4.9.2/../../../../arm-none-eabi/lib/armv6k/fpu\libg.a(lib_a-locale.o)
 .data.__default_locale
                0x00206094       0x20 c:/devkitpro/devkitarm/bin/../lib/gcc/arm-none-eabi/4.9.2/../../../../arm-none-eabi/lib/armv6k/fpu\libg.a(lib_a-locale.o)
                0x00206094                __default_locale
 .data.__mb_cur_max
                0x002060b4        0x4 c:/devkitpro/devkitarm/bin/../lib/gcc/arm-none-eabi/4.9.2/../../../../arm-none-eabi/lib/armv6k/fpu\libg.a(lib_a-locale.o)
                0x002060b4                __mb_cur_max
 .data.__mbtowc
                0x002060b8        0x4 c:/devkitpro/devkitarm/bin/../lib/gcc/arm-none-eabi/4.9.2/../../../../arm-none-eabi/lib/armv6k/fpu\libg.a(lib_a-mbtowc_r.o)
                0x002060b8                __mbtowc
 .data.environ  0x002060bc        0x4 c:/devkitpro/devkitarm/bin/../lib/gcc/arm-none-eabi/4.9.2/../../../../arm-none-eabi/lib/armv6k/fpu\libg.a(lib_a-environ.o)
                0x002060bc                environ
 *(.gnu.linkonce.d*)
                0x002060c0                . = ALIGN (0x4)

.igot.plt       0x002060c0        0x0
 .igot.plt      0x002060c0        0x0 c:/devkitpro/devkitarm/bin/../lib/gcc/arm-none-eabi/4.9.2/../../../../arm-none-eabi/lib/armv6k/fpu/3dsx_crt0.o

.eh_frame       0x002060c0       0x74
 .eh_frame      0x002060c0        0x0 c:/devkitpro/devkitarm/bin/../lib/gcc/arm-none-eabi/4.9.2/armv6k/fpu/crtbegin.o
 .eh_frame      0x002060c0       0x70 c:/devkitpro/devkitarm/bin/../lib/gcc/arm-none-eabi/4.9.2/../../../../arm-none-eabi/lib/armv6k/fpu\libg.a(lib_a-strcmp.o)
 .eh_frame      0x00206130        0x4 c:/devkitpro/devkitarm/bin/../lib/gcc/arm-none-eabi/4.9.2/armv6k/fpu/crtend.o

.jcr            0x00206134        0x4
 .jcr           0x00206134        0x0 c:/devkitpro/devkitarm/bin/../lib/gcc/arm-none-eabi/4.9.2/armv6k/fpu/crtbegin.o
 .jcr           0x00206134        0x4 c:/devkitpro/devkitarm/bin/../lib/gcc/arm-none-eabi/4.9.2/armv6k/fpu/crtend.o

.tm_clone_table
                0x00206138        0x0
 .tm_clone_table
                0x00206138        0x0 c:/devkitpro/devkitarm/bin/../lib/gcc/arm-none-eabi/4.9.2/armv6k/fpu/crtbegin.o
 .tm_clone_table
                0x00206138        0x0 c:/devkitpro/devkitarm/bin/../lib/gcc/arm-none-eabi/4.9.2/armv6k/fpu/crtend.o
                0x00206138                __TMC_END__

.preinit_array  0x00206138        0x0
                0x00206138                PROVIDE (__preinit_array_start, .)
 *(.preinit_array)
                0x00206138                PROVIDE (__preinit_array_end, .)

.init_array     0x00206138        0x4
                0x00206138                PROVIDE (__init_array_start, .)
 *(SORT(.init_array.*))
 *(.init_array)
 .init_array    0x00206138        0x4 c:/devkitpro/devkitarm/bin/../lib/gcc/arm-none-eabi/4.9.2/armv6k/fpu/crtbegin.o
                0x0020613c                PROVIDE (__init_array_end, .)

.fini_array     0x0020613c        0x4
                0x0020613c                PROVIDE (__fini_array_start, .)
 *(.fini_array)
 .fini_array    0x0020613c        0x4 c:/devkitpro/devkitarm/bin/../lib/gcc/arm-none-eabi/4.9.2/armv6k/fpu/crtbegin.o
 *(SORT(.fini_array.*))
                0x00206140                PROVIDE (__fini_array_end, .)

.ctors
 *crtbegin.o(.ctors)
 *(EXCLUDE_FILE(*crtend.o) .ctors)
 *(SORT(.ctors.*))
 *(.ctors)

.dtors
 *crtbegin.o(.dtors)
 *(EXCLUDE_FILE(*crtend.o) .dtors)
 *(SORT(.dtors.*))
 *(.dtors)
                0x00206140                __bss_start__ = .

.bss            0x00206140     0xeb58
 *(.dynbss)
 *(.bss)
 .bss           0x00206140        0x0 c:/devkitpro/devkitarm/bin/../lib/gcc/arm-none-eabi/4.9.2/../../../../arm-none-eabi/lib/armv6k/fpu/3dsx_crt0.o
 .bss           0x00206140        0x0 c:/devkitpro/devkitarm/bin/../lib/gcc/arm-none-eabi/4.9.2/armv6k/fpu/crti.o
 .bss           0x00206140       0x1c c:/devkitpro/devkitarm/bin/../lib/gcc/arm-none-eabi/4.9.2/armv6k/fpu/crtbegin.o
 .bss           0x0020615c        0x0 eightbit.ttf.o
 .bss           0x0020615c        0x0 friskBack0.png.o
 .bss           0x0020615c        0x0 friskBack1.png.o
 .bss           0x0020615c        0x0 friskBack2.png.o
 .bss           0x0020615c        0x0 friskBack3.png.o
 .bss           0x0020615c        0x0 friskFace0.png.o
 .bss           0x0020615c        0x0 friskFace1.png.o
 .bss           0x0020615c        0x0 friskFace2.png.o
 .bss           0x0020615c        0x0 friskFace3.png.o
 .bss           0x0020615c        0x0 friskLeft0.png.o
 .bss           0x0020615c        0x0 friskLeft1.png.o
 .bss           0x0020615c        0x0 friskRight0.png.o
 .bss           0x0020615c        0x0 friskRight1.png.o
 .bss           0x0020615c        0x0 torielHouse-old.png.o
 .bss           0x0020615c        0x0 torielHouse1.png.o
 .bss           0x0020615c        0x0 torielHouse2.png.o
 .bss           0x0020615c        0x0 torielHouse3.png.o
 .bss           0x0020615c        0x0 torielHouse4.png.o
 .bss           0x0020615c        0x0 torielHouse5.png.o
 .bss           0x0020615c        0x0 torielHouse6.png.o
 .bss           0x0020615c       0x30 main.o
                0x0020615c                showEasterEggMessage
                0x00206160                sprTimer
                0x00206164                prevTime
                0x00206168                currTime
                0x0020616c                dt
                0x00206170                vsp
                0x00206174                hsp
                0x00206178                playerDir
                0x0020617c                roomEnter
                0x00206180                textHeight
                0x00206184                textWidth
                0x00206188                player
 .bss           0x0020618c        0x0 c:/devkitPro/libctru/lib\libsfil.a(sfil_png.o)
 .bss           0x0020618c        0x0 c:/devkitPro/portlibs/armv6k/lib\libpng.a(png.o)
 .bss           0x0020618c        0x0 c:/devkitPro/portlibs/armv6k/lib\libpng.a(pngerror.o)
 .bss           0x0020618c        0x0 c:/devkitPro/portlibs/armv6k/lib\libpng.a(pngget.o)
 .bss           0x0020618c        0x0 c:/devkitPro/portlibs/armv6k/lib\libpng.a(pngmem.o)
 .bss           0x0020618c        0x0 c:/devkitPro/portlibs/armv6k/lib\libpng.a(pngread.o)
 .bss           0x0020618c        0x0 c:/devkitPro/portlibs/armv6k/lib\libpng.a(pngrio.o)
 .bss           0x0020618c        0x0 c:/devkitPro/portlibs/armv6k/lib\libpng.a(pngrtran.o)
 .bss           0x0020618c        0x0 c:/devkitPro/portlibs/armv6k/lib\libpng.a(pngrutil.o)
 .bss           0x0020618c        0x0 c:/devkitPro/portlibs/armv6k/lib\libpng.a(pngset.o)
 .bss           0x0020618c        0x0 c:/devkitPro/portlibs/armv6k/lib\libpng.a(pngtrans.o)
 .bss           0x0020618c        0x0 c:/devkitPro/portlibs/armv6k/lib\libpng.a(pngwrite.o)
 .bss           0x0020618c        0x0 c:/devkitPro/portlibs/armv6k/lib\libpng.a(pngwtran.o)
 .bss           0x0020618c        0x0 c:/devkitPro/portlibs/armv6k/lib\libpng.a(pngwutil.o)
 .bss           0x0020618c        0x0 c:/devkitPro/portlibs/armv6k/lib\libpng.a(pngwio.o)
 .bss           0x0020618c        0x8 c:/devkitPro/libctru/lib\libsftd.a(sftd.o)
 .bss           0x00206194        0x0 c:/devkitPro/libctru/lib\libsftd.a(texture_atlas.o)
 .bss           0x00206194        0x0 c:/devkitPro/libctru/lib\libsftd.a(bin_packing_2d.o)
 .bss           0x00206194        0x0 c:/devkitPro/libctru/lib\libsftd.a(int_htab.o)
 .bss           0x00206194        0x0 c:/devkitPro/portlibs/armv6k/lib\libfreetype.a(ftinit.o)
 .bss           0x00206194        0x0 c:/devkitPro/portlibs/armv6k/lib\libfreetype.a(ftbase.o)
 .bss           0x00206194        0x0 c:/devkitPro/portlibs/armv6k/lib\libfreetype.a(truetype.o)
 .bss           0x00206194        0x0 c:/devkitPro/portlibs/armv6k/lib\libfreetype.a(type1.o)
 .bss           0x00206194        0x0 c:/devkitPro/portlibs/armv6k/lib\libfreetype.a(cff.o)
 .bss           0x00206194        0x0 c:/devkitPro/portlibs/armv6k/lib\libfreetype.a(type1cid.o)
 .bss           0x00206194        0x0 c:/devkitPro/portlibs/armv6k/lib\libfreetype.a(pfr.o)
 .bss           0x00206194        0x0 c:/devkitPro/portlibs/armv6k/lib\libfreetype.a(type42.o)
 .bss           0x00206194        0x0 c:/devkitPro/portlibs/armv6k/lib\libfreetype.a(winfnt.o)
 .bss           0x00206194        0x0 c:/devkitPro/portlibs/armv6k/lib\libfreetype.a(pcf.o)
 .bss           0x00206194        0x0 c:/devkitPro/portlibs/armv6k/lib\libfreetype.a(bdf.o)
 .bss           0x00206194        0x0 c:/devkitPro/portlibs/armv6k/lib\libfreetype.a(sfnt.o)
 .bss           0x00206194        0x0 c:/devkitPro/portlibs/armv6k/lib\libfreetype.a(autofit.o)
 .bss           0x00206194        0x0 c:/devkitPro/portlibs/armv6k/lib\libfreetype.a(pshinter.o)
 .bss           0x00206194        0x0 c:/devkitPro/portlibs/armv6k/lib\libfreetype.a(raster.o)
 .bss           0x00206194        0x0 c:/devkitPro/portlibs/armv6k/lib\libfreetype.a(smooth.o)
 .bss           0x00206194        0x0 c:/devkitPro/portlibs/armv6k/lib\libfreetype.a(ftcache.o)
 .bss           0x00206194        0x0 c:/devkitPro/portlibs/armv6k/lib\libfreetype.a(ftgzip.o)
 .bss           0x00206194        0x0 c:/devkitPro/portlibs/armv6k/lib\libfreetype.a(ftlzw.o)
 .bss           0x00206194        0x0 c:/devkitPro/portlibs/armv6k/lib\libfreetype.a(psaux.o)
 .bss           0x00206194        0x0 c:/devkitPro/portlibs/armv6k/lib\libfreetype.a(psnames.o)
 .bss           0x00206194        0x0 c:/devkitPro/portlibs/armv6k/lib\libfreetype.a(ftsystem.o)
 .bss           0x00206194        0x0 c:/devkitPro/portlibs/armv6k/lib\libfreetype.a(ftbitmap.o)
 .bss           0x00206194        0x0 c:/devkitPro/portlibs/armv6k/lib\libfreetype.a(ftglyph.o)
 .bss           0x00206194        0x0 c:/devkitPro/portlibs/armv6k/lib\libz.a(adler32.o)
 .bss           0x00206194        0x0 c:/devkitPro/portlibs/armv6k/lib\libz.a(crc32.o)
 .bss           0x00206194        0x0 c:/devkitPro/portlibs/armv6k/lib\libz.a(deflate.o)
 .bss           0x00206194        0x0 c:/devkitPro/portlibs/armv6k/lib\libz.a(inflate.o)
 .bss           0x00206194        0x0 c:/devkitPro/portlibs/armv6k/lib\libz.a(inftrees.o)
 .bss           0x00206194        0x0 c:/devkitPro/portlibs/armv6k/lib\libz.a(trees.o)
 .bss           0x00206194        0x0 c:/devkitPro/portlibs/armv6k/lib\libz.a(zutil.o)
 .bss           0x00206194        0x0 c:/devkitPro/portlibs/armv6k/lib\libz.a(inffast.o)
 *fill*         0x00206194        0x4 
 .bss           0x00206198       0xd8 c:/devkitPro/libctru/lib\libsf2d.a(sf2d.o)
 .bss           0x00206270        0x0 c:/devkitPro/libctru/lib\libsf2d.a(sf2d_private.o)
 .bss           0x00206270        0x0 c:/devkitPro/libctru/lib\libsf2d.a(sf2d_texture.o)
 .bss           0x00206270        0x0 c:/devkitPro/libctru/lib\libsf2d.a(shader.vsh.o)
 .bss           0x00206270       0x14 c:/devkitPro/libctru/lib\libctru.a(linear.o)
 .bss           0x00206284        0x0 c:/devkitPro/libctru/lib\libctru.a(mem_pool.o)
 .bss           0x00206284       0x14 c:/devkitPro/libctru/lib\libctru.a(vram.o)
 .bss           0x00206298        0xc c:/devkitPro/libctru/lib\libctru.a(gfx.o)
                0x0020629c                screenFree
 .bss           0x002062a4        0x1 c:/devkitPro/libctru/lib\libctru.a(os.o)
                0x002062a4                __ctru_speedup
 *fill*         0x002062a5        0x3 
 .bss           0x002062a8     0x3050 c:/devkitPro/libctru/lib\libctru.a(romfs_dev.o)
 .bss           0x002092f8        0x4 c:/devkitPro/libctru/lib\libctru.a(srv.o)
 .bss           0x002092fc      0x400 c:/devkitPro/libctru/lib\libctru.a(gpu.o)
 .bss           0x002096fc        0x0 c:/devkitPro/libctru/lib\libctru.a(gpuResetSequence.o)
 .bss           0x002096fc        0x0 c:/devkitPro/libctru/lib\libctru.a(shaderProgram.o)
 .bss           0x002096fc        0x0 c:/devkitPro/libctru/lib\libctru.a(shbin.o)
 .bss           0x002096fc       0x5c c:/devkitPro/libctru/lib\libctru.a(apt.o)
                0x00209700                aptStatusEvent
                0x00209710                aptStatus
                0x00209714                aptStatusPower
                0x00209718                aptSleepSync
                0x00209740                aptStatusBeforeSleep
 .bss           0x00209758        0x4 c:/devkitPro/libctru/lib\libctru.a(cfgu.o)
 .bss           0x0020975c       0x1c c:/devkitPro/libctru/lib\libctru.a(csnd.o)
                0x00209768                csndSharedMem
                0x0020976c                csndChannels
 .bss           0x00209778        0x8 c:/devkitPro/libctru/lib\libctru.a(fs.o)
 .bss           0x00209780       0x10 c:/devkitPro/libctru/lib\libctru.a(gsp.o)
                0x00209788                gspGpuHandle
                0x0020978c                gspLcdHandle
 .bss           0x00209790        0x0 c:/devkitPro/libctru/lib\libctru.a(gx.o)
 .bss           0x00209790       0x2c c:/devkitPro/libctru/lib\libctru.a(hid.o)
 .bss           0x002097bc        0xc c:/devkitPro/libctru/lib\libctru.a(irrst.o)
 .bss           0x002097c8        0x8 c:/devkitPro/libctru/lib\libctru.a(ptm.o)
 .bss           0x002097d0        0x0 c:/devkitPro/libctru/lib\libctru.a(rbtree_find.o)
 .bss           0x002097d0        0x0 c:/devkitPro/libctru/lib\libctru.a(rbtree_init.o)
 .bss           0x002097d0        0x0 c:/devkitPro/libctru/lib\libctru.a(rbtree_insert.o)
 .bss           0x002097d0        0x0 c:/devkitPro/libctru/lib\libctru.a(rbtree_remove.o)
 .bss           0x002097d0        0x0 c:/devkitPro/libctru/lib\libctru.a(rbtree_rotate.o)
 .bss           0x002097d0        0x0 c:/devkitPro/libctru/lib\libctru.a(utf8_to_utf16.o)
 .bss           0x002097d0        0x0 c:/devkitPro/libctru/lib\libctru.a(allocateHeaps.o)
 .bss           0x002097d0        0x0 c:/devkitPro/libctru/lib\libctru.a(initArgv.o)
 .bss           0x002097d0        0x0 c:/devkitPro/libctru/lib\libctru.a(initSystem.o)
 .bss           0x002097d0        0x0 c:/devkitPro/libctru/lib\libctru.a(svc.o)
 .bss           0x002097d0        0x8 c:/devkitPro/libctru/lib\libctru.a(stack_adjust.o)
 .bss           0x002097d8       0x14 c:/devkitPro/libctru/lib\libctru.a(mappable.o)
 .bss           0x002097ec        0x0 c:/devkitPro/libctru/lib\libctru.a(rbtree_iterator.o)
 .bss           0x002097ec        0x0 c:/devkitPro/libctru/lib\libctru.a(decode_utf8.o)
 .bss           0x002097ec        0x0 c:/devkitPro/libctru/lib\libctru.a(encode_utf16.o)
 .bss           0x002097ec        0x0 c:/devkitPro/libctru/lib\libctru.a(appExit.o)
 .bss           0x002097ec        0x0 c:/devkitPro/libctru/lib\libctru.a(appInit.o)
 .bss           0x002097ec        0x0 c:/devkitPro/libctru/lib\libctru.a(ctru_exit.o)
 .bss           0x002097ec     0x700c c:/devkitPro/libctru/lib\libctru.a(sdmc_dev.o)
 .bss           0x002107f8        0x0 c:/devkitPro/libctru/lib\libctru.a(utf16_to_utf8.o)
 .bss           0x002107f8        0x0 c:/devkitPro/libctru/lib\libctru.a(decode_utf16.o)
 .bss           0x002107f8        0x0 c:/devkitPro/libctru/lib\libctru.a(encode_utf8.o)
 .bss           0x002107f8        0x0 c:/devkitpro/devkitarm/bin/../lib/gcc/arm-none-eabi/4.9.2/../../../../arm-none-eabi/lib/armv6k/fpu\libm.a(lib_a-sf_cos.o)
 .bss           0x002107f8        0x0 c:/devkitpro/devkitarm/bin/../lib/gcc/arm-none-eabi/4.9.2/../../../../arm-none-eabi/lib/armv6k/fpu\libm.a(lib_a-s_floor.o)
 .bss           0x002107f8        0x0 c:/devkitpro/devkitarm/bin/../lib/gcc/arm-none-eabi/4.9.2/../../../../arm-none-eabi/lib/armv6k/fpu\libm.a(lib_a-s_frexp.o)
 .bss           0x002107f8        0x0 c:/devkitpro/devkitarm/bin/../lib/gcc/arm-none-eabi/4.9.2/../../../../arm-none-eabi/lib/armv6k/fpu\libm.a(lib_a-sf_sin.o)
 .bss           0x002107f8        0x0 c:/devkitpro/devkitarm/bin/../lib/gcc/arm-none-eabi/4.9.2/../../../../arm-none-eabi/lib/armv6k/fpu\libm.a(lib_a-s_modf.o)
 .bss           0x002107f8        0x0 c:/devkitpro/devkitarm/bin/../lib/gcc/arm-none-eabi/4.9.2/../../../../arm-none-eabi/lib/armv6k/fpu\libm.a(lib_a-w_pow.o)
 .bss           0x002107f8        0x0 c:/devkitpro/devkitarm/bin/../lib/gcc/arm-none-eabi/4.9.2/../../../../arm-none-eabi/lib/armv6k/fpu\libm.a(lib_a-ef_rem_pio2.o)
 .bss           0x002107f8        0x0 c:/devkitpro/devkitarm/bin/../lib/gcc/arm-none-eabi/4.9.2/../../../../arm-none-eabi/lib/armv6k/fpu\libm.a(lib_a-e_pow.o)
 .bss           0x002107f8        0x0 c:/devkitpro/devkitarm/bin/../lib/gcc/arm-none-eabi/4.9.2/../../../../arm-none-eabi/lib/armv6k/fpu\libm.a(lib_a-e_sqrt.o)
 .bss           0x002107f8        0x0 c:/devkitpro/devkitarm/bin/../lib/gcc/arm-none-eabi/4.9.2/../../../../arm-none-eabi/lib/armv6k/fpu\libm.a(lib_a-kf_cos.o)
 .bss           0x002107f8        0x0 c:/devkitpro/devkitarm/bin/../lib/gcc/arm-none-eabi/4.9.2/../../../../arm-none-eabi/lib/armv6k/fpu\libm.a(lib_a-kf_rem_pio2.o)
 .bss           0x002107f8        0x0 c:/devkitpro/devkitarm/bin/../lib/gcc/arm-none-eabi/4.9.2/../../../../arm-none-eabi/lib/armv6k/fpu\libm.a(lib_a-kf_sin.o)
 .bss           0x002107f8        0x0 c:/devkitpro/devkitarm/bin/../lib/gcc/arm-none-eabi/4.9.2/../../../../arm-none-eabi/lib/armv6k/fpu\libm.a(lib_a-s_fabs.o)
 .bss           0x002107f8        0x0 c:/devkitpro/devkitarm/bin/../lib/gcc/arm-none-eabi/4.9.2/../../../../arm-none-eabi/lib/armv6k/fpu\libm.a(lib_a-sf_fabs.o)
 .bss           0x002107f8        0x0 c:/devkitpro/devkitarm/bin/../lib/gcc/arm-none-eabi/4.9.2/../../../../arm-none-eabi/lib/armv6k/fpu\libm.a(lib_a-sf_floor.o)
 .bss           0x002107f8        0x0 c:/devkitpro/devkitarm/bin/../lib/gcc/arm-none-eabi/4.9.2/../../../../arm-none-eabi/lib/armv6k/fpu\libm.a(lib_a-s_finite.o)
 .bss           0x002107f8        0x0 c:/devkitpro/devkitarm/bin/../lib/gcc/arm-none-eabi/4.9.2/../../../../arm-none-eabi/lib/armv6k/fpu\libm.a(lib_a-s_fpclassify.o)
 .bss           0x002107f8        0x0 c:/devkitpro/devkitarm/bin/../lib/gcc/arm-none-eabi/4.9.2/../../../../arm-none-eabi/lib/armv6k/fpu\libm.a(lib_a-sf_scalbn.o)
 .bss           0x002107f8        0x0 c:/devkitpro/devkitarm/bin/../lib/gcc/arm-none-eabi/4.9.2/../../../../arm-none-eabi/lib/armv6k/fpu\libm.a(lib_a-s_lib_ver.o)
 .bss           0x002107f8        0x0 c:/devkitpro/devkitarm/bin/../lib/gcc/arm-none-eabi/4.9.2/../../../../arm-none-eabi/lib/armv6k/fpu\libm.a(lib_a-s_matherr.o)
 .bss           0x002107f8        0x0 c:/devkitpro/devkitarm/bin/../lib/gcc/arm-none-eabi/4.9.2/../../../../arm-none-eabi/lib/armv6k/fpu\libm.a(lib_a-s_nan.o)
 .bss           0x002107f8        0x0 c:/devkitpro/devkitarm/bin/../lib/gcc/arm-none-eabi/4.9.2/../../../../arm-none-eabi/lib/armv6k/fpu\libm.a(lib_a-s_rint.o)
 .bss           0x002107f8        0x0 c:/devkitpro/devkitarm/bin/../lib/gcc/arm-none-eabi/4.9.2/../../../../arm-none-eabi/lib/armv6k/fpu\libm.a(lib_a-s_scalbn.o)
 .bss           0x002107f8        0x0 c:/devkitpro/devkitarm/bin/../lib/gcc/arm-none-eabi/4.9.2/../../../../arm-none-eabi/lib/armv6k/fpu\libm.a(lib_a-s_copysign.o)
 .bss           0x002107f8        0x0 c:/devkitpro/devkitarm/bin/../lib/gcc/arm-none-eabi/4.9.2/../../../../arm-none-eabi/lib/armv6k/fpu\libm.a(lib_a-sf_copysign.o)
 .bss           0x002107f8        0x0 c:/devkitpro/devkitarm/bin/../lib/gcc/arm-none-eabi/4.9.2/armv6k/fpu\libgcc.a(_udivsi3.o)
 .bss           0x002107f8        0x0 c:/devkitpro/devkitarm/bin/../lib/gcc/arm-none-eabi/4.9.2/armv6k/fpu\libgcc.a(_divsi3.o)
 .bss           0x002107f8        0x0 c:/devkitpro/devkitarm/bin/../lib/gcc/arm-none-eabi/4.9.2/armv6k/fpu\libgcc.a(_dvmd_tls.o)
 .bss           0x002107f8        0x0 c:/devkitpro/devkitarm/bin/../lib/gcc/arm-none-eabi/4.9.2/armv6k/fpu\libgcc.a(_arm_addsubsf3.o)
 .bss           0x002107f8        0x0 c:/devkitpro/devkitarm/bin/../lib/gcc/arm-none-eabi/4.9.2/armv6k/fpu\libgcc.a(_popcountsi2.o)
 .bss           0x002107f8        0x0 c:/devkitpro/devkitarm/bin/../lib/gcc/arm-none-eabi/4.9.2/../../../../arm-none-eabi/lib/armv6k/fpu\libg.a(lib_a-abort.o)
 .bss           0x002107f8        0x0 c:/devkitpro/devkitarm/bin/../lib/gcc/arm-none-eabi/4.9.2/../../../../arm-none-eabi/lib/armv6k/fpu\libg.a(lib_a-atof.o)
 .bss           0x002107f8        0x0 c:/devkitpro/devkitarm/bin/../lib/gcc/arm-none-eabi/4.9.2/../../../../arm-none-eabi/lib/armv6k/fpu\libg.a(lib_a-atol.o)
 .bss           0x002107f8        0x0 c:/devkitpro/devkitarm/bin/../lib/gcc/arm-none-eabi/4.9.2/../../../../arm-none-eabi/lib/armv6k/fpu\libg.a(lib_a-bsearch.o)
 .bss           0x002107f8        0x0 c:/devkitpro/devkitarm/bin/../lib/gcc/arm-none-eabi/4.9.2/../../../../arm-none-eabi/lib/armv6k/fpu\libg.a(lib_a-errno.o)
 .bss           0x002107f8        0x0 c:/devkitpro/devkitarm/bin/../lib/gcc/arm-none-eabi/4.9.2/../../../../arm-none-eabi/lib/armv6k/fpu\libg.a(lib_a-fclose.o)
 .bss           0x002107f8        0x0 c:/devkitpro/devkitarm/bin/../lib/gcc/arm-none-eabi/4.9.2/../../../../arm-none-eabi/lib/armv6k/fpu\libg.a(lib_a-fflush.o)
 .bss           0x002107f8        0x0 c:/devkitpro/devkitarm/bin/../lib/gcc/arm-none-eabi/4.9.2/../../../../arm-none-eabi/lib/armv6k/fpu\libg.a(lib_a-findfp.o)
 .bss           0x002107f8        0x0 c:/devkitpro/devkitarm/bin/../lib/gcc/arm-none-eabi/4.9.2/../../../../arm-none-eabi/lib/armv6k/fpu\libg.a(lib_a-fini.o)
 .bss           0x002107f8        0x0 c:/devkitpro/devkitarm/bin/../lib/gcc/arm-none-eabi/4.9.2/../../../../arm-none-eabi/lib/armv6k/fpu\libg.a(lib_a-fopen.o)
 .bss           0x002107f8        0x0 c:/devkitpro/devkitarm/bin/../lib/gcc/arm-none-eabi/4.9.2/../../../../arm-none-eabi/lib/armv6k/fpu\libg.a(lib_a-fprintf.o)
 .bss           0x002107f8        0x0 c:/devkitpro/devkitarm/bin/../lib/gcc/arm-none-eabi/4.9.2/../../../../arm-none-eabi/lib/armv6k/fpu\libg.a(lib_a-fputc.o)
 .bss           0x002107f8        0x0 c:/devkitpro/devkitarm/bin/../lib/gcc/arm-none-eabi/4.9.2/../../../../arm-none-eabi/lib/armv6k/fpu\libg.a(lib_a-fread.o)
 .bss           0x002107f8        0x0 c:/devkitpro/devkitarm/bin/../lib/gcc/arm-none-eabi/4.9.2/../../../../arm-none-eabi/lib/armv6k/fpu\libg.a(lib_a-freer.o)
 .bss           0x002107f8        0x0 c:/devkitpro/devkitarm/bin/../lib/gcc/arm-none-eabi/4.9.2/../../../../arm-none-eabi/lib/armv6k/fpu\libg.a(lib_a-fseek.o)
 .bss           0x002107f8        0x0 c:/devkitpro/devkitarm/bin/../lib/gcc/arm-none-eabi/4.9.2/../../../../arm-none-eabi/lib/armv6k/fpu\libg.a(lib_a-fseeko.o)
 .bss           0x002107f8        0x0 c:/devkitpro/devkitarm/bin/../lib/gcc/arm-none-eabi/4.9.2/../../../../arm-none-eabi/lib/armv6k/fpu\libg.a(lib_a-ftell.o)
 .bss           0x002107f8        0x0 c:/devkitpro/devkitarm/bin/../lib/gcc/arm-none-eabi/4.9.2/../../../../arm-none-eabi/lib/armv6k/fpu\libg.a(lib_a-ftello.o)
 .bss           0x002107f8        0x0 c:/devkitpro/devkitarm/bin/../lib/gcc/arm-none-eabi/4.9.2/../../../../arm-none-eabi/lib/armv6k/fpu\libg.a(lib_a-fwalk.o)
 .bss           0x002107f8        0x0 c:/devkitpro/devkitarm/bin/../lib/gcc/arm-none-eabi/4.9.2/../../../../arm-none-eabi/lib/armv6k/fpu\libg.a(lib_a-fwrite.o)
 .bss           0x002107f8        0x0 c:/devkitpro/devkitarm/bin/../lib/gcc/arm-none-eabi/4.9.2/../../../../arm-none-eabi/lib/armv6k/fpu\libg.a(lib_a-gmtime.o)
 .bss           0x002107f8        0x0 c:/devkitpro/devkitarm/bin/../lib/gcc/arm-none-eabi/4.9.2/../../../../arm-none-eabi/lib/armv6k/fpu\libg.a(lib_a-gmtime_r.o)
 .bss           0x002107f8        0x0 c:/devkitpro/devkitarm/bin/../lib/gcc/arm-none-eabi/4.9.2/../../../../arm-none-eabi/lib/armv6k/fpu\libg.a(lib_a-impure.o)
 .bss           0x002107f8        0x0 c:/devkitpro/devkitarm/bin/../lib/gcc/arm-none-eabi/4.9.2/../../../../arm-none-eabi/lib/armv6k/fpu\libg.a(lib_a-init.o)
 .bss           0x002107f8        0x0 c:/devkitpro/devkitarm/bin/../lib/gcc/arm-none-eabi/4.9.2/../../../../arm-none-eabi/lib/armv6k/fpu\libg.a(lib_a-makebuf.o)
 .bss           0x002107f8        0x0 c:/devkitpro/devkitarm/bin/../lib/gcc/arm-none-eabi/4.9.2/../../../../arm-none-eabi/lib/armv6k/fpu\libg.a(lib_a-malloc.o)
 .bss           0x002107f8        0x0 c:/devkitpro/devkitarm/bin/../lib/gcc/arm-none-eabi/4.9.2/../../../../arm-none-eabi/lib/armv6k/fpu\libg.a(lib_a-mallocr.o)
 .bss           0x002107f8        0x0 c:/devkitpro/devkitarm/bin/../lib/gcc/arm-none-eabi/4.9.2/../../../../arm-none-eabi/lib/armv6k/fpu\libg.a(lib_a-memchr.o)
 .bss           0x002107f8        0x0 c:/devkitpro/devkitarm/bin/../lib/gcc/arm-none-eabi/4.9.2/../../../../arm-none-eabi/lib/armv6k/fpu\libg.a(lib_a-memcmp.o)
 .bss           0x002107f8        0x0 c:/devkitpro/devkitarm/bin/../lib/gcc/arm-none-eabi/4.9.2/../../../../arm-none-eabi/lib/armv6k/fpu\libg.a(lib_a-memcpy.o)
 .bss           0x002107f8        0x0 c:/devkitpro/devkitarm/bin/../lib/gcc/arm-none-eabi/4.9.2/../../../../arm-none-eabi/lib/armv6k/fpu\libg.a(lib_a-memmove.o)
 .bss           0x002107f8        0x0 c:/devkitpro/devkitarm/bin/../lib/gcc/arm-none-eabi/4.9.2/../../../../arm-none-eabi/lib/armv6k/fpu\libg.a(lib_a-memset.o)
 .bss           0x002107f8        0x0 c:/devkitpro/devkitarm/bin/../lib/gcc/arm-none-eabi/4.9.2/../../../../arm-none-eabi/lib/armv6k/fpu\libg.a(lib_a-mlock.o)
 .bss           0x002107f8        0x0 c:/devkitpro/devkitarm/bin/../lib/gcc/arm-none-eabi/4.9.2/../../../../arm-none-eabi/lib/armv6k/fpu\libg.a(lib_a-month_lengths.o)
 .bss           0x002107f8        0x0 c:/devkitpro/devkitarm/bin/../lib/gcc/arm-none-eabi/4.9.2/../../../../arm-none-eabi/lib/armv6k/fpu\libg.a(lib_a-putc.o)
 .bss           0x002107f8        0x0 c:/devkitpro/devkitarm/bin/../lib/gcc/arm-none-eabi/4.9.2/../../../../arm-none-eabi/lib/armv6k/fpu\libg.a(lib_a-qsort.o)
 .bss           0x002107f8        0x0 c:/devkitpro/devkitarm/bin/../lib/gcc/arm-none-eabi/4.9.2/../../../../arm-none-eabi/lib/armv6k/fpu\libg.a(lib_a-realloc.o)
 .bss           0x002107f8        0x0 c:/devkitpro/devkitarm/bin/../lib/gcc/arm-none-eabi/4.9.2/../../../../arm-none-eabi/lib/armv6k/fpu\libg.a(lib_a-reallocr.o)
 .bss           0x002107f8        0x0 c:/devkitpro/devkitarm/bin/../lib/gcc/arm-none-eabi/4.9.2/../../../../arm-none-eabi/lib/armv6k/fpu\libg.a(lib_a-refill.o)
 .bss           0x002107f8        0x0 c:/devkitpro/devkitarm/bin/../lib/gcc/arm-none-eabi/4.9.2/../../../../arm-none-eabi/lib/armv6k/fpu\libg.a(lib_a-remove.o)
 .bss           0x002107f8        0x0 c:/devkitpro/devkitarm/bin/../lib/gcc/arm-none-eabi/4.9.2/../../../../arm-none-eabi/lib/armv6k/fpu\libg.a(lib_a-setjmp.o)
 .bss           0x002107f8        0x0 c:/devkitpro/devkitarm/bin/../lib/gcc/arm-none-eabi/4.9.2/../../../../arm-none-eabi/lib/armv6k/fpu\libg.a(lib_a-signal.o)
 .bss           0x002107f8        0x0 c:/devkitpro/devkitarm/bin/../lib/gcc/arm-none-eabi/4.9.2/../../../../arm-none-eabi/lib/armv6k/fpu\libg.a(lib_a-snprintf.o)
 .bss           0x002107f8        0x0 c:/devkitpro/devkitarm/bin/../lib/gcc/arm-none-eabi/4.9.2/../../../../arm-none-eabi/lib/armv6k/fpu\libg.a(lib_a-sprintf.o)
 .bss           0x002107f8        0x0 c:/devkitpro/devkitarm/bin/../lib/gcc/arm-none-eabi/4.9.2/../../../../arm-none-eabi/lib/armv6k/fpu\libg.a(lib_a-stdio.o)
 .bss           0x002107f8        0x0 c:/devkitpro/devkitarm/bin/../lib/gcc/arm-none-eabi/4.9.2/../../../../arm-none-eabi/lib/armv6k/fpu\libg.a(lib_a-strchr.o)
 .bss           0x002107f8        0x0 c:/devkitpro/devkitarm/bin/../lib/gcc/arm-none-eabi/4.9.2/../../../../arm-none-eabi/lib/armv6k/fpu\libg.a(lib_a-strcmp.o)
 .bss           0x002107f8        0x0 c:/devkitpro/devkitarm/bin/../lib/gcc/arm-none-eabi/4.9.2/../../../../arm-none-eabi/lib/armv6k/fpu\libg.a(lib_a-strcpy.o)
 .bss           0x002107f8        0x0 c:/devkitpro/devkitarm/bin/../lib/gcc/arm-none-eabi/4.9.2/../../../../arm-none-eabi/lib/armv6k/fpu\libg.a(lib_a-strerror.o)
 .bss           0x002107f8        0x0 c:/devkitpro/devkitarm/bin/../lib/gcc/arm-none-eabi/4.9.2/../../../../arm-none-eabi/lib/armv6k/fpu\libg.a(lib_a-strlen.o)
 .bss           0x002107f8        0x0 c:/devkitpro/devkitarm/bin/../lib/gcc/arm-none-eabi/4.9.2/../../../../arm-none-eabi/lib/armv6k/fpu\libg.a(lib_a-strncat.o)
 .bss           0x002107f8        0x0 c:/devkitpro/devkitarm/bin/../lib/gcc/arm-none-eabi/4.9.2/../../../../arm-none-eabi/lib/armv6k/fpu\libg.a(lib_a-strncmp.o)
 .bss           0x002107f8        0x0 c:/devkitpro/devkitarm/bin/../lib/gcc/arm-none-eabi/4.9.2/../../../../arm-none-eabi/lib/armv6k/fpu\libg.a(lib_a-strncpy.o)
 .bss           0x002107f8        0x0 c:/devkitpro/devkitarm/bin/../lib/gcc/arm-none-eabi/4.9.2/../../../../arm-none-eabi/lib/armv6k/fpu\libg.a(lib_a-strrchr.o)
 .bss           0x002107f8        0x0 c:/devkitpro/devkitarm/bin/../lib/gcc/arm-none-eabi/4.9.2/../../../../arm-none-eabi/lib/armv6k/fpu\libg.a(lib_a-strstr.o)
 .bss           0x002107f8        0x0 c:/devkitpro/devkitarm/bin/../lib/gcc/arm-none-eabi/4.9.2/../../../../arm-none-eabi/lib/armv6k/fpu\libg.a(lib_a-strtod.o)
 .bss           0x002107f8        0x0 c:/devkitpro/devkitarm/bin/../lib/gcc/arm-none-eabi/4.9.2/../../../../arm-none-eabi/lib/armv6k/fpu\libg.a(lib_a-strtok.o)
 .bss           0x002107f8        0x0 c:/devkitpro/devkitarm/bin/../lib/gcc/arm-none-eabi/4.9.2/../../../../arm-none-eabi/lib/armv6k/fpu\libg.a(lib_a-strtok_r.o)
 .bss           0x002107f8        0x0 c:/devkitpro/devkitarm/bin/../lib/gcc/arm-none-eabi/4.9.2/../../../../arm-none-eabi/lib/armv6k/fpu\libg.a(lib_a-strtol.o)
 .bss           0x002107f8        0x0 c:/devkitpro/devkitarm/bin/../lib/gcc/arm-none-eabi/4.9.2/../../../../arm-none-eabi/lib/armv6k/fpu\libg.a(lib_a-svfprintf.o)
 .bss           0x002107f8        0x0 c:/devkitpro/devkitarm/bin/../lib/gcc/arm-none-eabi/4.9.2/../../../../arm-none-eabi/lib/armv6k/fpu\libg.a(lib_a-u_strerr.o)
 .bss           0x002107f8        0x0 c:/devkitpro/devkitarm/bin/../lib/gcc/arm-none-eabi/4.9.2/../../../../arm-none-eabi/lib/armv6k/fpu\libg.a(lib_a-vfprintf.o)
 .bss           0x002107f8        0x0 c:/devkitpro/devkitarm/bin/../lib/gcc/arm-none-eabi/4.9.2/../../../../arm-none-eabi/lib/armv6k/fpu\libg.a(lib_a-vsnprintf.o)
 .bss           0x002107f8        0x0 c:/devkitpro/devkitarm/bin/../lib/gcc/arm-none-eabi/4.9.2/../../../../arm-none-eabi/lib/armv6k/fpu\libg.a(lib_a-vswprintf.o)
 .bss           0x002107f8        0x0 c:/devkitpro/devkitarm/bin/../lib/gcc/arm-none-eabi/4.9.2/../../../../arm-none-eabi/lib/armv6k/fpu\libg.a(lib_a-wbuf.o)
 .bss           0x002107f8        0x0 c:/devkitpro/devkitarm/bin/../lib/gcc/arm-none-eabi/4.9.2/../../../../arm-none-eabi/lib/armv6k/fpu\libg.a(lib_a-wcrtomb.o)
 .bss           0x002107f8        0x0 c:/devkitpro/devkitarm/bin/../lib/gcc/arm-none-eabi/4.9.2/../../../../arm-none-eabi/lib/armv6k/fpu\libg.a(lib_a-wcsrtombs.o)
 .bss           0x002107f8        0x0 c:/devkitpro/devkitarm/bin/../lib/gcc/arm-none-eabi/4.9.2/../../../../arm-none-eabi/lib/armv6k/fpu\libg.a(lib_a-wctomb_r.o)
 .bss           0x002107f8        0x0 c:/devkitpro/devkitarm/bin/../lib/gcc/arm-none-eabi/4.9.2/../../../../arm-none-eabi/lib/armv6k/fpu\libg.a(lib_a-wsetup.o)
 .bss           0x002107f8        0x0 c:/devkitpro/devkitarm/bin/../lib/gcc/arm-none-eabi/4.9.2/../../../../arm-none-eabi/lib/armv6k/fpu\libg.a(lib_a-ctype_.o)
 .bss           0x002107f8        0x0 c:/devkitpro/devkitarm/bin/../lib/gcc/arm-none-eabi/4.9.2/../../../../arm-none-eabi/lib/armv6k/fpu\libg.a(lib_a-dtoa.o)
 .bss           0x002107f8        0x0 c:/devkitpro/devkitarm/bin/../lib/gcc/arm-none-eabi/4.9.2/../../../../arm-none-eabi/lib/armv6k/fpu\libg.a(lib_a-flags.o)
 .bss           0x002107f8        0x0 c:/devkitpro/devkitarm/bin/../lib/gcc/arm-none-eabi/4.9.2/../../../../arm-none-eabi/lib/armv6k/fpu\libg.a(lib_a-fvwrite.o)
 .bss           0x002107f8        0x0 c:/devkitpro/devkitarm/bin/../lib/gcc/arm-none-eabi/4.9.2/../../../../arm-none-eabi/lib/armv6k/fpu\libg.a(lib_a-gdtoa-gethex.o)
 .bss           0x002107f8        0x0 c:/devkitpro/devkitarm/bin/../lib/gcc/arm-none-eabi/4.9.2/../../../../arm-none-eabi/lib/armv6k/fpu\libg.a(lib_a-gdtoa-hexnan.o)
 .bss           0x002107f8        0x0 c:/devkitpro/devkitarm/bin/../lib/gcc/arm-none-eabi/4.9.2/../../../../arm-none-eabi/lib/armv6k/fpu\libg.a(lib_a-locale.o)
 .bss           0x002107f8        0x0 c:/devkitpro/devkitarm/bin/../lib/gcc/arm-none-eabi/4.9.2/../../../../arm-none-eabi/lib/armv6k/fpu\libg.a(lib_a-mbtowc_r.o)
 .bss           0x002107f8        0x0 c:/devkitpro/devkitarm/bin/../lib/gcc/arm-none-eabi/4.9.2/../../../../arm-none-eabi/lib/armv6k/fpu\libg.a(lib_a-mprec.o)
 .bss           0x002107f8        0x0 c:/devkitpro/devkitarm/bin/../lib/gcc/arm-none-eabi/4.9.2/../../../../arm-none-eabi/lib/armv6k/fpu\libg.a(lib_a-sf_nan.o)
 .bss           0x002107f8        0x0 c:/devkitpro/devkitarm/bin/../lib/gcc/arm-none-eabi/4.9.2/../../../../arm-none-eabi/lib/armv6k/fpu\libg.a(lib_a-strcasecmp.o)
 .bss           0x002107f8        0x0 c:/devkitpro/devkitarm/bin/../lib/gcc/arm-none-eabi/4.9.2/../../../../arm-none-eabi/lib/armv6k/fpu\libg.a(lib_a-strcat.o)
 .bss           0x002107f8        0x0 c:/devkitpro/devkitarm/bin/../lib/gcc/arm-none-eabi/4.9.2/../../../../arm-none-eabi/lib/armv6k/fpu\libg.a(lib_a-strlcpy.o)
 .bss           0x002107f8        0x0 c:/devkitpro/devkitarm/bin/../lib/gcc/arm-none-eabi/4.9.2/../../../../arm-none-eabi/lib/armv6k/fpu\libg.a(lib_a-strncasecmp.o)
 .bss           0x002107f8        0x0 c:/devkitpro/devkitarm/bin/../lib/gcc/arm-none-eabi/4.9.2/../../../../arm-none-eabi/lib/armv6k/fpu\libg.a(lib_a-svfiprintf.o)
 .bss           0x002107f8        0x0 c:/devkitpro/devkitarm/bin/../lib/gcc/arm-none-eabi/4.9.2/../../../../arm-none-eabi/lib/armv6k/fpu\libg.a(lib_a-svfwprintf.o)
 .bss           0x002107f8        0x0 c:/devkitpro/devkitarm/bin/../lib/gcc/arm-none-eabi/4.9.2/../../../../arm-none-eabi/lib/armv6k/fpu\libg.a(lib_a-vfiprintf.o)
 .bss           0x002107f8        0x0 c:/devkitpro/devkitarm/bin/../lib/gcc/arm-none-eabi/4.9.2/../../../../arm-none-eabi/lib/armv6k/fpu\libg.a(lib_a-wcslen.o)
 .bss           0x002107f8        0x0 c:/devkitpro/devkitarm/bin/../lib/gcc/arm-none-eabi/4.9.2/../../../../arm-none-eabi/lib/armv6k/fpu\libg.a(lib_a-wcsnrtombs.o)
 .bss           0x002107f8        0x0 c:/devkitpro/devkitarm/bin/../lib/gcc/arm-none-eabi/4.9.2/../../../../arm-none-eabi/lib/armv6k/fpu\libg.a(lib_a-wmemchr.o)
 .bss           0x002107f8        0x0 c:/devkitpro/devkitarm/bin/../lib/gcc/arm-none-eabi/4.9.2/../../../../arm-none-eabi/lib/armv6k/fpu\libg.a(lib_a-btowc.o)
 .bss           0x002107f8        0x0 c:/devkitpro/devkitarm/bin/../lib/gcc/arm-none-eabi/4.9.2/../../../../arm-none-eabi/lib/armv6k/fpu\libg.a(lib_a-callocr.o)
 .bss           0x002107f8        0x0 c:/devkitpro/devkitarm/bin/../lib/gcc/arm-none-eabi/4.9.2/../../../../arm-none-eabi/lib/armv6k/fpu\libg.a(lib_a-fputwc.o)
 .bss           0x002107f8        0x0 c:/devkitpro/devkitarm/bin/../lib/gcc/arm-none-eabi/4.9.2/../../../../arm-none-eabi/lib/armv6k/fpu\libg.a(lib_a-getenv_r.o)
 .bss           0x002107f8        0x0 c:/devkitpro/devkitarm/bin/../lib/gcc/arm-none-eabi/4.9.2/../../../../arm-none-eabi/lib/armv6k/fpu\libg.a(lib_a-mbrlen.o)
 .bss           0x002107f8        0x0 c:/devkitpro/devkitarm/bin/../lib/gcc/arm-none-eabi/4.9.2/../../../../arm-none-eabi/lib/armv6k/fpu\libg.a(lib_a-mbrtowc.o)
 .bss           0x002107f8        0x0 c:/devkitpro/devkitarm/bin/../lib/gcc/arm-none-eabi/4.9.2/../../../../arm-none-eabi/lib/armv6k/fpu\libg.a(lib_a-mbsnrtowcs.o)
 .bss           0x002107f8        0x0 c:/devkitpro/devkitarm/bin/../lib/gcc/arm-none-eabi/4.9.2/../../../../arm-none-eabi/lib/armv6k/fpu\libg.a(lib_a-environ.o)
 .bss           0x002107f8        0x0 c:/devkitpro/devkitarm/bin/../lib/gcc/arm-none-eabi/4.9.2/../../../../arm-none-eabi/lib/armv6k/fpu\libg.a(lib_a-envlock.o)
 .bss           0x002107f8        0x0 c:/devkitpro/devkitarm/bin/../lib/gcc/arm-none-eabi/4.9.2/../../../../arm-none-eabi/lib/armv6k/fpu\libsysbase.a(iosupport.o)
 .bss           0x002107f8        0x0 c:/devkitpro/devkitarm/bin/../lib/gcc/arm-none-eabi/4.9.2/../../../../arm-none-eabi/lib/armv6k/fpu\libsysbase.a(close.o)
 .bss           0x002107f8        0x0 c:/devkitpro/devkitarm/bin/../lib/gcc/arm-none-eabi/4.9.2/../../../../arm-none-eabi/lib/armv6k/fpu\libsysbase.a(fstat.o)
 .bss           0x002107f8        0x0 c:/devkitpro/devkitarm/bin/../lib/gcc/arm-none-eabi/4.9.2/../../../../arm-none-eabi/lib/armv6k/fpu\libsysbase.a(getpid.o)
 .bss           0x002107f8        0x0 c:/devkitpro/devkitarm/bin/../lib/gcc/arm-none-eabi/4.9.2/../../../../arm-none-eabi/lib/armv6k/fpu\libsysbase.a(isatty.o)
 .bss           0x002107f8        0x0 c:/devkitpro/devkitarm/bin/../lib/gcc/arm-none-eabi/4.9.2/../../../../arm-none-eabi/lib/armv6k/fpu\libsysbase.a(kill.o)
 .bss           0x002107f8        0x0 c:/devkitpro/devkitarm/bin/../lib/gcc/arm-none-eabi/4.9.2/../../../../arm-none-eabi/lib/armv6k/fpu\libsysbase.a(lseek.o)
 .bss           0x002107f8        0x0 c:/devkitpro/devkitarm/bin/../lib/gcc/arm-none-eabi/4.9.2/../../../../arm-none-eabi/lib/armv6k/fpu\libsysbase.a(open.o)
 .bss           0x002107f8        0x0 c:/devkitpro/devkitarm/bin/../lib/gcc/arm-none-eabi/4.9.2/../../../../arm-none-eabi/lib/armv6k/fpu\libsysbase.a(read.o)
 .bss           0x002107f8        0x4 c:/devkitpro/devkitarm/bin/../lib/gcc/arm-none-eabi/4.9.2/../../../../arm-none-eabi/lib/armv6k/fpu\libsysbase.a(sbrk.o)
 .bss           0x002107fc        0x0 c:/devkitpro/devkitarm/bin/../lib/gcc/arm-none-eabi/4.9.2/../../../../arm-none-eabi/lib/armv6k/fpu\libsysbase.a(unlink.o)
 .bss           0x002107fc        0x0 c:/devkitpro/devkitarm/bin/../lib/gcc/arm-none-eabi/4.9.2/../../../../arm-none-eabi/lib/armv6k/fpu\libsysbase.a(write.o)
 .bss           0x002107fc        0x0 c:/devkitpro/devkitarm/bin/../lib/gcc/arm-none-eabi/4.9.2/../../../../arm-none-eabi/lib/armv6k/fpu\libsysbase.a(_exit.o)
 .bss           0x002107fc        0x8 c:/devkitpro/devkitarm/bin/../lib/gcc/arm-none-eabi/4.9.2/../../../../arm-none-eabi/lib/armv6k/fpu\libsysbase.a(malloc_vars.o)
                0x002107fc                fake_heap_start
                0x00210800                fake_heap_end
 .bss           0x00210804     0x1000 c:/devkitpro/devkitarm/bin/../lib/gcc/arm-none-eabi/4.9.2/../../../../arm-none-eabi/lib/armv6k/fpu\libsysbase.a(chdir.o)
 .bss           0x00211804        0x0 c:/devkitpro/devkitarm/bin/../lib/gcc/arm-none-eabi/4.9.2/../../../../arm-none-eabi/lib/armv6k/fpu\libsysbase.a(flock.o)
 .bss           0x00211804       0x40 c:/devkitpro/devkitarm/bin/../lib/gcc/arm-none-eabi/4.9.2/../../../../arm-none-eabi/lib/armv6k/fpu\libsysbase.a(syscall_support.o)
                0x00211804                __syscalls
 .bss           0x00211844        0x0 c:/devkitpro/devkitarm/bin/../lib/gcc/arm-none-eabi/4.9.2/../../../../arm-none-eabi/lib/armv6k/fpu\libsysbase.a(handle_manager.o)
 .bss           0x00211844        0x0 c:/devkitpro/devkitarm/bin/../lib/gcc/arm-none-eabi/4.9.2/../../../../arm-none-eabi/lib/armv6k/fpu\libsysbase.a(getreent.o)
 .bss           0x00211844        0x0 c:/devkitpro/devkitarm/bin/../lib/gcc/arm-none-eabi/4.9.2/armv6k/fpu\libgcc.a(_aeabi_uldivmod.o)
 .bss           0x00211844        0x0 c:/devkitpro/devkitarm/bin/../lib/gcc/arm-none-eabi/4.9.2/armv6k/fpu\libgcc.a(bpabi.o)
 .bss           0x00211844        0x0 c:/devkitpro/devkitarm/bin/../lib/gcc/arm-none-eabi/4.9.2/armv6k/fpu\libgcc.a(_divdi3.o)
 .bss           0x00211844        0x0 c:/devkitpro/devkitarm/bin/../lib/gcc/arm-none-eabi/4.9.2/armv6k/fpu\libgcc.a(_udivdi3.o)
 .bss           0x00211844        0x0 c:/devkitpro/devkitarm/bin/../lib/gcc/arm-none-eabi/4.9.2/../../../../arm-none-eabi/lib/armv6k/fpu\libg.a(lib_a-strnlen.o)
 .bss           0x00211844        0x0 c:/devkitpro/devkitarm/bin/../lib/gcc/arm-none-eabi/4.9.2/armv6k/fpu/crtend.o
 .bss           0x00211844        0x0 c:/devkitpro/devkitarm/bin/../lib/gcc/arm-none-eabi/4.9.2/armv6k/fpu/crtn.o
 *(.bss.*)
 .bss.__malloc_max_total_mem
                0x00211844        0x4 c:/devkitpro/devkitarm/bin/../lib/gcc/arm-none-eabi/4.9.2/../../../../arm-none-eabi/lib/armv6k/fpu\libg.a(lib_a-mallocr.o)
                0x00211844                __malloc_max_total_mem
 .bss.__malloc_max_sbrked_mem
                0x00211848        0x4 c:/devkitpro/devkitarm/bin/../lib/gcc/arm-none-eabi/4.9.2/../../../../arm-none-eabi/lib/armv6k/fpu\libg.a(lib_a-mallocr.o)
                0x00211848                __malloc_max_sbrked_mem
 .bss.__malloc_top_pad
                0x0021184c        0x4 c:/devkitpro/devkitarm/bin/../lib/gcc/arm-none-eabi/4.9.2/../../../../arm-none-eabi/lib/armv6k/fpu\libg.a(lib_a-mallocr.o)
                0x0021184c                __malloc_top_pad
 .bss.__malloc_current_mallinfo
                0x00211850       0x28 c:/devkitpro/devkitarm/bin/../lib/gcc/arm-none-eabi/4.9.2/../../../../arm-none-eabi/lib/armv6k/fpu\libg.a(lib_a-mallocr.o)
                0x00211850                __malloc_current_mallinfo
 .bss._PathLocale
                0x00211878        0x4 c:/devkitpro/devkitarm/bin/../lib/gcc/arm-none-eabi/4.9.2/../../../../arm-none-eabi/lib/armv6k/fpu\libg.a(lib_a-locale.o)
                0x00211878                _PathLocale
 .bss.__nlocale_changed
                0x0021187c        0x4 c:/devkitpro/devkitarm/bin/../lib/gcc/arm-none-eabi/4.9.2/../../../../arm-none-eabi/lib/armv6k/fpu\libg.a(lib_a-locale.o)
                0x0021187c                __nlocale_changed
 .bss.__mlocale_changed
                0x00211880        0x4 c:/devkitpro/devkitarm/bin/../lib/gcc/arm-none-eabi/4.9.2/../../../../arm-none-eabi/lib/armv6k/fpu\libg.a(lib_a-locale.o)
                0x00211880                __mlocale_changed
 .bss.lc_ctype_cjk_lang
                0x00211884        0x4 c:/devkitpro/devkitarm/bin/../lib/gcc/arm-none-eabi/4.9.2/../../../../arm-none-eabi/lib/armv6k/fpu\libg.a(lib_a-locale.o)
 .bss.new_categories
                0x00211888       0xe0 c:/devkitpro/devkitarm/bin/../lib/gcc/arm-none-eabi/4.9.2/../../../../arm-none-eabi/lib/armv6k/fpu\libg.a(lib_a-locale.o)
 .bss.current_locale_string
                0x00211968       0xe8 c:/devkitpro/devkitarm/bin/../lib/gcc/arm-none-eabi/4.9.2/../../../../arm-none-eabi/lib/armv6k/fpu\libg.a(lib_a-locale.o)
 .bss.saved_categories
                0x00211a50       0xe0 c:/devkitpro/devkitarm/bin/../lib/gcc/arm-none-eabi/4.9.2/../../../../arm-none-eabi/lib/armv6k/fpu\libg.a(lib_a-locale.o)
 .bss.initial_env
                0x00211b30        0x4 c:/devkitpro/devkitarm/bin/../lib/gcc/arm-none-eabi/4.9.2/../../../../arm-none-eabi/lib/armv6k/fpu\libg.a(lib_a-environ.o)
 *(.gnu.linkonce.b*)
 *(COMMON)
 COMMON         0x00211b34       0x34 main.o
                0x00211b34                player_y
                0x00211b38                curr_room
                0x00211b3c                tex_torielHouse1
                0x00211b40                room_x2
                0x00211b44                font
                0x00211b48                curr_tex
                0x00211b4c                tex_torielHouse2
                0x00211b50                room_y2
                0x00211b54                buffer
                0x00211b58                room_x1
                0x00211b5c                size
                0x00211b60                room_y1
                0x00211b64                player_x
 COMMON         0x00211b68       0x60 c:/devkitPro/libctru/lib\libctru.a(gfx.o)
                0x00211b68                gfxBottomFramebuffers
                0x00211b70                gspSharedMemHandle
                0x00211b74                bottomFramebufferInfo
                0x00211b90                gspEvent
                0x00211b94                gfxTopLeftFramebuffers
                0x00211b9c                gfxTopRightFramebuffers
                0x00211ba4                topFramebufferInfo
                0x00211bc0                gfxThreadID
                0x00211bc4                gfxSharedMemory
 COMMON         0x00211bc8        0xc c:/devkitPro/libctru/lib\libctru.a(gpu.o)
                0x00211bc8                gpuCmdBuf
                0x00211bcc                gpuCmdBufOffset
                0x00211bd0                gpuCmdBufSize
 *fill*         0x00211bd4        0x4 
 COMMON         0x00211bd8     0x2022 c:/devkitPro/libctru/lib\libctru.a(apt.o)
                0x00211bd8                aptEventHandlerThread
                0x00211bdc                aptParameters
                0x00212be0                aptEventHandlerStack
                0x00213be0                aptuHandle
                0x00213be4                aptEvents
                0x00213bf0                aptStatusMutex
                0x00213bf4                aptLockHandle
                0x00213bf8                currentAppId
 *fill*         0x00213bfa        0x2 
 COMMON         0x00213bfc       0x14 c:/devkitPro/libctru/lib\libctru.a(csnd.o)
                0x00213bfc                csndSharedMemSize
                0x00213c00                csndOffsets
 COMMON         0x00213c10     0x103d c:/devkitPro/libctru/lib\libctru.a(gsp.o)
                0x00213c10                gspEventStack
                0x00214c10                gspEventThread
                0x00214c14                gspEventCounts
                0x00214c30                gspEvents
                0x00214c4c                gspRunEvents
 *fill*         0x00214c4d        0x3 
 COMMON         0x00214c50        0x4 c:/devkitPro/libctru/lib\libctru.a(gx.o)
                0x00214c50                gxCmdBuf
 COMMON         0x00214c54       0x20 c:/devkitPro/libctru/lib\libctru.a(hid.o)
                0x00214c54                hidMemHandle
                0x00214c58                hidHandle
                0x00214c5c                hidSharedMem
                0x00214c60                hidEvents
 COMMON         0x00214c74       0x10 c:/devkitPro/libctru/lib\libctru.a(irrst.o)
                0x00214c74                irrstHandle
                0x00214c78                irrstEvent
                0x00214c7c                irrstMemHandle
                0x00214c80                irrstSharedMem
 COMMON         0x00214c84        0x8 c:/devkitPro/libctru/lib\libctru.a(allocateHeaps.o)
                0x00214c84                __heapBase
                0x00214c88                __linear_heap
 COMMON         0x00214c8c        0x8 c:/devkitPro/libctru/lib\libctru.a(initArgv.o)
                0x00214c8c                __system_argv
                0x00214c90                __system_argc
 COMMON         0x00214c94        0x4 c:/devkitPro/libctru/lib\libctru.a(initSystem.o)
                0x00214c94                __system_retAddr
                0x00214c98                . = ALIGN (0x4)
                0x00214c98                __bss_end__ = .
                0x00214c98                __end__ = ABSOLUTE (.)

/DISCARD/
 *(.group .comment .note)

.stab
 *(.stab)

.stabstr
 *(.stabstr)

.stab.excl
 *(.stab.excl)

.stab.exclstr
 *(.stab.exclstr)

.stab.index
 *(.stab.index)

.stab.indexstr
 *(.stab.indexstr)

.debug
 *(.debug)

.line
 *(.line)

.debug_srcinfo
 *(.debug_srcinfo)

.debug_sfnames
 *(.debug_sfnames)

.debug_aranges  0x00000000      0x660
 *(.debug_aranges)
 .debug_aranges
                0x00000000       0x28 main.o
 .debug_aranges
                0x00000028       0x20 c:/devkitPro/libctru/lib\libsfil.a(sfil_png.o)
 .debug_aranges
                0x00000048       0x20 c:/devkitPro/libctru/lib\libsftd.a(sftd.o)
 .debug_aranges
                0x00000068       0x20 c:/devkitPro/libctru/lib\libsftd.a(texture_atlas.o)
 .debug_aranges
                0x00000088       0x20 c:/devkitPro/libctru/lib\libsftd.a(bin_packing_2d.o)
 .debug_aranges
                0x000000a8       0x20 c:/devkitPro/libctru/lib\libsftd.a(int_htab.o)
 .debug_aranges
                0x000000c8       0x20 c:/devkitPro/libctru/lib\libsf2d.a(sf2d.o)
 .debug_aranges
                0x000000e8       0x20 c:/devkitPro/libctru/lib\libsf2d.a(sf2d_private.o)
 .debug_aranges
                0x00000108       0x20 c:/devkitPro/libctru/lib\libsf2d.a(sf2d_texture.o)
 .debug_aranges
                0x00000128       0x20 c:/devkitPro/libctru/lib\libctru.a(linear.o)
 .debug_aranges
                0x00000148       0x20 c:/devkitPro/libctru/lib\libctru.a(mem_pool.o)
 .debug_aranges
                0x00000168       0x20 c:/devkitPro/libctru/lib\libctru.a(vram.o)
 .debug_aranges
                0x00000188       0x20 c:/devkitPro/libctru/lib\libctru.a(gfx.o)
 .debug_aranges
                0x000001a8       0x20 c:/devkitPro/libctru/lib\libctru.a(os.o)
 .debug_aranges
                0x000001c8       0x20 c:/devkitPro/libctru/lib\libctru.a(romfs_dev.o)
 .debug_aranges
                0x000001e8       0x20 c:/devkitPro/libctru/lib\libctru.a(srv.o)
 .debug_aranges
                0x00000208       0x20 c:/devkitPro/libctru/lib\libctru.a(gpu.o)
 .debug_aranges
                0x00000228       0x18 c:/devkitPro/libctru/lib\libctru.a(gpuResetSequence.o)
 .debug_aranges
                0x00000240       0x20 c:/devkitPro/libctru/lib\libctru.a(shaderProgram.o)
 .debug_aranges
                0x00000260       0x20 c:/devkitPro/libctru/lib\libctru.a(shbin.o)
 .debug_aranges
                0x00000280       0x20 c:/devkitPro/libctru/lib\libctru.a(apt.o)
 .debug_aranges
                0x000002a0       0x20 c:/devkitPro/libctru/lib\libctru.a(cfgu.o)
 .debug_aranges
                0x000002c0       0x20 c:/devkitPro/libctru/lib\libctru.a(csnd.o)
 .debug_aranges
                0x000002e0       0x20 c:/devkitPro/libctru/lib\libctru.a(fs.o)
 .debug_aranges
                0x00000300       0x20 c:/devkitPro/libctru/lib\libctru.a(gsp.o)
 .debug_aranges
                0x00000320       0x20 c:/devkitPro/libctru/lib\libctru.a(gx.o)
 .debug_aranges
                0x00000340       0x20 c:/devkitPro/libctru/lib\libctru.a(hid.o)
 .debug_aranges
                0x00000360       0x20 c:/devkitPro/libctru/lib\libctru.a(irrst.o)
 .debug_aranges
                0x00000380       0x20 c:/devkitPro/libctru/lib\libctru.a(ptm.o)
 .debug_aranges
                0x000003a0       0x20 c:/devkitPro/libctru/lib\libctru.a(rbtree_find.o)
 .debug_aranges
                0x000003c0       0x20 c:/devkitPro/libctru/lib\libctru.a(rbtree_init.o)
 .debug_aranges
                0x000003e0       0x20 c:/devkitPro/libctru/lib\libctru.a(rbtree_insert.o)
 .debug_aranges
                0x00000400       0x20 c:/devkitPro/libctru/lib\libctru.a(rbtree_remove.o)
 .debug_aranges
                0x00000420       0x20 c:/devkitPro/libctru/lib\libctru.a(rbtree_rotate.o)
 .debug_aranges
                0x00000440       0x20 c:/devkitPro/libctru/lib\libctru.a(utf8_to_utf16.o)
 .debug_aranges
                0x00000460       0x20 c:/devkitPro/libctru/lib\libctru.a(allocateHeaps.o)
 .debug_aranges
                0x00000480       0x20 c:/devkitPro/libctru/lib\libctru.a(initArgv.o)
 .debug_aranges
                0x000004a0       0x20 c:/devkitPro/libctru/lib\libctru.a(initSystem.o)
 .debug_aranges
                0x000004c0       0x20 c:/devkitPro/libctru/lib\libctru.a(svc.o)
 .debug_aranges
                0x000004e0       0x20 c:/devkitPro/libctru/lib\libctru.a(stack_adjust.o)
 .debug_aranges
                0x00000500       0x20 c:/devkitPro/libctru/lib\libctru.a(mappable.o)
 .debug_aranges
                0x00000520       0x20 c:/devkitPro/libctru/lib\libctru.a(rbtree_iterator.o)
 .debug_aranges
                0x00000540       0x20 c:/devkitPro/libctru/lib\libctru.a(decode_utf8.o)
 .debug_aranges
                0x00000560       0x20 c:/devkitPro/libctru/lib\libctru.a(encode_utf16.o)
 .debug_aranges
                0x00000580       0x20 c:/devkitPro/libctru/lib\libctru.a(appExit.o)
 .debug_aranges
                0x000005a0       0x20 c:/devkitPro/libctru/lib\libctru.a(appInit.o)
 .debug_aranges
                0x000005c0       0x20 c:/devkitPro/libctru/lib\libctru.a(ctru_exit.o)
 .debug_aranges
                0x000005e0       0x20 c:/devkitPro/libctru/lib\libctru.a(sdmc_dev.o)
 .debug_aranges
                0x00000600       0x20 c:/devkitPro/libctru/lib\libctru.a(utf16_to_utf8.o)
 .debug_aranges
                0x00000620       0x20 c:/devkitPro/libctru/lib\libctru.a(decode_utf16.o)
 .debug_aranges
                0x00000640       0x20 c:/devkitPro/libctru/lib\libctru.a(encode_utf8.o)

.debug_pubnames
 *(.debug_pubnames)

.debug_info     0x00000000    0x27585
 *(.debug_info)
 .debug_info    0x00000000     0x1a91 main.o
 .debug_info    0x00001a91     0x1470 c:/devkitPro/libctru/lib\libsfil.a(sfil_png.o)
 .debug_info    0x00002f01     0x317e c:/devkitPro/libctru/lib\libsftd.a(sftd.o)
 .debug_info    0x0000607f      0x92e c:/devkitPro/libctru/lib\libsftd.a(texture_atlas.o)
 .debug_info    0x000069ad      0x346 c:/devkitPro/libctru/lib\libsftd.a(bin_packing_2d.o)
 .debug_info    0x00006cf3      0x49c c:/devkitPro/libctru/lib\libsftd.a(int_htab.o)
 .debug_info    0x0000718f     0x17d0 c:/devkitPro/libctru/lib\libsf2d.a(sf2d.o)
 .debug_info    0x0000895f      0x7a2 c:/devkitPro/libctru/lib\libsf2d.a(sf2d_private.o)
 .debug_info    0x00009101     0x34a2 c:/devkitPro/libctru/lib\libsf2d.a(sf2d_texture.o)
 .debug_info    0x0000c5a3      0x975 c:/devkitPro/libctru/lib\libctru.a(linear.o)
 .debug_info    0x0000cf18      0x8ed c:/devkitPro/libctru/lib\libctru.a(mem_pool.o)
 .debug_info    0x0000d805      0x95f c:/devkitPro/libctru/lib\libctru.a(vram.o)
 .debug_info    0x0000e164      0xdb0 c:/devkitPro/libctru/lib\libctru.a(gfx.o)
 .debug_info    0x0000ef14     0x1273 c:/devkitPro/libctru/lib\libctru.a(os.o)
 .debug_info    0x00010187     0x2397 c:/devkitPro/libctru/lib\libctru.a(romfs_dev.o)
 .debug_info    0x0001251e      0x828 c:/devkitPro/libctru/lib\libctru.a(srv.o)
 .debug_info    0x00012d46     0x28dc c:/devkitPro/libctru/lib\libctru.a(gpu.o)
 .debug_info    0x00015622       0xbb c:/devkitPro/libctru/lib\libctru.a(gpuResetSequence.o)
 .debug_info    0x000156dd      0xc8d c:/devkitPro/libctru/lib\libctru.a(shaderProgram.o)
 .debug_info    0x0001636a      0x6ef c:/devkitPro/libctru/lib\libctru.a(shbin.o)
 .debug_info    0x00016a59     0x3840 c:/devkitPro/libctru/lib\libctru.a(apt.o)
 .debug_info    0x0001a299      0x726 c:/devkitPro/libctru/lib\libctru.a(cfgu.o)
 .debug_info    0x0001a9bf     0x197c c:/devkitPro/libctru/lib\libctru.a(csnd.o)
 .debug_info    0x0001c33b     0x18a0 c:/devkitPro/libctru/lib\libctru.a(fs.o)
 .debug_info    0x0001dbdb     0x1313 c:/devkitPro/libctru/lib\libctru.a(gsp.o)
 .debug_info    0x0001eeee      0x4e7 c:/devkitPro/libctru/lib\libctru.a(gx.o)
 .debug_info    0x0001f3d5      0xe5d c:/devkitPro/libctru/lib\libctru.a(hid.o)
 .debug_info    0x00020232      0x7bb c:/devkitPro/libctru/lib\libctru.a(irrst.o)
 .debug_info    0x000209ed      0x59c c:/devkitPro/libctru/lib\libctru.a(ptm.o)
 .debug_info    0x00020f89      0x1c9 c:/devkitPro/libctru/lib\libctru.a(rbtree_find.o)
 .debug_info    0x00021152      0x178 c:/devkitPro/libctru/lib\libctru.a(rbtree_init.o)
 .debug_info    0x000212ca      0x60c c:/devkitPro/libctru/lib\libctru.a(rbtree_insert.o)
 .debug_info    0x000218d6      0x838 c:/devkitPro/libctru/lib\libctru.a(rbtree_remove.o)
 .debug_info    0x0002210e      0x2ec c:/devkitPro/libctru/lib\libctru.a(rbtree_rotate.o)
 .debug_info    0x000223fa      0x1d9 c:/devkitPro/libctru/lib\libctru.a(utf8_to_utf16.o)
 .debug_info    0x000225d3      0x269 c:/devkitPro/libctru/lib\libctru.a(allocateHeaps.o)
 .debug_info    0x0002283c      0x165 c:/devkitPro/libctru/lib\libctru.a(initArgv.o)
 .debug_info    0x000229a1      0xacb c:/devkitPro/libctru/lib\libctru.a(initSystem.o)
 .debug_info    0x0002346c       0x63 c:/devkitPro/libctru/lib\libctru.a(svc.o)
 .debug_info    0x000234cf       0x73 c:/devkitPro/libctru/lib\libctru.a(stack_adjust.o)
 .debug_info    0x00023542      0x8d0 c:/devkitPro/libctru/lib\libctru.a(mappable.o)
 .debug_info    0x00023e12      0x2a3 c:/devkitPro/libctru/lib\libctru.a(rbtree_iterator.o)
 .debug_info    0x000240b5      0x13c c:/devkitPro/libctru/lib\libctru.a(decode_utf8.o)
 .debug_info    0x000241f1       0xf5 c:/devkitPro/libctru/lib\libctru.a(encode_utf16.o)
 .debug_info    0x000242e6      0x122 c:/devkitPro/libctru/lib\libctru.a(appExit.o)
 .debug_info    0x00024408      0x12e c:/devkitPro/libctru/lib\libctru.a(appInit.o)
 .debug_info    0x00024536      0x26e c:/devkitPro/libctru/lib\libctru.a(ctru_exit.o)
 .debug_info    0x000247a4     0x29f7 c:/devkitPro/libctru/lib\libctru.a(sdmc_dev.o)
 .debug_info    0x0002719b      0x1d9 c:/devkitPro/libctru/lib\libctru.a(utf16_to_utf8.o)
 .debug_info    0x00027374      0x11c c:/devkitPro/libctru/lib\libctru.a(decode_utf16.o)
 .debug_info    0x00027490       0xf5 c:/devkitPro/libctru/lib\libctru.a(encode_utf8.o)

.debug_abbrev   0x00000000     0x6d93
 *(.debug_abbrev)
 .debug_abbrev  0x00000000      0x396 main.o
 .debug_abbrev  0x00000396      0x2ea c:/devkitPro/libctru/lib\libsfil.a(sfil_png.o)
 .debug_abbrev  0x00000680      0x46d c:/devkitPro/libctru/lib\libsftd.a(sftd.o)
 .debug_abbrev  0x00000aed      0x1d2 c:/devkitPro/libctru/lib\libsftd.a(texture_atlas.o)
 .debug_abbrev  0x00000cbf      0x156 c:/devkitPro/libctru/lib\libsftd.a(bin_packing_2d.o)
 .debug_abbrev  0x00000e15      0x228 c:/devkitPro/libctru/lib\libsftd.a(int_htab.o)
 .debug_abbrev  0x0000103d      0x3ed c:/devkitPro/libctru/lib\libsf2d.a(sf2d.o)
 .debug_abbrev  0x0000142a      0x236 c:/devkitPro/libctru/lib\libsf2d.a(sf2d_private.o)
 .debug_abbrev  0x00001660      0x3ff c:/devkitPro/libctru/lib\libsf2d.a(sf2d_texture.o)
 .debug_abbrev  0x00001a5f      0x30f c:/devkitPro/libctru/lib\libctru.a(linear.o)
 .debug_abbrev  0x00001d6e      0x286 c:/devkitPro/libctru/lib\libctru.a(mem_pool.o)
 .debug_abbrev  0x00001ff4      0x2fe c:/devkitPro/libctru/lib\libctru.a(vram.o)
 .debug_abbrev  0x000022f2      0x320 c:/devkitPro/libctru/lib\libctru.a(gfx.o)
 .debug_abbrev  0x00002612      0x40a c:/devkitPro/libctru/lib\libctru.a(os.o)
 .debug_abbrev  0x00002a1c      0x47f c:/devkitPro/libctru/lib\libctru.a(romfs_dev.o)
 .debug_abbrev  0x00002e9b      0x26d c:/devkitPro/libctru/lib\libctru.a(srv.o)
 .debug_abbrev  0x00003108      0x37c c:/devkitPro/libctru/lib\libctru.a(gpu.o)
 .debug_abbrev  0x00003484       0x61 c:/devkitPro/libctru/lib\libctru.a(gpuResetSequence.o)
 .debug_abbrev  0x000034e5      0x25f c:/devkitPro/libctru/lib\libctru.a(shaderProgram.o)
 .debug_abbrev  0x00003744      0x246 c:/devkitPro/libctru/lib\libctru.a(shbin.o)
 .debug_abbrev  0x0000398a      0x4bb c:/devkitPro/libctru/lib\libctru.a(apt.o)
 .debug_abbrev  0x00003e45      0x197 c:/devkitPro/libctru/lib\libctru.a(cfgu.o)
 .debug_abbrev  0x00003fdc      0x469 c:/devkitPro/libctru/lib\libctru.a(csnd.o)
 .debug_abbrev  0x00004445      0x2d3 c:/devkitPro/libctru/lib\libctru.a(fs.o)
 .debug_abbrev  0x00004718      0x3c5 c:/devkitPro/libctru/lib\libctru.a(gsp.o)
 .debug_abbrev  0x00004add       0xf9 c:/devkitPro/libctru/lib\libctru.a(gx.o)
 .debug_abbrev  0x00004bd6      0x38a c:/devkitPro/libctru/lib\libctru.a(hid.o)
 .debug_abbrev  0x00004f60      0x2e2 c:/devkitPro/libctru/lib\libctru.a(irrst.o)
 .debug_abbrev  0x00005242      0x1b2 c:/devkitPro/libctru/lib\libctru.a(ptm.o)
 .debug_abbrev  0x000053f4       0xec c:/devkitPro/libctru/lib\libctru.a(rbtree_find.o)
 .debug_abbrev  0x000054e0       0xb0 c:/devkitPro/libctru/lib\libctru.a(rbtree_init.o)
 .debug_abbrev  0x00005590      0x21d c:/devkitPro/libctru/lib\libctru.a(rbtree_insert.o)
 .debug_abbrev  0x000057ad      0x205 c:/devkitPro/libctru/lib\libctru.a(rbtree_remove.o)
 .debug_abbrev  0x000059b2      0x170 c:/devkitPro/libctru/lib\libctru.a(rbtree_rotate.o)
 .debug_abbrev  0x00005b22      0x102 c:/devkitPro/libctru/lib\libctru.a(utf8_to_utf16.o)
 .debug_abbrev  0x00005c24       0xea c:/devkitPro/libctru/lib\libctru.a(allocateHeaps.o)
 .debug_abbrev  0x00005d0e       0xdb c:/devkitPro/libctru/lib\libctru.a(initArgv.o)
 .debug_abbrev  0x00005de9      0x1f4 c:/devkitPro/libctru/lib\libctru.a(initSystem.o)
 .debug_abbrev  0x00005fdd       0x14 c:/devkitPro/libctru/lib\libctru.a(svc.o)
 .debug_abbrev  0x00005ff1       0x14 c:/devkitPro/libctru/lib\libctru.a(stack_adjust.o)
 .debug_abbrev  0x00006005      0x2ef c:/devkitPro/libctru/lib\libctru.a(mappable.o)
 .debug_abbrev  0x000062f4      0x163 c:/devkitPro/libctru/lib\libctru.a(rbtree_iterator.o)
 .debug_abbrev  0x00006457       0x7f c:/devkitPro/libctru/lib\libctru.a(decode_utf8.o)
 .debug_abbrev  0x000064d6       0x69 c:/devkitPro/libctru/lib\libctru.a(encode_utf16.o)
 .debug_abbrev  0x0000653f       0xad c:/devkitPro/libctru/lib\libctru.a(appExit.o)
 .debug_abbrev  0x000065ec       0x9e c:/devkitPro/libctru/lib\libctru.a(appInit.o)
 .debug_abbrev  0x0000668a      0x116 c:/devkitPro/libctru/lib\libctru.a(ctru_exit.o)
 .debug_abbrev  0x000067a0      0x3fa c:/devkitPro/libctru/lib\libctru.a(sdmc_dev.o)
 .debug_abbrev  0x00006b9a      0x102 c:/devkitPro/libctru/lib\libctru.a(utf16_to_utf8.o)
 .debug_abbrev  0x00006c9c       0x8e c:/devkitPro/libctru/lib\libctru.a(decode_utf16.o)
 .debug_abbrev  0x00006d2a       0x69 c:/devkitPro/libctru/lib\libctru.a(encode_utf8.o)

.debug_line     0x00000000     0x8935
 *(.debug_line)
 .debug_line    0x00000000      0x5fa main.o
 .debug_line    0x000005fa      0x2eb c:/devkitPro/libctru/lib\libsfil.a(sfil_png.o)
 .debug_line    0x000008e5      0x5f5 c:/devkitPro/libctru/lib\libsftd.a(sftd.o)
 .debug_line    0x00000eda      0x277 c:/devkitPro/libctru/lib\libsftd.a(texture_atlas.o)
 .debug_line    0x00001151      0x17b c:/devkitPro/libctru/lib\libsftd.a(bin_packing_2d.o)
 .debug_line    0x000012cc      0x1af c:/devkitPro/libctru/lib\libsftd.a(int_htab.o)
 .debug_line    0x0000147b      0x373 c:/devkitPro/libctru/lib\libsf2d.a(sf2d.o)
 .debug_line    0x000017ee      0x26b c:/devkitPro/libctru/lib\libsf2d.a(sf2d_private.o)
 .debug_line    0x00001a59      0xa0f c:/devkitPro/libctru/lib\libsf2d.a(sf2d_texture.o)
 .debug_line    0x00002468      0x233 c:/devkitPro/libctru/lib\libctru.a(linear.o)
 .debug_line    0x0000269b      0x2d4 c:/devkitPro/libctru/lib\libctru.a(mem_pool.o)
 .debug_line    0x0000296f      0x230 c:/devkitPro/libctru/lib\libctru.a(vram.o)
 .debug_line    0x00002b9f      0x2bb c:/devkitPro/libctru/lib\libctru.a(gfx.o)
 .debug_line    0x00002e5a      0x31f c:/devkitPro/libctru/lib\libctru.a(os.o)
 .debug_line    0x00003179      0x458 c:/devkitPro/libctru/lib\libctru.a(romfs_dev.o)
 .debug_line    0x000035d1      0x24e c:/devkitPro/libctru/lib\libctru.a(srv.o)
 .debug_line    0x0000381f      0x46f c:/devkitPro/libctru/lib\libctru.a(gpu.o)
 .debug_line    0x00003c8e      0x101 c:/devkitPro/libctru/lib\libctru.a(gpuResetSequence.o)
 .debug_line    0x00003d8f      0x305 c:/devkitPro/libctru/lib\libctru.a(shaderProgram.o)
 .debug_line    0x00004094      0x2b0 c:/devkitPro/libctru/lib\libctru.a(shbin.o)
 .debug_line    0x00004344      0x838 c:/devkitPro/libctru/lib\libctru.a(apt.o)
 .debug_line    0x00004b7c      0x1f5 c:/devkitPro/libctru/lib\libctru.a(cfgu.o)
 .debug_line    0x00004d71      0x44e c:/devkitPro/libctru/lib\libctru.a(csnd.o)
 .debug_line    0x000051bf      0x5fb c:/devkitPro/libctru/lib\libctru.a(fs.o)
 .debug_line    0x000057ba      0x39e c:/devkitPro/libctru/lib\libctru.a(gsp.o)
 .debug_line    0x00005b58      0x1dd c:/devkitPro/libctru/lib\libctru.a(gx.o)
 .debug_line    0x00005d35      0x318 c:/devkitPro/libctru/lib\libctru.a(hid.o)
 .debug_line    0x0000604d      0x270 c:/devkitPro/libctru/lib\libctru.a(irrst.o)
 .debug_line    0x000062bd      0x1ac c:/devkitPro/libctru/lib\libctru.a(ptm.o)
 .debug_line    0x00006469      0x174 c:/devkitPro/libctru/lib\libctru.a(rbtree_find.o)
 .debug_line    0x000065dd      0x162 c:/devkitPro/libctru/lib\libctru.a(rbtree_init.o)
 .debug_line    0x0000673f      0x22c c:/devkitPro/libctru/lib\libctru.a(rbtree_insert.o)
 .debug_line    0x0000696b      0x2cd c:/devkitPro/libctru/lib\libctru.a(rbtree_remove.o)
 .debug_line    0x00006c38      0x1bd c:/devkitPro/libctru/lib\libctru.a(rbtree_rotate.o)
 .debug_line    0x00006df5      0x1c5 c:/devkitPro/libctru/lib\libctru.a(utf8_to_utf16.o)
 .debug_line    0x00006fba      0x12c c:/devkitPro/libctru/lib\libctru.a(allocateHeaps.o)
 .debug_line    0x000070e6      0x159 c:/devkitPro/libctru/lib\libctru.a(initArgv.o)
 .debug_line    0x0000723f      0x126 c:/devkitPro/libctru/lib\libctru.a(initSystem.o)
 .debug_line    0x00007365      0x164 c:/devkitPro/libctru/lib\libctru.a(svc.o)
 .debug_line    0x000074c9       0x79 c:/devkitPro/libctru/lib\libctru.a(stack_adjust.o)
 .debug_line    0x00007542      0x218 c:/devkitPro/libctru/lib\libctru.a(mappable.o)
 .debug_line    0x0000775a      0x159 c:/devkitPro/libctru/lib\libctru.a(rbtree_iterator.o)
 .debug_line    0x000078b3      0x163 c:/devkitPro/libctru/lib\libctru.a(decode_utf8.o)
 .debug_line    0x00007a16      0x140 c:/devkitPro/libctru/lib\libctru.a(encode_utf16.o)
 .debug_line    0x00007b56      0x165 c:/devkitPro/libctru/lib\libctru.a(appExit.o)
 .debug_line    0x00007cbb      0x165 c:/devkitPro/libctru/lib\libctru.a(appInit.o)
 .debug_line    0x00007e20      0x122 c:/devkitPro/libctru/lib\libctru.a(ctru_exit.o)
 .debug_line    0x00007f42      0x587 c:/devkitPro/libctru/lib\libctru.a(sdmc_dev.o)
 .debug_line    0x000084c9      0x1cf c:/devkitPro/libctru/lib\libctru.a(utf16_to_utf8.o)
 .debug_line    0x00008698      0x136 c:/devkitPro/libctru/lib\libctru.a(decode_utf16.o)
 .debug_line    0x000087ce      0x167 c:/devkitPro/libctru/lib\libctru.a(encode_utf8.o)

.debug_frame    0x00000000     0x3fb4
 *(.debug_frame)
 .debug_frame   0x00000000       0xa8 main.o
 .debug_frame   0x000000a8       0xc4 c:/devkitPro/libctru/lib\libsfil.a(sfil_png.o)
 .debug_frame   0x0000016c      0x2ec c:/devkitPro/libctru/lib\libsftd.a(sftd.o)
 .debug_frame   0x00000458       0xc4 c:/devkitPro/libctru/lib\libsftd.a(texture_atlas.o)
 .debug_frame   0x0000051c       0x70 c:/devkitPro/libctru/lib\libsftd.a(bin_packing_2d.o)
 .debug_frame   0x0000058c       0xf0 c:/devkitPro/libctru/lib\libsftd.a(int_htab.o)
 .debug_frame   0x0000067c      0x1ec c:/devkitPro/libctru/lib\libsf2d.a(sf2d.o)
 .debug_frame   0x00000868      0x148 c:/devkitPro/libctru/lib\libsf2d.a(sf2d_private.o)
 .debug_frame   0x000009b0      0x5d4 c:/devkitPro/libctru/lib\libsf2d.a(sf2d_texture.o)
 .debug_frame   0x00000f84       0xc0 c:/devkitPro/libctru/lib\libctru.a(linear.o)
 .debug_frame   0x00001044       0xa8 c:/devkitPro/libctru/lib\libctru.a(mem_pool.o)
 .debug_frame   0x000010ec       0xb4 c:/devkitPro/libctru/lib\libctru.a(vram.o)
 .debug_frame   0x000011a0      0x170 c:/devkitPro/libctru/lib\libctru.a(gfx.o)
 .debug_frame   0x00001310      0x18c c:/devkitPro/libctru/lib\libctru.a(os.o)
 .debug_frame   0x0000149c      0x208 c:/devkitPro/libctru/lib\libctru.a(romfs_dev.o)
 .debug_frame   0x000016a4      0x158 c:/devkitPro/libctru/lib\libctru.a(srv.o)
 .debug_frame   0x000017fc      0x4f0 c:/devkitPro/libctru/lib\libctru.a(gpu.o)
 .debug_frame   0x00001cec      0x16c c:/devkitPro/libctru/lib\libctru.a(shaderProgram.o)
 .debug_frame   0x00001e58       0xa4 c:/devkitPro/libctru/lib\libctru.a(shbin.o)
 .debug_frame   0x00001efc      0x6f0 c:/devkitPro/libctru/lib\libctru.a(apt.o)
 .debug_frame   0x000025ec      0x134 c:/devkitPro/libctru/lib\libctru.a(cfgu.o)
 .debug_frame   0x00002720      0x474 c:/devkitPro/libctru/lib\libctru.a(csnd.o)
 .debug_frame   0x00002b94      0x4bc c:/devkitPro/libctru/lib\libctru.a(fs.o)
 .debug_frame   0x00003050      0x2c4 c:/devkitPro/libctru/lib\libctru.a(gsp.o)
 .debug_frame   0x00003314       0xf0 c:/devkitPro/libctru/lib\libctru.a(gx.o)
 .debug_frame   0x00003404      0x200 c:/devkitPro/libctru/lib\libctru.a(hid.o)
 .debug_frame   0x00003604      0x11c c:/devkitPro/libctru/lib\libctru.a(irrst.o)
 .debug_frame   0x00003720       0xf4 c:/devkitPro/libctru/lib\libctru.a(ptm.o)
 .debug_frame   0x00003814       0x30 c:/devkitPro/libctru/lib\libctru.a(rbtree_find.o)
 .debug_frame   0x00003844       0x20 c:/devkitPro/libctru/lib\libctru.a(rbtree_init.o)
 .debug_frame   0x00003864       0x54 c:/devkitPro/libctru/lib\libctru.a(rbtree_insert.o)
 .debug_frame   0x000038b8       0x38 c:/devkitPro/libctru/lib\libctru.a(rbtree_remove.o)
 .debug_frame   0x000038f0       0x2c c:/devkitPro/libctru/lib\libctru.a(rbtree_rotate.o)
 .debug_frame   0x0000391c       0x3c c:/devkitPro/libctru/lib\libctru.a(utf8_to_utf16.o)
 .debug_frame   0x00003958       0x34 c:/devkitPro/libctru/lib\libctru.a(allocateHeaps.o)
 .debug_frame   0x0000398c       0x2c c:/devkitPro/libctru/lib\libctru.a(initArgv.o)
 .debug_frame   0x000039b8       0x2c c:/devkitPro/libctru/lib\libctru.a(initSystem.o)
 .debug_frame   0x000039e4       0x88 c:/devkitPro/libctru/lib\libctru.a(mappable.o)
 .debug_frame   0x00003a6c       0x30 c:/devkitPro/libctru/lib\libctru.a(rbtree_iterator.o)
 .debug_frame   0x00003a9c       0x30 c:/devkitPro/libctru/lib\libctru.a(decode_utf8.o)
 .debug_frame   0x00003acc       0x20 c:/devkitPro/libctru/lib\libctru.a(encode_utf16.o)
 .debug_frame   0x00003aec       0x2c c:/devkitPro/libctru/lib\libctru.a(appExit.o)
 .debug_frame   0x00003b18       0x2c c:/devkitPro/libctru/lib\libctru.a(appInit.o)
 .debug_frame   0x00003b44       0x28 c:/devkitPro/libctru/lib\libctru.a(ctru_exit.o)
 .debug_frame   0x00003b6c      0x3c4 c:/devkitPro/libctru/lib\libctru.a(sdmc_dev.o)
 .debug_frame   0x00003f30       0x3c c:/devkitPro/libctru/lib\libctru.a(utf16_to_utf8.o)
 .debug_frame   0x00003f6c       0x28 c:/devkitPro/libctru/lib\libctru.a(decode_utf16.o)
 .debug_frame   0x00003f94       0x20 c:/devkitPro/libctru/lib\libctru.a(encode_utf8.o)

.debug_str      0x00000000     0x888b
 *(.debug_str)
 .debug_str     0x00000000      0xd7c main.o
                                0xeac (size before relaxing)
 .debug_str     0x00000d7c      0x49b c:/devkitPro/libctru/lib\libsfil.a(sfil_png.o)
                                0xaa6 (size before relaxing)
 .debug_str     0x00001217     0x194d c:/devkitPro/libctru/lib\libsftd.a(sftd.o)
                               0x1da9 (size before relaxing)
 .debug_str     0x00002b64       0xcc c:/devkitPro/libctru/lib\libsftd.a(texture_atlas.o)
                                0x4b8 (size before relaxing)
 .debug_str     0x00002c30       0x4a c:/devkitPro/libctru/lib\libsftd.a(bin_packing_2d.o)
                                0x1a6 (size before relaxing)
 .debug_str     0x00002c7a       0x70 c:/devkitPro/libctru/lib\libsftd.a(int_htab.o)
                                0x1d8 (size before relaxing)
 .debug_str     0x00002cea      0xb9e c:/devkitPro/libctru/lib\libsf2d.a(sf2d.o)
                                0xf05 (size before relaxing)
 .debug_str     0x00003888      0x220 c:/devkitPro/libctru/lib\libsf2d.a(sf2d_private.o)
                                0x3cf (size before relaxing)
 .debug_str     0x00003aa8      0x679 c:/devkitPro/libctru/lib\libsf2d.a(sf2d_texture.o)
                                0xca2 (size before relaxing)
 .debug_str     0x00004121      0x444 c:/devkitPro/libctru/lib\libctru.a(linear.o)
                                0x59f (size before relaxing)
 .debug_str     0x00004565       0x70 c:/devkitPro/libctru/lib\libctru.a(mem_pool.o)
                                0x433 (size before relaxing)
 .debug_str     0x000045d5       0x58 c:/devkitPro/libctru/lib\libctru.a(vram.o)
                                0x56e (size before relaxing)
 .debug_str     0x0000462d      0x50c c:/devkitPro/libctru/lib\libctru.a(gfx.o)
                                0x759 (size before relaxing)
 .debug_str     0x00004b39      0x3e7 c:/devkitPro/libctru/lib\libctru.a(os.o)
                                0x9d5 (size before relaxing)
 .debug_str     0x00004f20      0x71a c:/devkitPro/libctru/lib\libctru.a(romfs_dev.o)
                                0xe0e (size before relaxing)
 .debug_str     0x0000563a      0x1ad c:/devkitPro/libctru/lib\libctru.a(srv.o)
                                0x35b (size before relaxing)
 .debug_str     0x000057e7      0x53f c:/devkitPro/libctru/lib\libctru.a(gpu.o)
                                0xe5e (size before relaxing)
 .debug_str     0x00005d26       0x33 c:/devkitPro/libctru/lib\libctru.a(gpuResetSequence.o)
                                0x185 (size before relaxing)
 .debug_str     0x00005d59      0x11d c:/devkitPro/libctru/lib\libctru.a(shaderProgram.o)
                                0x5b4 (size before relaxing)
 .debug_str     0x00005e76      0x118 c:/devkitPro/libctru/lib\libctru.a(shbin.o)
                                0x456 (size before relaxing)
 .debug_str     0x00005f8e      0xc2a c:/devkitPro/libctru/lib\libctru.a(apt.o)
                                0xff8 (size before relaxing)
 .debug_str     0x00006bb8      0x11c c:/devkitPro/libctru/lib\libctru.a(cfgu.o)
                                0x35d (size before relaxing)
 .debug_str     0x00006cd4      0x4dd c:/devkitPro/libctru/lib\libctru.a(csnd.o)
                                0x966 (size before relaxing)
 .debug_str     0x000071b1      0x3fa c:/devkitPro/libctru/lib\libctru.a(fs.o)
                                0x722 (size before relaxing)
 .debug_str     0x000075ab      0x2d7 c:/devkitPro/libctru/lib\libctru.a(gsp.o)
                                0x7eb (size before relaxing)
 .debug_str     0x00007882       0xb2 c:/devkitPro/libctru/lib\libctru.a(gx.o)
                                0x2bf (size before relaxing)
 .debug_str     0x00007934      0x2cd c:/devkitPro/libctru/lib\libctru.a(hid.o)
                                0x740 (size before relaxing)
 .debug_str     0x00007c01       0xfa c:/devkitPro/libctru/lib\libctru.a(irrst.o)
                                0x45d (size before relaxing)
 .debug_str     0x00007cfb       0xd5 c:/devkitPro/libctru/lib\libctru.a(ptm.o)
                                0x2d9 (size before relaxing)
 .debug_str     0x00007dd0       0x3b c:/devkitPro/libctru/lib\libctru.a(rbtree_find.o)
                                0x1ef (size before relaxing)
 .debug_str     0x00007e0b       0x36 c:/devkitPro/libctru/lib\libctru.a(rbtree_init.o)
                                0x1e5 (size before relaxing)
 .debug_str     0x00007e41       0xda c:/devkitPro/libctru/lib\libctru.a(rbtree_insert.o)
                                0x2a7 (size before relaxing)
 .debug_str     0x00007f1b       0x65 c:/devkitPro/libctru/lib\libctru.a(rbtree_remove.o)
                                0x2c5 (size before relaxing)
 .debug_str     0x00007f80       0x38 c:/devkitPro/libctru/lib\libctru.a(rbtree_rotate.o)
                                0x23c (size before relaxing)
 .debug_str     0x00007fb8       0x56 c:/devkitPro/libctru/lib\libctru.a(utf8_to_utf16.o)
                                0x1dc (size before relaxing)
 .debug_str     0x0000800e      0x158 c:/devkitPro/libctru/lib\libctru.a(allocateHeaps.o)
                                0x305 (size before relaxing)
 .debug_str     0x00008166       0x66 c:/devkitPro/libctru/lib\libctru.a(initArgv.o)
                                0x1c8 (size before relaxing)
 .debug_str     0x000081cc      0x14e c:/devkitPro/libctru/lib\libctru.a(initSystem.o)
                                0x6c1 (size before relaxing)
 .debug_str     0x0000831a       0x60 c:/devkitPro/libctru/lib\libctru.a(mappable.o)
                                0x55d (size before relaxing)
 .debug_str     0x0000837a       0x56 c:/devkitPro/libctru/lib\libctru.a(rbtree_iterator.o)
                                0x1ef (size before relaxing)
 .debug_str     0x000083d0       0x4b c:/devkitPro/libctru/lib\libctru.a(decode_utf8.o)
                                0x1a9 (size before relaxing)
 .debug_str     0x0000841b       0x34 c:/devkitPro/libctru/lib\libctru.a(encode_utf16.o)
                                0x195 (size before relaxing)
 .debug_str     0x0000844f       0x40 c:/devkitPro/libctru/lib\libctru.a(appExit.o)
                                0x193 (size before relaxing)
 .debug_str     0x0000848f       0x40 c:/devkitPro/libctru/lib\libctru.a(appInit.o)
                                0x193 (size before relaxing)
 .debug_str     0x000084cf       0x4d c:/devkitPro/libctru/lib\libctru.a(ctru_exit.o)
                                0x30c (size before relaxing)
 .debug_str     0x0000851c      0x2ba c:/devkitPro/libctru/lib\libctru.a(sdmc_dev.o)
                                0xed3 (size before relaxing)
 .debug_str     0x000087d6       0x4e c:/devkitPro/libctru/lib\libctru.a(utf16_to_utf8.o)
                                0x1dc (size before relaxing)
 .debug_str     0x00008824       0x34 c:/devkitPro/libctru/lib\libctru.a(decode_utf16.o)
                                0x1a1 (size before relaxing)
 .debug_str     0x00008858       0x33 c:/devkitPro/libctru/lib\libctru.a(encode_utf8.o)
                                0x191 (size before relaxing)

.debug_loc      0x00000000    0x13c8a
 *(.debug_loc)
 .debug_loc     0x00000000      0x2bc main.o
 .debug_loc     0x000002bc      0x308 c:/devkitPro/libctru/lib\libsfil.a(sfil_png.o)
 .debug_loc     0x000005c4     0x134d c:/devkitPro/libctru/lib\libsftd.a(sftd.o)
 .debug_loc     0x00001911      0x2b3 c:/devkitPro/libctru/lib\libsftd.a(texture_atlas.o)
 .debug_loc     0x00001bc4      0x17b c:/devkitPro/libctru/lib\libsftd.a(bin_packing_2d.o)
 .debug_loc     0x00001d3f      0x464 c:/devkitPro/libctru/lib\libsftd.a(int_htab.o)
 .debug_loc     0x000021a3      0x26d c:/devkitPro/libctru/lib\libsf2d.a(sf2d.o)
 .debug_loc     0x00002410      0x3f3 c:/devkitPro/libctru/lib\libsf2d.a(sf2d_private.o)
 .debug_loc     0x00002803     0x3ce2 c:/devkitPro/libctru/lib\libsf2d.a(sf2d_texture.o)
 .debug_loc     0x000064e5      0x309 c:/devkitPro/libctru/lib\libctru.a(linear.o)
 .debug_loc     0x000067ee      0x95b c:/devkitPro/libctru/lib\libctru.a(mem_pool.o)
 .debug_loc     0x00007149      0x304 c:/devkitPro/libctru/lib\libctru.a(vram.o)
 .debug_loc     0x0000744d      0x464 c:/devkitPro/libctru/lib\libctru.a(gfx.o)
 .debug_loc     0x000078b1      0x457 c:/devkitPro/libctru/lib\libctru.a(os.o)
 .debug_loc     0x00007d08      0xd42 c:/devkitPro/libctru/lib\libctru.a(romfs_dev.o)
 .debug_loc     0x00008a4a      0x41e c:/devkitPro/libctru/lib\libctru.a(srv.o)
 .debug_loc     0x00008e68     0x140a c:/devkitPro/libctru/lib\libctru.a(gpu.o)
 .debug_loc     0x0000a272      0x67f c:/devkitPro/libctru/lib\libctru.a(shaderProgram.o)
 .debug_loc     0x0000a8f1      0x410 c:/devkitPro/libctru/lib\libctru.a(shbin.o)
 .debug_loc     0x0000ad01     0x1a3a c:/devkitPro/libctru/lib\libctru.a(apt.o)
 .debug_loc     0x0000c73b      0x30b c:/devkitPro/libctru/lib\libctru.a(cfgu.o)
 .debug_loc     0x0000ca46     0x1788 c:/devkitPro/libctru/lib\libctru.a(csnd.o)
 .debug_loc     0x0000e1ce     0x1220 c:/devkitPro/libctru/lib\libctru.a(fs.o)
 .debug_loc     0x0000f3ee      0xd96 c:/devkitPro/libctru/lib\libctru.a(gsp.o)
 .debug_loc     0x00010184      0x38a c:/devkitPro/libctru/lib\libctru.a(gx.o)
 .debug_loc     0x0001050e      0x7d2 c:/devkitPro/libctru/lib\libctru.a(hid.o)
 .debug_loc     0x00010ce0      0x35a c:/devkitPro/libctru/lib\libctru.a(irrst.o)
 .debug_loc     0x0001103a      0x28c c:/devkitPro/libctru/lib\libctru.a(ptm.o)
 .debug_loc     0x000112c6      0x10d c:/devkitPro/libctru/lib\libctru.a(rbtree_find.o)
 .debug_loc     0x000113d3      0x382 c:/devkitPro/libctru/lib\libctru.a(rbtree_insert.o)
 .debug_loc     0x00011755      0x506 c:/devkitPro/libctru/lib\libctru.a(rbtree_remove.o)
 .debug_loc     0x00011c5b       0x8e c:/devkitPro/libctru/lib\libctru.a(rbtree_rotate.o)
 .debug_loc     0x00011ce9       0xf3 c:/devkitPro/libctru/lib\libctru.a(utf8_to_utf16.o)
 .debug_loc     0x00011ddc       0xfb c:/devkitPro/libctru/lib\libctru.a(initArgv.o)
 .debug_loc     0x00011ed7       0x21 c:/devkitPro/libctru/lib\libctru.a(initSystem.o)
 .debug_loc     0x00011ef8      0x1d1 c:/devkitPro/libctru/lib\libctru.a(mappable.o)
 .debug_loc     0x000120c9      0x2b2 c:/devkitPro/libctru/lib\libctru.a(rbtree_iterator.o)
 .debug_loc     0x0001237b      0x232 c:/devkitPro/libctru/lib\libctru.a(decode_utf8.o)
 .debug_loc     0x000125ad       0xdc c:/devkitPro/libctru/lib\libctru.a(encode_utf16.o)
 .debug_loc     0x00012689       0x21 c:/devkitPro/libctru/lib\libctru.a(ctru_exit.o)
 .debug_loc     0x000126aa     0x124d c:/devkitPro/libctru/lib\libctru.a(sdmc_dev.o)
 .debug_loc     0x000138f7      0x125 c:/devkitPro/libctru/lib\libctru.a(utf16_to_utf8.o)
 .debug_loc     0x00013a1c       0xc4 c:/devkitPro/libctru/lib\libctru.a(decode_utf16.o)
 .debug_loc     0x00013ae0      0x1aa c:/devkitPro/libctru/lib\libctru.a(encode_utf8.o)

.debug_macinfo
 *(.debug_macinfo)
LOAD c:/devkitpro/devkitarm/bin/../lib/gcc/arm-none-eabi/4.9.2/../../../../arm-none-eabi/lib/armv6k/fpu/3dsx_crt0.o
LOAD c:/devkitpro/devkitarm/bin/../lib/gcc/arm-none-eabi/4.9.2/armv6k/fpu/crti.o
LOAD c:/devkitpro/devkitarm/bin/../lib/gcc/arm-none-eabi/4.9.2/armv6k/fpu/crtbegin.o
LOAD eightbit.ttf.o
LOAD friskBack0.png.o
LOAD friskBack1.png.o
LOAD friskBack2.png.o
LOAD friskBack3.png.o
LOAD friskFace0.png.o
LOAD friskFace1.png.o
LOAD friskFace2.png.o
LOAD friskFace3.png.o
LOAD friskLeft0.png.o
LOAD friskLeft1.png.o
LOAD friskRight0.png.o
LOAD friskRight1.png.o
LOAD torielHouse-old.png.o
LOAD torielHouse1.png.o
LOAD torielHouse2.png.o
LOAD torielHouse3.png.o
LOAD torielHouse4.png.o
LOAD torielHouse5.png.o
LOAD torielHouse6.png.o
LOAD main.o
LOAD c:/devkitPro/libctru/lib\libsfil.a
LOAD c:/devkitPro/portlibs/armv6k/lib\libpng.a
LOAD c:/devkitPro/libctru/lib\libsftd.a
LOAD c:/devkitPro/portlibs/armv6k/lib\libfreetype.a
LOAD c:/devkitPro/portlibs/armv6k/lib\libz.a
LOAD c:/devkitPro/libctru/lib\libsf2d.a
LOAD c:/devkitPro/libctru/lib\libctru.a
LOAD c:/devkitpro/devkitarm/bin/../lib/gcc/arm-none-eabi/4.9.2/../../../../arm-none-eabi/lib/armv6k/fpu\libm.a
START GROUP
LOAD c:/devkitpro/devkitarm/bin/../lib/gcc/arm-none-eabi/4.9.2/armv6k/fpu\libgcc.a
LOAD c:/devkitpro/devkitarm/bin/../lib/gcc/arm-none-eabi/4.9.2/../../../../arm-none-eabi/lib/armv6k/fpu\libg.a
LOAD c:/devkitpro/devkitarm/bin/../lib/gcc/arm-none-eabi/4.9.2/../../../../arm-none-eabi/lib/armv6k/fpu\libc.a
LOAD c:/devkitpro/devkitarm/bin/../lib/gcc/arm-none-eabi/4.9.2/../../../../arm-none-eabi/lib/armv6k/fpu\libsysbase.a
END GROUP
LOAD c:/devkitpro/devkitarm/bin/../lib/gcc/arm-none-eabi/4.9.2/armv6k/fpu/crtend.o
LOAD c:/devkitpro/devkitarm/bin/../lib/gcc/arm-none-eabi/4.9.2/armv6k/fpu/crtn.o
OUTPUT(c:/Users/Xavyrr/OneDrive/Public/Homebrew/undertale_techdemo/undertale_techdemo.elf elf32-littlearm)

.ARM.attributes
                0x00000000       0x32
 .ARM.attributes
                0x00000000       0x1e c:/devkitpro/devkitarm/bin/../lib/gcc/arm-none-eabi/4.9.2/../../../../arm-none-eabi/lib/armv6k/fpu/3dsx_crt0.o
 .ARM.attributes
                0x0000001e       0x1c c:/devkitpro/devkitarm/bin/../lib/gcc/arm-none-eabi/4.9.2/armv6k/fpu/crti.o
 .ARM.attributes
                0x0000003a       0x32 c:/devkitpro/devkitarm/bin/../lib/gcc/arm-none-eabi/4.9.2/armv6k/fpu/crtbegin.o
 .ARM.attributes
                0x0000006c       0x14 eightbit.ttf.o
 .ARM.attributes
                0x00000080       0x14 friskBack0.png.o
 .ARM.attributes
                0x00000094       0x14 friskBack1.png.o
 .ARM.attributes
                0x000000a8       0x14 friskBack2.png.o
 .ARM.attributes
                0x000000bc       0x14 friskBack3.png.o
 .ARM.attributes
                0x000000d0       0x14 friskFace0.png.o
 .ARM.attributes
                0x000000e4       0x14 friskFace1.png.o
 .ARM.attributes
                0x000000f8       0x14 friskFace2.png.o
 .ARM.attributes
                0x0000010c       0x14 friskFace3.png.o
 .ARM.attributes
                0x00000120       0x14 friskLeft0.png.o
 .ARM.attributes
                0x00000134       0x14 friskLeft1.png.o
 .ARM.attributes
                0x00000148       0x14 friskRight0.png.o
 .ARM.attributes
                0x0000015c       0x14 friskRight1.png.o
 .ARM.attributes
                0x00000170       0x14 torielHouse-old.png.o
 .ARM.attributes
                0x00000184       0x14 torielHouse1.png.o
 .ARM.attributes
                0x00000198       0x14 torielHouse2.png.o
 .ARM.attributes
                0x000001ac       0x14 torielHouse3.png.o
 .ARM.attributes
                0x000001c0       0x14 torielHouse4.png.o
 .ARM.attributes
                0x000001d4       0x14 torielHouse5.png.o
 .ARM.attributes
                0x000001e8       0x14 torielHouse6.png.o
 .ARM.attributes
                0x000001fc       0x2e main.o
 .ARM.attributes
                0x0000022a       0x32 c:/devkitPro/libctru/lib\libsfil.a(sfil_png.o)
 .ARM.attributes
                0x0000025c       0x2e c:/devkitPro/portlibs/armv6k/lib\libpng.a(png.o)
 .ARM.attributes
                0x0000028a       0x2e c:/devkitPro/portlibs/armv6k/lib\libpng.a(pngerror.o)
 .ARM.attributes
                0x000002b8       0x2e c:/devkitPro/portlibs/armv6k/lib\libpng.a(pngget.o)
 .ARM.attributes
                0x000002e6       0x2e c:/devkitPro/portlibs/armv6k/lib\libpng.a(pngmem.o)
 .ARM.attributes
                0x00000314       0x2e c:/devkitPro/portlibs/armv6k/lib\libpng.a(pngread.o)
 .ARM.attributes
                0x00000342       0x2e c:/devkitPro/portlibs/armv6k/lib\libpng.a(pngrio.o)
 .ARM.attributes
                0x00000370       0x2e c:/devkitPro/portlibs/armv6k/lib\libpng.a(pngrtran.o)
 .ARM.attributes
                0x0000039e       0x2e c:/devkitPro/portlibs/armv6k/lib\libpng.a(pngrutil.o)
 .ARM.attributes
                0x000003cc       0x2e c:/devkitPro/portlibs/armv6k/lib\libpng.a(pngset.o)
 .ARM.attributes
                0x000003fa       0x2e c:/devkitPro/portlibs/armv6k/lib\libpng.a(pngtrans.o)
 .ARM.attributes
                0x00000428       0x2e c:/devkitPro/portlibs/armv6k/lib\libpng.a(pngwrite.o)
 .ARM.attributes
                0x00000456       0x2e c:/devkitPro/portlibs/armv6k/lib\libpng.a(pngwtran.o)
 .ARM.attributes
                0x00000484       0x2e c:/devkitPro/portlibs/armv6k/lib\libpng.a(pngwutil.o)
 .ARM.attributes
                0x000004b2       0x2e c:/devkitPro/portlibs/armv6k/lib\libpng.a(pngwio.o)
 .ARM.attributes
                0x000004e0       0x32 c:/devkitPro/libctru/lib\libsftd.a(sftd.o)
 .ARM.attributes
                0x00000512       0x32 c:/devkitPro/libctru/lib\libsftd.a(texture_atlas.o)
 .ARM.attributes
                0x00000544       0x32 c:/devkitPro/libctru/lib\libsftd.a(bin_packing_2d.o)
 .ARM.attributes
                0x00000576       0x32 c:/devkitPro/libctru/lib\libsftd.a(int_htab.o)
 .ARM.attributes
                0x000005a8       0x2e c:/devkitPro/portlibs/armv6k/lib\libfreetype.a(ftinit.o)
 .ARM.attributes
                0x000005d6       0x2e c:/devkitPro/portlibs/armv6k/lib\libfreetype.a(ftbase.o)
 .ARM.attributes
                0x00000604       0x2e c:/devkitPro/portlibs/armv6k/lib\libfreetype.a(truetype.o)
 .ARM.attributes
                0x00000632       0x2e c:/devkitPro/portlibs/armv6k/lib\libfreetype.a(type1.o)
 .ARM.attributes
                0x00000660       0x2e c:/devkitPro/portlibs/armv6k/lib\libfreetype.a(cff.o)
 .ARM.attributes
                0x0000068e       0x2e c:/devkitPro/portlibs/armv6k/lib\libfreetype.a(type1cid.o)
 .ARM.attributes
                0x000006bc       0x2e c:/devkitPro/portlibs/armv6k/lib\libfreetype.a(pfr.o)
 .ARM.attributes
                0x000006ea       0x2e c:/devkitPro/portlibs/armv6k/lib\libfreetype.a(type42.o)
 .ARM.attributes
                0x00000718       0x2e c:/devkitPro/portlibs/armv6k/lib\libfreetype.a(winfnt.o)
 .ARM.attributes
                0x00000746       0x2e c:/devkitPro/portlibs/armv6k/lib\libfreetype.a(pcf.o)
 .ARM.attributes
                0x00000774       0x2e c:/devkitPro/portlibs/armv6k/lib\libfreetype.a(bdf.o)
 .ARM.attributes
                0x000007a2       0x2e c:/devkitPro/portlibs/armv6k/lib\libfreetype.a(sfnt.o)
 .ARM.attributes
                0x000007d0       0x2e c:/devkitPro/portlibs/armv6k/lib\libfreetype.a(autofit.o)
 .ARM.attributes
                0x000007fe       0x2e c:/devkitPro/portlibs/armv6k/lib\libfreetype.a(pshinter.o)
 .ARM.attributes
                0x0000082c       0x2e c:/devkitPro/portlibs/armv6k/lib\libfreetype.a(raster.o)
 .ARM.attributes
                0x0000085a       0x2e c:/devkitPro/portlibs/armv6k/lib\libfreetype.a(smooth.o)
 .ARM.attributes
                0x00000888       0x2e c:/devkitPro/portlibs/armv6k/lib\libfreetype.a(ftcache.o)
 .ARM.attributes
                0x000008b6       0x2e c:/devkitPro/portlibs/armv6k/lib\libfreetype.a(ftgzip.o)
 .ARM.attributes
                0x000008e4       0x2e c:/devkitPro/portlibs/armv6k/lib\libfreetype.a(ftlzw.o)
 .ARM.attributes
                0x00000912       0x2e c:/devkitPro/portlibs/armv6k/lib\libfreetype.a(psaux.o)
 .ARM.attributes
                0x00000940       0x2e c:/devkitPro/portlibs/armv6k/lib\libfreetype.a(psnames.o)
 .ARM.attributes
                0x0000096e       0x2e c:/devkitPro/portlibs/armv6k/lib\libfreetype.a(ftsystem.o)
 .ARM.attributes
                0x0000099c       0x2e c:/devkitPro/portlibs/armv6k/lib\libfreetype.a(ftbitmap.o)
 .ARM.attributes
                0x000009ca       0x2e c:/devkitPro/portlibs/armv6k/lib\libfreetype.a(ftglyph.o)
 .ARM.attributes
                0x000009f8       0x2e c:/devkitPro/portlibs/armv6k/lib\libz.a(adler32.o)
 .ARM.attributes
                0x00000a26       0x2e c:/devkitPro/portlibs/armv6k/lib\libz.a(crc32.o)
 .ARM.attributes
                0x00000a54       0x2e c:/devkitPro/portlibs/armv6k/lib\libz.a(deflate.o)
 .ARM.attributes
                0x00000a82       0x2e c:/devkitPro/portlibs/armv6k/lib\libz.a(inflate.o)
 .ARM.attributes
                0x00000ab0       0x2e c:/devkitPro/portlibs/armv6k/lib\libz.a(inftrees.o)
 .ARM.attributes
                0x00000ade       0x2e c:/devkitPro/portlibs/armv6k/lib\libz.a(trees.o)
 .ARM.attributes
                0x00000b0c       0x2e c:/devkitPro/portlibs/armv6k/lib\libz.a(zutil.o)
 .ARM.attributes
                0x00000b3a       0x2e c:/devkitPro/portlibs/armv6k/lib\libz.a(inffast.o)
 .ARM.attributes
                0x00000b68       0x32 c:/devkitPro/libctru/lib\libsf2d.a(sf2d.o)
 .ARM.attributes
                0x00000b9a       0x32 c:/devkitPro/libctru/lib\libsf2d.a(sf2d_private.o)
 .ARM.attributes
                0x00000bcc       0x32 c:/devkitPro/libctru/lib\libsf2d.a(sf2d_texture.o)
 .ARM.attributes
                0x00000bfe       0x14 c:/devkitPro/libctru/lib\libsf2d.a(shader.vsh.o)
 .ARM.attributes
                0x00000c12       0x2e c:/devkitPro/libctru/lib\libctru.a(linear.o)
 .ARM.attributes
                0x00000c40       0x2e c:/devkitPro/libctru/lib\libctru.a(mem_pool.o)
 .ARM.attributes
                0x00000c6e       0x2e c:/devkitPro/libctru/lib\libctru.a(vram.o)
 .ARM.attributes
                0x00000c9c       0x2e c:/devkitPro/libctru/lib\libctru.a(gfx.o)
 .ARM.attributes
                0x00000cca       0x2e c:/devkitPro/libctru/lib\libctru.a(os.o)
 .ARM.attributes
                0x00000cf8       0x2e c:/devkitPro/libctru/lib\libctru.a(romfs_dev.o)
 .ARM.attributes
                0x00000d26       0x2e c:/devkitPro/libctru/lib\libctru.a(srv.o)
 .ARM.attributes
                0x00000d54       0x2e c:/devkitPro/libctru/lib\libctru.a(gpu.o)
 .ARM.attributes
                0x00000d82       0x2e c:/devkitPro/libctru/lib\libctru.a(gpuResetSequence.o)
 .ARM.attributes
                0x00000db0       0x2e c:/devkitPro/libctru/lib\libctru.a(shaderProgram.o)
 .ARM.attributes
                0x00000dde       0x2e c:/devkitPro/libctru/lib\libctru.a(shbin.o)
 .ARM.attributes
                0x00000e0c       0x2e c:/devkitPro/libctru/lib\libctru.a(apt.o)
 .ARM.attributes
                0x00000e3a       0x2e c:/devkitPro/libctru/lib\libctru.a(cfgu.o)
 .ARM.attributes
                0x00000e68       0x2e c:/devkitPro/libctru/lib\libctru.a(csnd.o)
 .ARM.attributes
                0x00000e96       0x2e c:/devkitPro/libctru/lib\libctru.a(fs.o)
 .ARM.attributes
                0x00000ec4       0x2e c:/devkitPro/libctru/lib\libctru.a(gsp.o)
 .ARM.attributes
                0x00000ef2       0x2e c:/devkitPro/libctru/lib\libctru.a(gx.o)
 .ARM.attributes
                0x00000f20       0x2e c:/devkitPro/libctru/lib\libctru.a(hid.o)
 .ARM.attributes
                0x00000f4e       0x2e c:/devkitPro/libctru/lib\libctru.a(irrst.o)
 .ARM.attributes
                0x00000f7c       0x2e c:/devkitPro/libctru/lib\libctru.a(ptm.o)
 .ARM.attributes
                0x00000faa       0x2e c:/devkitPro/libctru/lib\libctru.a(rbtree_find.o)
 .ARM.attributes
                0x00000fd8       0x2e c:/devkitPro/libctru/lib\libctru.a(rbtree_init.o)
 .ARM.attributes
                0x00001006       0x2e c:/devkitPro/libctru/lib\libctru.a(rbtree_insert.o)
 .ARM.attributes
                0x00001034       0x2e c:/devkitPro/libctru/lib\libctru.a(rbtree_remove.o)
 .ARM.attributes
                0x00001062       0x2e c:/devkitPro/libctru/lib\libctru.a(rbtree_rotate.o)
 .ARM.attributes
                0x00001090       0x2e c:/devkitPro/libctru/lib\libctru.a(utf8_to_utf16.o)
 .ARM.attributes
                0x000010be       0x2e c:/devkitPro/libctru/lib\libctru.a(allocateHeaps.o)
 .ARM.attributes
                0x000010ec       0x2e c:/devkitPro/libctru/lib\libctru.a(initArgv.o)
 .ARM.attributes
                0x0000111a       0x2e c:/devkitPro/libctru/lib\libctru.a(initSystem.o)
 .ARM.attributes
                0x00001148       0x1a c:/devkitPro/libctru/lib\libctru.a(svc.o)
 .ARM.attributes
                0x00001162       0x1a c:/devkitPro/libctru/lib\libctru.a(stack_adjust.o)
 .ARM.attributes
                0x0000117c       0x2e c:/devkitPro/libctru/lib\libctru.a(mappable.o)
 .ARM.attributes
                0x000011aa       0x2e c:/devkitPro/libctru/lib\libctru.a(rbtree_iterator.o)
 .ARM.attributes
                0x000011d8       0x2e c:/devkitPro/libctru/lib\libctru.a(decode_utf8.o)
 .ARM.attributes
                0x00001206       0x2e c:/devkitPro/libctru/lib\libctru.a(encode_utf16.o)
 .ARM.attributes
                0x00001234       0x2e c:/devkitPro/libctru/lib\libctru.a(appExit.o)
 .ARM.attributes
                0x00001262       0x2e c:/devkitPro/libctru/lib\libctru.a(appInit.o)
 .ARM.attributes
                0x00001290       0x2e c:/devkitPro/libctru/lib\libctru.a(ctru_exit.o)
 .ARM.attributes
                0x000012be       0x2e c:/devkitPro/libctru/lib\libctru.a(sdmc_dev.o)
 .ARM.attributes
                0x000012ec       0x2e c:/devkitPro/libctru/lib\libctru.a(utf16_to_utf8.o)
 .ARM.attributes
                0x0000131a       0x2e c:/devkitPro/libctru/lib\libctru.a(decode_utf16.o)
 .ARM.attributes
                0x00001348       0x2e c:/devkitPro/libctru/lib\libctru.a(encode_utf8.o)
 .ARM.attributes
                0x00001376       0x32 c:/devkitpro/devkitarm/bin/../lib/gcc/arm-none-eabi/4.9.2/../../../../arm-none-eabi/lib/armv6k/fpu\libm.a(lib_a-sf_cos.o)
 .ARM.attributes
                0x000013a8       0x32 c:/devkitpro/devkitarm/bin/../lib/gcc/arm-none-eabi/4.9.2/../../../../arm-none-eabi/lib/armv6k/fpu\libm.a(lib_a-s_floor.o)
 .ARM.attributes
                0x000013da       0x32 c:/devkitpro/devkitarm/bin/../lib/gcc/arm-none-eabi/4.9.2/../../../../arm-none-eabi/lib/armv6k/fpu\libm.a(lib_a-s_frexp.o)
 .ARM.attributes
                0x0000140c       0x32 c:/devkitpro/devkitarm/bin/../lib/gcc/arm-none-eabi/4.9.2/../../../../arm-none-eabi/lib/armv6k/fpu\libm.a(lib_a-sf_sin.o)
 .ARM.attributes
                0x0000143e       0x32 c:/devkitpro/devkitarm/bin/../lib/gcc/arm-none-eabi/4.9.2/../../../../arm-none-eabi/lib/armv6k/fpu\libm.a(lib_a-s_modf.o)
 .ARM.attributes
                0x00001470       0x32 c:/devkitpro/devkitarm/bin/../lib/gcc/arm-none-eabi/4.9.2/../../../../arm-none-eabi/lib/armv6k/fpu\libm.a(lib_a-w_pow.o)
 .ARM.attributes
                0x000014a2       0x32 c:/devkitpro/devkitarm/bin/../lib/gcc/arm-none-eabi/4.9.2/../../../../arm-none-eabi/lib/armv6k/fpu\libm.a(lib_a-ef_rem_pio2.o)
 .ARM.attributes
                0x000014d4       0x32 c:/devkitpro/devkitarm/bin/../lib/gcc/arm-none-eabi/4.9.2/../../../../arm-none-eabi/lib/armv6k/fpu\libm.a(lib_a-e_pow.o)
 .ARM.attributes
                0x00001506       0x32 c:/devkitpro/devkitarm/bin/../lib/gcc/arm-none-eabi/4.9.2/../../../../arm-none-eabi/lib/armv6k/fpu\libm.a(lib_a-e_sqrt.o)
 .ARM.attributes
                0x00001538       0x32 c:/devkitpro/devkitarm/bin/../lib/gcc/arm-none-eabi/4.9.2/../../../../arm-none-eabi/lib/armv6k/fpu\libm.a(lib_a-kf_cos.o)
 .ARM.attributes
                0x0000156a       0x32 c:/devkitpro/devkitarm/bin/../lib/gcc/arm-none-eabi/4.9.2/../../../../arm-none-eabi/lib/armv6k/fpu\libm.a(lib_a-kf_rem_pio2.o)
 .ARM.attributes
                0x0000159c       0x32 c:/devkitpro/devkitarm/bin/../lib/gcc/arm-none-eabi/4.9.2/../../../../arm-none-eabi/lib/armv6k/fpu\libm.a(lib_a-kf_sin.o)
 .ARM.attributes
                0x000015ce       0x32 c:/devkitpro/devkitarm/bin/../lib/gcc/arm-none-eabi/4.9.2/../../../../arm-none-eabi/lib/armv6k/fpu\libm.a(lib_a-s_fabs.o)
 .ARM.attributes
                0x00001600       0x32 c:/devkitpro/devkitarm/bin/../lib/gcc/arm-none-eabi/4.9.2/../../../../arm-none-eabi/lib/armv6k/fpu\libm.a(lib_a-sf_fabs.o)
 .ARM.attributes
                0x00001632       0x32 c:/devkitpro/devkitarm/bin/../lib/gcc/arm-none-eabi/4.9.2/../../../../arm-none-eabi/lib/armv6k/fpu\libm.a(lib_a-sf_floor.o)
 .ARM.attributes
                0x00001664       0x32 c:/devkitpro/devkitarm/bin/../lib/gcc/arm-none-eabi/4.9.2/../../../../arm-none-eabi/lib/armv6k/fpu\libm.a(lib_a-s_finite.o)
 .ARM.attributes
                0x00001696       0x32 c:/devkitpro/devkitarm/bin/../lib/gcc/arm-none-eabi/4.9.2/../../../../arm-none-eabi/lib/armv6k/fpu\libm.a(lib_a-s_fpclassify.o)
 .ARM.attributes
                0x000016c8       0x32 c:/devkitpro/devkitarm/bin/../lib/gcc/arm-none-eabi/4.9.2/../../../../arm-none-eabi/lib/armv6k/fpu\libm.a(lib_a-sf_scalbn.o)
 .ARM.attributes
                0x000016fa       0x32 c:/devkitpro/devkitarm/bin/../lib/gcc/arm-none-eabi/4.9.2/../../../../arm-none-eabi/lib/armv6k/fpu\libm.a(lib_a-s_lib_ver.o)
 .ARM.attributes
                0x0000172c       0x32 c:/devkitpro/devkitarm/bin/../lib/gcc/arm-none-eabi/4.9.2/../../../../arm-none-eabi/lib/armv6k/fpu\libm.a(lib_a-s_matherr.o)
 .ARM.attributes
                0x0000175e       0x32 c:/devkitpro/devkitarm/bin/../lib/gcc/arm-none-eabi/4.9.2/../../../../arm-none-eabi/lib/armv6k/fpu\libm.a(lib_a-s_nan.o)
 .ARM.attributes
                0x00001790       0x32 c:/devkitpro/devkitarm/bin/../lib/gcc/arm-none-eabi/4.9.2/../../../../arm-none-eabi/lib/armv6k/fpu\libm.a(lib_a-s_rint.o)
 .ARM.attributes
                0x000017c2       0x32 c:/devkitpro/devkitarm/bin/../lib/gcc/arm-none-eabi/4.9.2/../../../../arm-none-eabi/lib/armv6k/fpu\libm.a(lib_a-s_scalbn.o)
 .ARM.attributes
                0x000017f4       0x32 c:/devkitpro/devkitarm/bin/../lib/gcc/arm-none-eabi/4.9.2/../../../../arm-none-eabi/lib/armv6k/fpu\libm.a(lib_a-s_copysign.o)
 .ARM.attributes
                0x00001826       0x32 c:/devkitpro/devkitarm/bin/../lib/gcc/arm-none-eabi/4.9.2/../../../../arm-none-eabi/lib/armv6k/fpu\libm.a(lib_a-sf_copysign.o)
 .ARM.attributes
                0x00001858       0x1c c:/devkitpro/devkitarm/bin/../lib/gcc/arm-none-eabi/4.9.2/armv6k/fpu\libgcc.a(_udivsi3.o)
 .ARM.attributes
                0x00001874       0x1c c:/devkitpro/devkitarm/bin/../lib/gcc/arm-none-eabi/4.9.2/armv6k/fpu\libgcc.a(_divsi3.o)
 .ARM.attributes
                0x00001890       0x1c c:/devkitpro/devkitarm/bin/../lib/gcc/arm-none-eabi/4.9.2/armv6k/fpu\libgcc.a(_dvmd_tls.o)
 .ARM.attributes
                0x000018ac       0x1c c:/devkitpro/devkitarm/bin/../lib/gcc/arm-none-eabi/4.9.2/armv6k/fpu\libgcc.a(_arm_addsubsf3.o)
 .ARM.attributes
                0x000018c8       0x32 c:/devkitpro/devkitarm/bin/../lib/gcc/arm-none-eabi/4.9.2/armv6k/fpu\libgcc.a(_popcountsi2.o)
 .ARM.attributes
                0x000018fa       0x32 c:/devkitpro/devkitarm/bin/../lib/gcc/arm-none-eabi/4.9.2/../../../../arm-none-eabi/lib/armv6k/fpu\libg.a(lib_a-abort.o)
 .ARM.attributes
                0x0000192c       0x32 c:/devkitpro/devkitarm/bin/../lib/gcc/arm-none-eabi/4.9.2/../../../../arm-none-eabi/lib/armv6k/fpu\libg.a(lib_a-atof.o)
 .ARM.attributes
                0x0000195e       0x32 c:/devkitpro/devkitarm/bin/../lib/gcc/arm-none-eabi/4.9.2/../../../../arm-none-eabi/lib/armv6k/fpu\libg.a(lib_a-atol.o)
 .ARM.attributes
                0x00001990       0x32 c:/devkitpro/devkitarm/bin/../lib/gcc/arm-none-eabi/4.9.2/../../../../arm-none-eabi/lib/armv6k/fpu\libg.a(lib_a-bsearch.o)
 .ARM.attributes
                0x000019c2       0x32 c:/devkitpro/devkitarm/bin/../lib/gcc/arm-none-eabi/4.9.2/../../../../arm-none-eabi/lib/armv6k/fpu\libg.a(lib_a-errno.o)
 .ARM.attributes
                0x000019f4       0x32 c:/devkitpro/devkitarm/bin/../lib/gcc/arm-none-eabi/4.9.2/../../../../arm-none-eabi/lib/armv6k/fpu\libg.a(lib_a-fclose.o)
 .ARM.attributes
                0x00001a26       0x32 c:/devkitpro/devkitarm/bin/../lib/gcc/arm-none-eabi/4.9.2/../../../../arm-none-eabi/lib/armv6k/fpu\libg.a(lib_a-fflush.o)
 .ARM.attributes
                0x00001a58       0x32 c:/devkitpro/devkitarm/bin/../lib/gcc/arm-none-eabi/4.9.2/../../../../arm-none-eabi/lib/armv6k/fpu\libg.a(lib_a-findfp.o)
 .ARM.attributes
                0x00001a8a       0x32 c:/devkitpro/devkitarm/bin/../lib/gcc/arm-none-eabi/4.9.2/../../../../arm-none-eabi/lib/armv6k/fpu\libg.a(lib_a-fini.o)
 .ARM.attributes
                0x00001abc       0x32 c:/devkitpro/devkitarm/bin/../lib/gcc/arm-none-eabi/4.9.2/../../../../arm-none-eabi/lib/armv6k/fpu\libg.a(lib_a-fopen.o)
 .ARM.attributes
                0x00001aee       0x32 c:/devkitpro/devkitarm/bin/../lib/gcc/arm-none-eabi/4.9.2/../../../../arm-none-eabi/lib/armv6k/fpu\libg.a(lib_a-fprintf.o)
 .ARM.attributes
                0x00001b20       0x32 c:/devkitpro/devkitarm/bin/../lib/gcc/arm-none-eabi/4.9.2/../../../../arm-none-eabi/lib/armv6k/fpu\libg.a(lib_a-fputc.o)
 .ARM.attributes
                0x00001b52       0x32 c:/devkitpro/devkitarm/bin/../lib/gcc/arm-none-eabi/4.9.2/../../../../arm-none-eabi/lib/armv6k/fpu\libg.a(lib_a-fread.o)
 .ARM.attributes
                0x00001b84       0x32 c:/devkitpro/devkitarm/bin/../lib/gcc/arm-none-eabi/4.9.2/../../../../arm-none-eabi/lib/armv6k/fpu\libg.a(lib_a-freer.o)
 .ARM.attributes
                0x00001bb6       0x32 c:/devkitpro/devkitarm/bin/../lib/gcc/arm-none-eabi/4.9.2/../../../../arm-none-eabi/lib/armv6k/fpu\libg.a(lib_a-fseek.o)
 .ARM.attributes
                0x00001be8       0x32 c:/devkitpro/devkitarm/bin/../lib/gcc/arm-none-eabi/4.9.2/../../../../arm-none-eabi/lib/armv6k/fpu\libg.a(lib_a-fseeko.o)
 .ARM.attributes
                0x00001c1a       0x32 c:/devkitpro/devkitarm/bin/../lib/gcc/arm-none-eabi/4.9.2/../../../../arm-none-eabi/lib/armv6k/fpu\libg.a(lib_a-ftell.o)
 .ARM.attributes
                0x00001c4c       0x32 c:/devkitpro/devkitarm/bin/../lib/gcc/arm-none-eabi/4.9.2/../../../../arm-none-eabi/lib/armv6k/fpu\libg.a(lib_a-ftello.o)
 .ARM.attributes
                0x00001c7e       0x32 c:/devkitpro/devkitarm/bin/../lib/gcc/arm-none-eabi/4.9.2/../../../../arm-none-eabi/lib/armv6k/fpu\libg.a(lib_a-fwalk.o)
 .ARM.attributes
                0x00001cb0       0x32 c:/devkitpro/devkitarm/bin/../lib/gcc/arm-none-eabi/4.9.2/../../../../arm-none-eabi/lib/armv6k/fpu\libg.a(lib_a-fwrite.o)
 .ARM.attributes
                0x00001ce2       0x32 c:/devkitpro/devkitarm/bin/../lib/gcc/arm-none-eabi/4.9.2/../../../../arm-none-eabi/lib/armv6k/fpu\libg.a(lib_a-gmtime.o)
 .ARM.attributes
                0x00001d14       0x32 c:/devkitpro/devkitarm/bin/../lib/gcc/arm-none-eabi/4.9.2/../../../../arm-none-eabi/lib/armv6k/fpu\libg.a(lib_a-gmtime_r.o)
 .ARM.attributes
                0x00001d46       0x32 c:/devkitpro/devkitarm/bin/../lib/gcc/arm-none-eabi/4.9.2/../../../../arm-none-eabi/lib/armv6k/fpu\libg.a(lib_a-impure.o)
 .ARM.attributes
                0x00001d78       0x32 c:/devkitpro/devkitarm/bin/../lib/gcc/arm-none-eabi/4.9.2/../../../../arm-none-eabi/lib/armv6k/fpu\libg.a(lib_a-init.o)
 .ARM.attributes
                0x00001daa       0x32 c:/devkitpro/devkitarm/bin/../lib/gcc/arm-none-eabi/4.9.2/../../../../arm-none-eabi/lib/armv6k/fpu\libg.a(lib_a-makebuf.o)
 .ARM.attributes
                0x00001ddc       0x32 c:/devkitpro/devkitarm/bin/../lib/gcc/arm-none-eabi/4.9.2/../../../../arm-none-eabi/lib/armv6k/fpu\libg.a(lib_a-malloc.o)
 .ARM.attributes
                0x00001e0e       0x32 c:/devkitpro/devkitarm/bin/../lib/gcc/arm-none-eabi/4.9.2/../../../../arm-none-eabi/lib/armv6k/fpu\libg.a(lib_a-mallocr.o)
 .ARM.attributes
                0x00001e40       0x32 c:/devkitpro/devkitarm/bin/../lib/gcc/arm-none-eabi/4.9.2/../../../../arm-none-eabi/lib/armv6k/fpu\libg.a(lib_a-memchr.o)
 .ARM.attributes
                0x00001e72       0x32 c:/devkitpro/devkitarm/bin/../lib/gcc/arm-none-eabi/4.9.2/../../../../arm-none-eabi/lib/armv6k/fpu\libg.a(lib_a-memcmp.o)
 .ARM.attributes
                0x00001ea4       0x32 c:/devkitpro/devkitarm/bin/../lib/gcc/arm-none-eabi/4.9.2/../../../../arm-none-eabi/lib/armv6k/fpu\libg.a(lib_a-memcpy.o)
 .ARM.attributes
                0x00001ed6       0x32 c:/devkitpro/devkitarm/bin/../lib/gcc/arm-none-eabi/4.9.2/../../../../arm-none-eabi/lib/armv6k/fpu\libg.a(lib_a-memmove.o)
 .ARM.attributes
                0x00001f08       0x32 c:/devkitpro/devkitarm/bin/../lib/gcc/arm-none-eabi/4.9.2/../../../../arm-none-eabi/lib/armv6k/fpu\libg.a(lib_a-memset.o)
 .ARM.attributes
                0x00001f3a       0x32 c:/devkitpro/devkitarm/bin/../lib/gcc/arm-none-eabi/4.9.2/../../../../arm-none-eabi/lib/armv6k/fpu\libg.a(lib_a-mlock.o)
 .ARM.attributes
                0x00001f6c       0x32 c:/devkitpro/devkitarm/bin/../lib/gcc/arm-none-eabi/4.9.2/../../../../arm-none-eabi/lib/armv6k/fpu\libg.a(lib_a-month_lengths.o)
 .ARM.attributes
                0x00001f9e       0x32 c:/devkitpro/devkitarm/bin/../lib/gcc/arm-none-eabi/4.9.2/../../../../arm-none-eabi/lib/armv6k/fpu\libg.a(lib_a-putc.o)
 .ARM.attributes
                0x00001fd0       0x32 c:/devkitpro/devkitarm/bin/../lib/gcc/arm-none-eabi/4.9.2/../../../../arm-none-eabi/lib/armv6k/fpu\libg.a(lib_a-qsort.o)
 .ARM.attributes
                0x00002002       0x32 c:/devkitpro/devkitarm/bin/../lib/gcc/arm-none-eabi/4.9.2/../../../../arm-none-eabi/lib/armv6k/fpu\libg.a(lib_a-realloc.o)
 .ARM.attributes
                0x00002034       0x32 c:/devkitpro/devkitarm/bin/../lib/gcc/arm-none-eabi/4.9.2/../../../../arm-none-eabi/lib/armv6k/fpu\libg.a(lib_a-reallocr.o)
 .ARM.attributes
                0x00002066       0x32 c:/devkitpro/devkitarm/bin/../lib/gcc/arm-none-eabi/4.9.2/../../../../arm-none-eabi/lib/armv6k/fpu\libg.a(lib_a-refill.o)
 .ARM.attributes
                0x00002098       0x32 c:/devkitpro/devkitarm/bin/../lib/gcc/arm-none-eabi/4.9.2/../../../../arm-none-eabi/lib/armv6k/fpu\libg.a(lib_a-remove.o)
 .ARM.attributes
                0x000020ca       0x1a c:/devkitpro/devkitarm/bin/../lib/gcc/arm-none-eabi/4.9.2/../../../../arm-none-eabi/lib/armv6k/fpu\libg.a(lib_a-setjmp.o)
 .ARM.attributes
                0x000020e4       0x32 c:/devkitpro/devkitarm/bin/../lib/gcc/arm-none-eabi/4.9.2/../../../../arm-none-eabi/lib/armv6k/fpu\libg.a(lib_a-signal.o)
 .ARM.attributes
                0x00002116       0x32 c:/devkitpro/devkitarm/bin/../lib/gcc/arm-none-eabi/4.9.2/../../../../arm-none-eabi/lib/armv6k/fpu\libg.a(lib_a-snprintf.o)
 .ARM.attributes
                0x00002148       0x32 c:/devkitpro/devkitarm/bin/../lib/gcc/arm-none-eabi/4.9.2/../../../../arm-none-eabi/lib/armv6k/fpu\libg.a(lib_a-sprintf.o)
 .ARM.attributes
                0x0000217a       0x32 c:/devkitpro/devkitarm/bin/../lib/gcc/arm-none-eabi/4.9.2/../../../../arm-none-eabi/lib/armv6k/fpu\libg.a(lib_a-stdio.o)
 .ARM.attributes
                0x000021ac       0x32 c:/devkitpro/devkitarm/bin/../lib/gcc/arm-none-eabi/4.9.2/../../../../arm-none-eabi/lib/armv6k/fpu\libg.a(lib_a-strchr.o)
 .ARM.attributes
                0x000021de       0x1a c:/devkitpro/devkitarm/bin/../lib/gcc/arm-none-eabi/4.9.2/../../../../arm-none-eabi/lib/armv6k/fpu\libg.a(lib_a-strcmp.o)
 .ARM.attributes
                0x000021f8       0x32 c:/devkitpro/devkitarm/bin/../lib/gcc/arm-none-eabi/4.9.2/../../../../arm-none-eabi/lib/armv6k/fpu\libg.a(lib_a-strcpy.o)
 .ARM.attributes
                0x0000222a       0x32 c:/devkitpro/devkitarm/bin/../lib/gcc/arm-none-eabi/4.9.2/../../../../arm-none-eabi/lib/armv6k/fpu\libg.a(lib_a-strerror.o)
 .ARM.attributes
                0x0000225c       0x32 c:/devkitpro/devkitarm/bin/../lib/gcc/arm-none-eabi/4.9.2/../../../../arm-none-eabi/lib/armv6k/fpu\libg.a(lib_a-strlen.o)
 .ARM.attributes
                0x0000228e       0x32 c:/devkitpro/devkitarm/bin/../lib/gcc/arm-none-eabi/4.9.2/../../../../arm-none-eabi/lib/armv6k/fpu\libg.a(lib_a-strncat.o)
 .ARM.attributes
                0x000022c0       0x32 c:/devkitpro/devkitarm/bin/../lib/gcc/arm-none-eabi/4.9.2/../../../../arm-none-eabi/lib/armv6k/fpu\libg.a(lib_a-strncmp.o)
 .ARM.attributes
                0x000022f2       0x32 c:/devkitpro/devkitarm/bin/../lib/gcc/arm-none-eabi/4.9.2/../../../../arm-none-eabi/lib/armv6k/fpu\libg.a(lib_a-strncpy.o)
 .ARM.attributes
                0x00002324       0x32 c:/devkitpro/devkitarm/bin/../lib/gcc/arm-none-eabi/4.9.2/../../../../arm-none-eabi/lib/armv6k/fpu\libg.a(lib_a-strrchr.o)
 .ARM.attributes
                0x00002356       0x32 c:/devkitpro/devkitarm/bin/../lib/gcc/arm-none-eabi/4.9.2/../../../../arm-none-eabi/lib/armv6k/fpu\libg.a(lib_a-strstr.o)
 .ARM.attributes
                0x00002388       0x32 c:/devkitpro/devkitarm/bin/../lib/gcc/arm-none-eabi/4.9.2/../../../../arm-none-eabi/lib/armv6k/fpu\libg.a(lib_a-strtod.o)
 .ARM.attributes
                0x000023ba       0x32 c:/devkitpro/devkitarm/bin/../lib/gcc/arm-none-eabi/4.9.2/../../../../arm-none-eabi/lib/armv6k/fpu\libg.a(lib_a-strtok.o)
 .ARM.attributes
                0x000023ec       0x32 c:/devkitpro/devkitarm/bin/../lib/gcc/arm-none-eabi/4.9.2/../../../../arm-none-eabi/lib/armv6k/fpu\libg.a(lib_a-strtok_r.o)
 .ARM.attributes
                0x0000241e       0x32 c:/devkitpro/devkitarm/bin/../lib/gcc/arm-none-eabi/4.9.2/../../../../arm-none-eabi/lib/armv6k/fpu\libg.a(lib_a-strtol.o)
 .ARM.attributes
                0x00002450       0x32 c:/devkitpro/devkitarm/bin/../lib/gcc/arm-none-eabi/4.9.2/../../../../arm-none-eabi/lib/armv6k/fpu\libg.a(lib_a-svfprintf.o)
 .ARM.attributes
                0x00002482       0x32 c:/devkitpro/devkitarm/bin/../lib/gcc/arm-none-eabi/4.9.2/../../../../arm-none-eabi/lib/armv6k/fpu\libg.a(lib_a-u_strerr.o)
 .ARM.attributes
                0x000024b4       0x32 c:/devkitpro/devkitarm/bin/../lib/gcc/arm-none-eabi/4.9.2/../../../../arm-none-eabi/lib/armv6k/fpu\libg.a(lib_a-vfprintf.o)
 .ARM.attributes
                0x000024e6       0x32 c:/devkitpro/devkitarm/bin/../lib/gcc/arm-none-eabi/4.9.2/../../../../arm-none-eabi/lib/armv6k/fpu\libg.a(lib_a-vsnprintf.o)
 .ARM.attributes
                0x00002518       0x32 c:/devkitpro/devkitarm/bin/../lib/gcc/arm-none-eabi/4.9.2/../../../../arm-none-eabi/lib/armv6k/fpu\libg.a(lib_a-vswprintf.o)
 .ARM.attributes
                0x0000254a       0x32 c:/devkitpro/devkitarm/bin/../lib/gcc/arm-none-eabi/4.9.2/../../../../arm-none-eabi/lib/armv6k/fpu\libg.a(lib_a-wbuf.o)
 .ARM.attributes
                0x0000257c       0x32 c:/devkitpro/devkitarm/bin/../lib/gcc/arm-none-eabi/4.9.2/../../../../arm-none-eabi/lib/armv6k/fpu\libg.a(lib_a-wcrtomb.o)
 .ARM.attributes
                0x000025ae       0x32 c:/devkitpro/devkitarm/bin/../lib/gcc/arm-none-eabi/4.9.2/../../../../arm-none-eabi/lib/armv6k/fpu\libg.a(lib_a-wcsrtombs.o)
 .ARM.attributes
                0x000025e0       0x32 c:/devkitpro/devkitarm/bin/../lib/gcc/arm-none-eabi/4.9.2/../../../../arm-none-eabi/lib/armv6k/fpu\libg.a(lib_a-wctomb_r.o)
 .ARM.attributes
                0x00002612       0x32 c:/devkitpro/devkitarm/bin/../lib/gcc/arm-none-eabi/4.9.2/../../../../arm-none-eabi/lib/armv6k/fpu\libg.a(lib_a-wsetup.o)
 .ARM.attributes
                0x00002644       0x32 c:/devkitpro/devkitarm/bin/../lib/gcc/arm-none-eabi/4.9.2/../../../../arm-none-eabi/lib/armv6k/fpu\libg.a(lib_a-ctype_.o)
 .ARM.attributes
                0x00002676       0x32 c:/devkitpro/devkitarm/bin/../lib/gcc/arm-none-eabi/4.9.2/../../../../arm-none-eabi/lib/armv6k/fpu\libg.a(lib_a-dtoa.o)
 .ARM.attributes
                0x000026a8       0x32 c:/devkitpro/devkitarm/bin/../lib/gcc/arm-none-eabi/4.9.2/../../../../arm-none-eabi/lib/armv6k/fpu\libg.a(lib_a-flags.o)
 .ARM.attributes
                0x000026da       0x32 c:/devkitpro/devkitarm/bin/../lib/gcc/arm-none-eabi/4.9.2/../../../../arm-none-eabi/lib/armv6k/fpu\libg.a(lib_a-fvwrite.o)
 .ARM.attributes
                0x0000270c       0x32 c:/devkitpro/devkitarm/bin/../lib/gcc/arm-none-eabi/4.9.2/../../../../arm-none-eabi/lib/armv6k/fpu\libg.a(lib_a-gdtoa-gethex.o)
 .ARM.attributes
                0x0000273e       0x32 c:/devkitpro/devkitarm/bin/../lib/gcc/arm-none-eabi/4.9.2/../../../../arm-none-eabi/lib/armv6k/fpu\libg.a(lib_a-gdtoa-hexnan.o)
 .ARM.attributes
                0x00002770       0x32 c:/devkitpro/devkitarm/bin/../lib/gcc/arm-none-eabi/4.9.2/../../../../arm-none-eabi/lib/armv6k/fpu\libg.a(lib_a-locale.o)
 .ARM.attributes
                0x000027a2       0x32 c:/devkitpro/devkitarm/bin/../lib/gcc/arm-none-eabi/4.9.2/../../../../arm-none-eabi/lib/armv6k/fpu\libg.a(lib_a-mbtowc_r.o)
 .ARM.attributes
                0x000027d4       0x32 c:/devkitpro/devkitarm/bin/../lib/gcc/arm-none-eabi/4.9.2/../../../../arm-none-eabi/lib/armv6k/fpu\libg.a(lib_a-mprec.o)
 .ARM.attributes
                0x00002806       0x32 c:/devkitpro/devkitarm/bin/../lib/gcc/arm-none-eabi/4.9.2/../../../../arm-none-eabi/lib/armv6k/fpu\libg.a(lib_a-sf_nan.o)
 .ARM.attributes
                0x00002838       0x32 c:/devkitpro/devkitarm/bin/../lib/gcc/arm-none-eabi/4.9.2/../../../../arm-none-eabi/lib/armv6k/fpu\libg.a(lib_a-strcasecmp.o)
 .ARM.attributes
                0x0000286a       0x32 c:/devkitpro/devkitarm/bin/../lib/gcc/arm-none-eabi/4.9.2/../../../../arm-none-eabi/lib/armv6k/fpu\libg.a(lib_a-strcat.o)
 .ARM.attributes
                0x0000289c       0x32 c:/devkitpro/devkitarm/bin/../lib/gcc/arm-none-eabi/4.9.2/../../../../arm-none-eabi/lib/armv6k/fpu\libg.a(lib_a-strlcpy.o)
 .ARM.attributes
                0x000028ce       0x32 c:/devkitpro/devkitarm/bin/../lib/gcc/arm-none-eabi/4.9.2/../../../../arm-none-eabi/lib/armv6k/fpu\libg.a(lib_a-strncasecmp.o)
 .ARM.attributes
                0x00002900       0x32 c:/devkitpro/devkitarm/bin/../lib/gcc/arm-none-eabi/4.9.2/../../../../arm-none-eabi/lib/armv6k/fpu\libg.a(lib_a-svfiprintf.o)
 .ARM.attributes
                0x00002932       0x32 c:/devkitpro/devkitarm/bin/../lib/gcc/arm-none-eabi/4.9.2/../../../../arm-none-eabi/lib/armv6k/fpu\libg.a(lib_a-svfwprintf.o)
 .ARM.attributes
                0x00002964       0x32 c:/devkitpro/devkitarm/bin/../lib/gcc/arm-none-eabi/4.9.2/../../../../arm-none-eabi/lib/armv6k/fpu\libg.a(lib_a-vfiprintf.o)
 .ARM.attributes
                0x00002996       0x32 c:/devkitpro/devkitarm/bin/../lib/gcc/arm-none-eabi/4.9.2/../../../../arm-none-eabi/lib/armv6k/fpu\libg.a(lib_a-wcslen.o)
 .ARM.attributes
                0x000029c8       0x32 c:/devkitpro/devkitarm/bin/../lib/gcc/arm-none-eabi/4.9.2/../../../../arm-none-eabi/lib/armv6k/fpu\libg.a(lib_a-wcsnrtombs.o)
 .ARM.attributes
                0x000029fa       0x32 c:/devkitpro/devkitarm/bin/../lib/gcc/arm-none-eabi/4.9.2/../../../../arm-none-eabi/lib/armv6k/fpu\libg.a(lib_a-wmemchr.o)
 .ARM.attributes
                0x00002a2c       0x32 c:/devkitpro/devkitarm/bin/../lib/gcc/arm-none-eabi/4.9.2/../../../../arm-none-eabi/lib/armv6k/fpu\libg.a(lib_a-btowc.o)
 .ARM.attributes
                0x00002a5e       0x32 c:/devkitpro/devkitarm/bin/../lib/gcc/arm-none-eabi/4.9.2/../../../../arm-none-eabi/lib/armv6k/fpu\libg.a(lib_a-callocr.o)
 .ARM.attributes
                0x00002a90       0x32 c:/devkitpro/devkitarm/bin/../lib/gcc/arm-none-eabi/4.9.2/../../../../arm-none-eabi/lib/armv6k/fpu\libg.a(lib_a-fputwc.o)
 .ARM.attributes
                0x00002ac2       0x32 c:/devkitpro/devkitarm/bin/../lib/gcc/arm-none-eabi/4.9.2/../../../../arm-none-eabi/lib/armv6k/fpu\libg.a(lib_a-getenv_r.o)
 .ARM.attributes
                0x00002af4       0x32 c:/devkitpro/devkitarm/bin/../lib/gcc/arm-none-eabi/4.9.2/../../../../arm-none-eabi/lib/armv6k/fpu\libg.a(lib_a-mbrlen.o)
 .ARM.attributes
                0x00002b26       0x32 c:/devkitpro/devkitarm/bin/../lib/gcc/arm-none-eabi/4.9.2/../../../../arm-none-eabi/lib/armv6k/fpu\libg.a(lib_a-mbrtowc.o)
 .ARM.attributes
                0x00002b58       0x32 c:/devkitpro/devkitarm/bin/../lib/gcc/arm-none-eabi/4.9.2/../../../../arm-none-eabi/lib/armv6k/fpu\libg.a(lib_a-mbsnrtowcs.o)
 .ARM.attributes
                0x00002b8a       0x32 c:/devkitpro/devkitarm/bin/../lib/gcc/arm-none-eabi/4.9.2/../../../../arm-none-eabi/lib/armv6k/fpu\libg.a(lib_a-environ.o)
 .ARM.attributes
                0x00002bbc       0x32 c:/devkitpro/devkitarm/bin/../lib/gcc/arm-none-eabi/4.9.2/../../../../arm-none-eabi/lib/armv6k/fpu\libg.a(lib_a-envlock.o)
 .ARM.attributes
                0x00002bee       0x32 c:/devkitpro/devkitarm/bin/../lib/gcc/arm-none-eabi/4.9.2/../../../../arm-none-eabi/lib/armv6k/fpu\libsysbase.a(iosupport.o)
 .ARM.attributes
                0x00002c20       0x32 c:/devkitpro/devkitarm/bin/../lib/gcc/arm-none-eabi/4.9.2/../../../../arm-none-eabi/lib/armv6k/fpu\libsysbase.a(close.o)
 .ARM.attributes
                0x00002c52       0x32 c:/devkitpro/devkitarm/bin/../lib/gcc/arm-none-eabi/4.9.2/../../../../arm-none-eabi/lib/armv6k/fpu\libsysbase.a(fstat.o)
 .ARM.attributes
                0x00002c84       0x32 c:/devkitpro/devkitarm/bin/../lib/gcc/arm-none-eabi/4.9.2/../../../../arm-none-eabi/lib/armv6k/fpu\libsysbase.a(getpid.o)
 .ARM.attributes
                0x00002cb6       0x32 c:/devkitpro/devkitarm/bin/../lib/gcc/arm-none-eabi/4.9.2/../../../../arm-none-eabi/lib/armv6k/fpu\libsysbase.a(isatty.o)
 .ARM.attributes
                0x00002ce8       0x32 c:/devkitpro/devkitarm/bin/../lib/gcc/arm-none-eabi/4.9.2/../../../../arm-none-eabi/lib/armv6k/fpu\libsysbase.a(kill.o)
 .ARM.attributes
                0x00002d1a       0x32 c:/devkitpro/devkitarm/bin/../lib/gcc/arm-none-eabi/4.9.2/../../../../arm-none-eabi/lib/armv6k/fpu\libsysbase.a(lseek.o)
 .ARM.attributes
                0x00002d4c       0x32 c:/devkitpro/devkitarm/bin/../lib/gcc/arm-none-eabi/4.9.2/../../../../arm-none-eabi/lib/armv6k/fpu\libsysbase.a(open.o)
 .ARM.attributes
                0x00002d7e       0x32 c:/devkitpro/devkitarm/bin/../lib/gcc/arm-none-eabi/4.9.2/../../../../arm-none-eabi/lib/armv6k/fpu\libsysbase.a(read.o)
 .ARM.attributes
                0x00002db0       0x32 c:/devkitpro/devkitarm/bin/../lib/gcc/arm-none-eabi/4.9.2/../../../../arm-none-eabi/lib/armv6k/fpu\libsysbase.a(sbrk.o)
 .ARM.attributes
                0x00002de2       0x32 c:/devkitpro/devkitarm/bin/../lib/gcc/arm-none-eabi/4.9.2/../../../../arm-none-eabi/lib/armv6k/fpu\libsysbase.a(unlink.o)
 .ARM.attributes
                0x00002e14       0x32 c:/devkitpro/devkitarm/bin/../lib/gcc/arm-none-eabi/4.9.2/../../../../arm-none-eabi/lib/armv6k/fpu\libsysbase.a(write.o)
 .ARM.attributes
                0x00002e46       0x32 c:/devkitpro/devkitarm/bin/../lib/gcc/arm-none-eabi/4.9.2/../../../../arm-none-eabi/lib/armv6k/fpu\libsysbase.a(_exit.o)
 .ARM.attributes
                0x00002e78       0x32 c:/devkitpro/devkitarm/bin/../lib/gcc/arm-none-eabi/4.9.2/../../../../arm-none-eabi/lib/armv6k/fpu\libsysbase.a(malloc_vars.o)
 .ARM.attributes
                0x00002eaa       0x32 c:/devkitpro/devkitarm/bin/../lib/gcc/arm-none-eabi/4.9.2/../../../../arm-none-eabi/lib/armv6k/fpu\libsysbase.a(chdir.o)
 .ARM.attributes
                0x00002edc       0x32 c:/devkitpro/devkitarm/bin/../lib/gcc/arm-none-eabi/4.9.2/../../../../arm-none-eabi/lib/armv6k/fpu\libsysbase.a(flock.o)
 .ARM.attributes
                0x00002f0e       0x32 c:/devkitpro/devkitarm/bin/../lib/gcc/arm-none-eabi/4.9.2/../../../../arm-none-eabi/lib/armv6k/fpu\libsysbase.a(syscall_support.o)
 .ARM.attributes
                0x00002f40       0x32 c:/devkitpro/devkitarm/bin/../lib/gcc/arm-none-eabi/4.9.2/../../../../arm-none-eabi/lib/armv6k/fpu\libsysbase.a(handle_manager.o)
 .ARM.attributes
                0x00002f72       0x32 c:/devkitpro/devkitarm/bin/../lib/gcc/arm-none-eabi/4.9.2/../../../../arm-none-eabi/lib/armv6k/fpu\libsysbase.a(getreent.o)
 .ARM.attributes
                0x00002fa4       0x1c c:/devkitpro/devkitarm/bin/../lib/gcc/arm-none-eabi/4.9.2/armv6k/fpu\libgcc.a(_aeabi_uldivmod.o)
 .ARM.attributes
                0x00002fc0       0x32 c:/devkitpro/devkitarm/bin/../lib/gcc/arm-none-eabi/4.9.2/armv6k/fpu\libgcc.a(bpabi.o)
 .ARM.attributes
                0x00002ff2       0x32 c:/devkitpro/devkitarm/bin/../lib/gcc/arm-none-eabi/4.9.2/armv6k/fpu\libgcc.a(_divdi3.o)
 .ARM.attributes
                0x00003024       0x32 c:/devkitpro/devkitarm/bin/../lib/gcc/arm-none-eabi/4.9.2/armv6k/fpu\libgcc.a(_udivdi3.o)
 .ARM.attributes
                0x00003056       0x32 c:/devkitpro/devkitarm/bin/../lib/gcc/arm-none-eabi/4.9.2/../../../../arm-none-eabi/lib/armv6k/fpu\libg.a(lib_a-strnlen.o)
 .ARM.attributes
                0x00003088       0x32 c:/devkitpro/devkitarm/bin/../lib/gcc/arm-none-eabi/4.9.2/armv6k/fpu/crtend.o
 .ARM.attributes
                0x000030ba       0x1c c:/devkitpro/devkitarm/bin/../lib/gcc/arm-none-eabi/4.9.2/armv6k/fpu/crtn.o

.debug_ranges   0x00000000      0xf08
 .debug_ranges  0x00000000       0x68 main.o
 .debug_ranges  0x00000068       0xe8 c:/devkitPro/libctru/lib\libsftd.a(sftd.o)
 .debug_ranges  0x00000150       0x30 c:/devkitPro/libctru/lib\libsftd.a(bin_packing_2d.o)
 .debug_ranges  0x00000180       0x48 c:/devkitPro/libctru/lib\libsftd.a(int_htab.o)
 .debug_ranges  0x000001c8       0x50 c:/devkitPro/libctru/lib\libsf2d.a(sf2d.o)
 .debug_ranges  0x00000218       0x80 c:/devkitPro/libctru/lib\libsf2d.a(sf2d_private.o)
 .debug_ranges  0x00000298      0x140 c:/devkitPro/libctru/lib\libsf2d.a(sf2d_texture.o)
 .debug_ranges  0x000003d8       0x70 c:/devkitPro/libctru/lib\libctru.a(linear.o)
 .debug_ranges  0x00000448      0x1d8 c:/devkitPro/libctru/lib\libctru.a(mem_pool.o)
 .debug_ranges  0x00000620       0x78 c:/devkitPro/libctru/lib\libctru.a(vram.o)
 .debug_ranges  0x00000698       0x90 c:/devkitPro/libctru/lib\libctru.a(gfx.o)
 .debug_ranges  0x00000728       0x48 c:/devkitPro/libctru/lib\libctru.a(os.o)
 .debug_ranges  0x00000770       0xd0 c:/devkitPro/libctru/lib\libctru.a(romfs_dev.o)
 .debug_ranges  0x00000840       0x58 c:/devkitPro/libctru/lib\libctru.a(gpu.o)
 .debug_ranges  0x00000898       0x58 c:/devkitPro/libctru/lib\libctru.a(shaderProgram.o)
 .debug_ranges  0x000008f0       0x38 c:/devkitPro/libctru/lib\libctru.a(shbin.o)
 .debug_ranges  0x00000928       0xf8 c:/devkitPro/libctru/lib\libctru.a(apt.o)
 .debug_ranges  0x00000a20      0x110 c:/devkitPro/libctru/lib\libctru.a(csnd.o)
 .debug_ranges  0x00000b30       0x60 c:/devkitPro/libctru/lib\libctru.a(gsp.o)
 .debug_ranges  0x00000b90       0x18 c:/devkitPro/libctru/lib\libctru.a(irrst.o)
 .debug_ranges  0x00000ba8       0x20 c:/devkitPro/libctru/lib\libctru.a(rbtree_find.o)
 .debug_ranges  0x00000bc8      0x110 c:/devkitPro/libctru/lib\libctru.a(rbtree_insert.o)
 .debug_ranges  0x00000cd8       0xf8 c:/devkitPro/libctru/lib\libctru.a(rbtree_remove.o)
 .debug_ranges  0x00000dd0       0x30 c:/devkitPro/libctru/lib\libctru.a(rbtree_rotate.o)
 .debug_ranges  0x00000e00       0x70 c:/devkitPro/libctru/lib\libctru.a(mappable.o)
 .debug_ranges  0x00000e70       0x30 c:/devkitPro/libctru/lib\libctru.a(rbtree_iterator.o)
 .debug_ranges  0x00000ea0       0x10 c:/devkitPro/libctru/lib\libctru.a(decode_utf8.o)
 .debug_ranges  0x00000eb0       0x48 c:/devkitPro/libctru/lib\libctru.a(sdmc_dev.o)
 .debug_ranges  0x00000ef8       0x10 c:/devkitPro/libctru/lib\libctru.a(decode_utf16.o)
