Archive member included to satisfy reference by file (symbol)

c:/devkitPro/libctru/lib\libsftd.a(sftd.o)
                              main.o (sftd_init)
c:/devkitPro/libctru/lib\libsftd.a(texture_atlas.o)
                              c:/devkitPro/libctru/lib\libsftd.a(sftd.o) (texture_atlas_create)
c:/devkitPro/libctru/lib\libsftd.a(bin_packing_2d.o)
                              c:/devkitPro/libctru/lib\libsftd.a(texture_atlas.o) (bp2d_create)
c:/devkitPro/libctru/lib\libsftd.a(int_htab.o)
                              c:/devkitPro/libctru/lib\libsftd.a(texture_atlas.o) (int_htab_create)
c:/devkitPro/portlibs/armv6k/lib\libfreetype.a(ftinit.o)
                              c:/devkitPro/libctru/lib\libsftd.a(sftd.o) (FT_Init_FreeType)
c:/devkitPro/portlibs/armv6k/lib\libfreetype.a(ftbase.o)
                              c:/devkitPro/libctru/lib\libsftd.a(sftd.o) (FT_Get_Kerning)
c:/devkitPro/portlibs/armv6k/lib\libfreetype.a(truetype.o)
                              c:/devkitPro/portlibs/armv6k/lib\libfreetype.a(ftinit.o) (tt_driver_class)
c:/devkitPro/portlibs/armv6k/lib\libfreetype.a(type1.o)
                              c:/devkitPro/portlibs/armv6k/lib\libfreetype.a(ftinit.o) (t1_driver_class)
c:/devkitPro/portlibs/armv6k/lib\libfreetype.a(cff.o)
                              c:/devkitPro/portlibs/armv6k/lib\libfreetype.a(ftinit.o) (cff_driver_class)
c:/devkitPro/portlibs/armv6k/lib\libfreetype.a(type1cid.o)
                              c:/devkitPro/portlibs/armv6k/lib\libfreetype.a(ftinit.o) (t1cid_driver_class)
c:/devkitPro/portlibs/armv6k/lib\libfreetype.a(pfr.o)
                              c:/devkitPro/portlibs/armv6k/lib\libfreetype.a(ftinit.o) (pfr_driver_class)
c:/devkitPro/portlibs/armv6k/lib\libfreetype.a(type42.o)
                              c:/devkitPro/portlibs/armv6k/lib\libfreetype.a(ftinit.o) (t42_driver_class)
c:/devkitPro/portlibs/armv6k/lib\libfreetype.a(winfnt.o)
                              c:/devkitPro/portlibs/armv6k/lib\libfreetype.a(ftinit.o) (winfnt_driver_class)
c:/devkitPro/portlibs/armv6k/lib\libfreetype.a(pcf.o)
                              c:/devkitPro/portlibs/armv6k/lib\libfreetype.a(ftinit.o) (pcf_driver_class)
c:/devkitPro/portlibs/armv6k/lib\libfreetype.a(bdf.o)
                              c:/devkitPro/portlibs/armv6k/lib\libfreetype.a(ftinit.o) (bdf_driver_class)
c:/devkitPro/portlibs/armv6k/lib\libfreetype.a(sfnt.o)
                              c:/devkitPro/portlibs/armv6k/lib\libfreetype.a(ftinit.o) (sfnt_module_class)
c:/devkitPro/portlibs/armv6k/lib\libfreetype.a(autofit.o)
                              c:/devkitPro/portlibs/armv6k/lib\libfreetype.a(ftinit.o) (autofit_module_class)
c:/devkitPro/portlibs/armv6k/lib\libfreetype.a(pshinter.o)
                              c:/devkitPro/portlibs/armv6k/lib\libfreetype.a(ftinit.o) (pshinter_module_class)
c:/devkitPro/portlibs/armv6k/lib\libfreetype.a(raster.o)
                              c:/devkitPro/portlibs/armv6k/lib\libfreetype.a(ftinit.o) (ft_raster1_renderer_class)
c:/devkitPro/portlibs/armv6k/lib\libfreetype.a(smooth.o)
                              c:/devkitPro/portlibs/armv6k/lib\libfreetype.a(ftinit.o) (ft_smooth_lcdv_renderer_class)
c:/devkitPro/portlibs/armv6k/lib\libfreetype.a(ftcache.o)
                              c:/devkitPro/libctru/lib\libsftd.a(sftd.o) (FTC_Manager_LookupFace)
c:/devkitPro/portlibs/armv6k/lib\libfreetype.a(ftgzip.o)
                              c:/devkitPro/portlibs/armv6k/lib\libfreetype.a(pcf.o) (FT_Stream_OpenGzip)
c:/devkitPro/portlibs/armv6k/lib\libfreetype.a(ftlzw.o)
                              c:/devkitPro/portlibs/armv6k/lib\libfreetype.a(pcf.o) (FT_Stream_OpenLZW)
c:/devkitPro/portlibs/armv6k/lib\libfreetype.a(psaux.o)
                              c:/devkitPro/portlibs/armv6k/lib\libfreetype.a(ftinit.o) (psaux_module_class)
c:/devkitPro/portlibs/armv6k/lib\libfreetype.a(psnames.o)
                              c:/devkitPro/portlibs/armv6k/lib\libfreetype.a(ftinit.o) (psnames_module_class)
c:/devkitPro/portlibs/armv6k/lib\libfreetype.a(ftsystem.o)
                              c:/devkitPro/portlibs/armv6k/lib\libfreetype.a(ftbase.o) (FT_Stream_Open)
c:/devkitPro/portlibs/armv6k/lib\libfreetype.a(ftbitmap.o)
                              c:/devkitPro/portlibs/armv6k/lib\libfreetype.a(sfnt.o) (FT_Bitmap_Init)
c:/devkitPro/portlibs/armv6k/lib\libfreetype.a(ftglyph.o)
                              c:/devkitPro/portlibs/armv6k/lib\libfreetype.a(ftcache.o) (FT_Get_Glyph)
c:/devkitPro/portlibs/armv6k/lib\libz.a(inflate.o)
                              c:/devkitPro/portlibs/armv6k/lib\libfreetype.a(ftgzip.o) (inflateReset)
c:/devkitPro/portlibs/armv6k/lib\libz.a(inftrees.o)
                              c:/devkitPro/portlibs/armv6k/lib\libz.a(inflate.o) (inflate_table)
c:/devkitPro/portlibs/armv6k/lib\libz.a(zutil.o)
                              c:/devkitPro/portlibs/armv6k/lib\libz.a(inflate.o) (zcalloc)
c:/devkitPro/portlibs/armv6k/lib\libz.a(adler32.o)
                              c:/devkitPro/portlibs/armv6k/lib\libz.a(inflate.o) (adler32)
c:/devkitPro/portlibs/armv6k/lib\libz.a(crc32.o)
                              c:/devkitPro/portlibs/armv6k/lib\libz.a(inflate.o) (crc32)
c:/devkitPro/portlibs/armv6k/lib\libz.a(inffast.o)
                              c:/devkitPro/portlibs/armv6k/lib\libz.a(inflate.o) (inflate_fast)
c:/devkitPro/libctru/lib\libsf2d.a(sf2d.o)
                              main.o (sf2d_init)
c:/devkitPro/libctru/lib\libsf2d.a(sf2d_private.o)
                              c:/devkitPro/libctru/lib\libsf2d.a(sf2d.o) (GPU_SetDummyTexEnv)
c:/devkitPro/libctru/lib\libsf2d.a(sf2d_texture.o)
                              c:/devkitPro/libctru/lib\libsftd.a(texture_atlas.o) (sf2d_create_texture)
c:/devkitPro/libctru/lib\libsf2d.a(shader.vsh.o)
                              c:/devkitPro/libctru/lib\libsf2d.a(sf2d.o) (shader_vsh_shbin_size)
c:/devkitPro/libctru/lib\libctru.a(linear.o)
                              c:/devkitPro/libctru/lib\libsf2d.a(sf2d_texture.o) (linearMemAlign)
c:/devkitPro/libctru/lib\libctru.a(mem_pool.o)
                              c:/devkitPro/libctru/lib\libctru.a(linear.o) (MemPool::Allocate(MemChunk&, unsigned long, int))
c:/devkitPro/libctru/lib\libctru.a(vram.o)
                              c:/devkitPro/libctru/lib\libsf2d.a(sf2d.o) (vramMemAlign)
c:/devkitPro/libctru/lib\libctru.a(gfx.o)
                              c:/devkitPro/libctru/lib\libsf2d.a(sf2d.o) (gfxSet3D)
c:/devkitPro/libctru/lib\libctru.a(os.o)
                              c:/devkitPro/libctru/lib\libsf2d.a(sf2d.o) (osConvertVirtToPhys)
c:/devkitPro/libctru/lib\libctru.a(romfs_dev.o)
                              c:/devkitPro/libctru/lib\libctru.a(os.o) (romfsInitFromFile)
c:/devkitPro/libctru/lib\libctru.a(srv.o)
                              main.o (srvExit)
c:/devkitPro/libctru/lib\libctru.a(gpu.o)
                              c:/devkitPro/libctru/lib\libsf2d.a(sf2d.o) (GPU_Init)
c:/devkitPro/libctru/lib\libctru.a(gpuResetSequence.o)
                              c:/devkitPro/libctru/lib\libctru.a(gpu.o) (gpuResetSequenceLength)
c:/devkitPro/libctru/lib\libctru.a(shaderProgram.o)
                              c:/devkitPro/libctru/lib\libsf2d.a(sf2d.o) (shaderInstanceGetUniformLocation)
c:/devkitPro/libctru/lib\libctru.a(shbin.o)
                              c:/devkitPro/libctru/lib\libsf2d.a(sf2d.o) (DVLB_Free)
c:/devkitPro/libctru/lib\libctru.a(apt.o)
                              c:/devkitPro/libctru/lib\libsf2d.a(sf2d.o) (aptHook)
c:/devkitPro/libctru/lib\libctru.a(cfgu.o)
                              c:/devkitPro/libctru/lib\libctru.a(os.o) (initCfgu)
c:/devkitPro/libctru/lib\libctru.a(csnd.o)
                              main.o (csndInit)
c:/devkitPro/libctru/lib\libctru.a(fs.o)
                              c:/devkitPro/libctru/lib\libctru.a(os.o) (FSUSER_OpenFileDirectly)
c:/devkitPro/libctru/lib\libctru.a(gsp.o)
                              c:/devkitPro/libctru/lib\libctru.a(gfx.o) (gspInit)
c:/devkitPro/libctru/lib\libctru.a(gx.o)
                              c:/devkitPro/libctru/lib\libctru.a(gfx.o) (gxCmdBuf)
c:/devkitPro/libctru/lib\libctru.a(hid.o)
                              main.o (hidExit)
c:/devkitPro/libctru/lib\libctru.a(irrst.o)
                              c:/devkitPro/libctru/lib\libctru.a(hid.o) (irrstScanInput)
c:/devkitPro/libctru/lib\libctru.a(ptm.o)
                              c:/devkitPro/libctru/lib\libctru.a(os.o) (ptmSysmInit)
c:/devkitPro/libctru/lib\libctru.a(rbtree_find.o)
                              c:/devkitPro/libctru/lib\libctru.a(linear.o) (rbtree_find)
c:/devkitPro/libctru/lib\libctru.a(rbtree_init.o)
                              c:/devkitPro/libctru/lib\libctru.a(linear.o) (rbtree_init)
c:/devkitPro/libctru/lib\libctru.a(rbtree_insert.o)
                              c:/devkitPro/libctru/lib\libctru.a(linear.o) (rbtree_insert)
c:/devkitPro/libctru/lib\libctru.a(rbtree_remove.o)
                              c:/devkitPro/libctru/lib\libctru.a(linear.o) (rbtree_remove)
c:/devkitPro/libctru/lib\libctru.a(rbtree_rotate.o)
                              c:/devkitPro/libctru/lib\libctru.a(rbtree_insert.o) (rbtree_rotate)
c:/devkitPro/libctru/lib\libctru.a(utf8_to_utf16.o)
                              c:/devkitPro/libctru/lib\libctru.a(romfs_dev.o) (utf8_to_utf16)
c:/devkitPro/libctru/lib\libctru.a(allocateHeaps.o)
                              c:/devkitPro/libctru/lib\libctru.a(linear.o) (__linear_heap)
c:/devkitPro/libctru/lib\libctru.a(initArgv.o)
                              c:/devkitpro/devkitarm/bin/../lib/gcc/arm-none-eabi/4.9.2/../../../../arm-none-eabi/lib/armv6k/fpu/3dsx_crt0.o (__system_argc)
c:/devkitPro/libctru/lib\libctru.a(initSystem.o)
                              c:/devkitPro/libctru/lib\libctru.a(apt.o) (__system_retAddr)
c:/devkitPro/libctru/lib\libctru.a(svc.o)
                              c:/devkitPro/libctru/lib\libctru.a(allocateHeaps.o) (svcControlMemory)
c:/devkitPro/libctru/lib\libctru.a(stack_adjust.o)
                              c:/devkitpro/devkitarm/bin/../lib/gcc/arm-none-eabi/4.9.2/../../../../arm-none-eabi/lib/armv6k/fpu/3dsx_crt0.o (initSystem)
c:/devkitPro/libctru/lib\libctru.a(mappable.o)
                              c:/devkitPro/libctru/lib\libctru.a(gfx.o) (mappableAlloc)
c:/devkitPro/libctru/lib\libctru.a(rbtree_iterator.o)
                              c:/devkitPro/libctru/lib\libctru.a(rbtree_remove.o) (rbtree_node_next)
c:/devkitPro/libctru/lib\libctru.a(decode_utf8.o)
                              c:/devkitPro/libctru/lib\libctru.a(utf8_to_utf16.o) (decode_utf8)
c:/devkitPro/libctru/lib\libctru.a(encode_utf16.o)
                              c:/devkitPro/libctru/lib\libctru.a(utf8_to_utf16.o) (encode_utf16)
c:/devkitPro/libctru/lib\libctru.a(appExit.o)
                              c:/devkitPro/libctru/lib\libctru.a(stack_adjust.o) (__appExit)
c:/devkitPro/libctru/lib\libctru.a(appInit.o)
                              c:/devkitPro/libctru/lib\libctru.a(stack_adjust.o) (__appInit)
c:/devkitPro/libctru/lib\libctru.a(ctru_exit.o)
                              c:/devkitPro/libctru/lib\libctru.a(stack_adjust.o) (__libctru_exit)
c:/devkitPro/libctru/lib\libctru.a(sdmc_dev.o)
                              c:/devkitPro/libctru/lib\libctru.a(appInit.o) (sdmcInit)
c:/devkitPro/libctru/lib\libctru.a(utf16_to_utf8.o)
                              c:/devkitPro/libctru/lib\libctru.a(sdmc_dev.o) (utf16_to_utf8)
c:/devkitPro/libctru/lib\libctru.a(decode_utf16.o)
                              c:/devkitPro/libctru/lib\libctru.a(utf16_to_utf8.o) (decode_utf16)
c:/devkitPro/libctru/lib\libctru.a(encode_utf8.o)
                              c:/devkitPro/libctru/lib\libctru.a(utf16_to_utf8.o) (encode_utf8)
c:/devkitpro/devkitarm/bin/../lib/gcc/arm-none-eabi/4.9.2/../../../../arm-none-eabi/lib/armv6k/fpu\libm.a(lib_a-sf_cos.o)
                              c:/devkitPro/libctru/lib\libsf2d.a(sf2d_private.o) (cosf)
c:/devkitpro/devkitarm/bin/../lib/gcc/arm-none-eabi/4.9.2/../../../../arm-none-eabi/lib/armv6k/fpu\libm.a(lib_a-sf_sin.o)
                              c:/devkitPro/libctru/lib\libsf2d.a(sf2d_private.o) (sinf)
c:/devkitpro/devkitarm/bin/../lib/gcc/arm-none-eabi/4.9.2/../../../../arm-none-eabi/lib/armv6k/fpu\libm.a(lib_a-ef_rem_pio2.o)
                              c:/devkitpro/devkitarm/bin/../lib/gcc/arm-none-eabi/4.9.2/../../../../arm-none-eabi/lib/armv6k/fpu\libm.a(lib_a-sf_cos.o) (__ieee754_rem_pio2f)
c:/devkitpro/devkitarm/bin/../lib/gcc/arm-none-eabi/4.9.2/../../../../arm-none-eabi/lib/armv6k/fpu\libm.a(lib_a-kf_cos.o)
                              c:/devkitpro/devkitarm/bin/../lib/gcc/arm-none-eabi/4.9.2/../../../../arm-none-eabi/lib/armv6k/fpu\libm.a(lib_a-sf_cos.o) (__kernel_cosf)
c:/devkitpro/devkitarm/bin/../lib/gcc/arm-none-eabi/4.9.2/../../../../arm-none-eabi/lib/armv6k/fpu\libm.a(lib_a-kf_rem_pio2.o)
                              c:/devkitpro/devkitarm/bin/../lib/gcc/arm-none-eabi/4.9.2/../../../../arm-none-eabi/lib/armv6k/fpu\libm.a(lib_a-ef_rem_pio2.o) (__kernel_rem_pio2f)
c:/devkitpro/devkitarm/bin/../lib/gcc/arm-none-eabi/4.9.2/../../../../arm-none-eabi/lib/armv6k/fpu\libm.a(lib_a-kf_sin.o)
                              c:/devkitpro/devkitarm/bin/../lib/gcc/arm-none-eabi/4.9.2/../../../../arm-none-eabi/lib/armv6k/fpu\libm.a(lib_a-sf_cos.o) (__kernel_sinf)
c:/devkitpro/devkitarm/bin/../lib/gcc/arm-none-eabi/4.9.2/../../../../arm-none-eabi/lib/armv6k/fpu\libm.a(lib_a-sf_fabs.o)
                              c:/devkitpro/devkitarm/bin/../lib/gcc/arm-none-eabi/4.9.2/../../../../arm-none-eabi/lib/armv6k/fpu\libm.a(lib_a-ef_rem_pio2.o) (fabsf)
c:/devkitpro/devkitarm/bin/../lib/gcc/arm-none-eabi/4.9.2/../../../../arm-none-eabi/lib/armv6k/fpu\libm.a(lib_a-sf_floor.o)
                              c:/devkitpro/devkitarm/bin/../lib/gcc/arm-none-eabi/4.9.2/../../../../arm-none-eabi/lib/armv6k/fpu\libm.a(lib_a-kf_rem_pio2.o) (floorf)
c:/devkitpro/devkitarm/bin/../lib/gcc/arm-none-eabi/4.9.2/../../../../arm-none-eabi/lib/armv6k/fpu\libm.a(lib_a-sf_scalbn.o)
                              c:/devkitpro/devkitarm/bin/../lib/gcc/arm-none-eabi/4.9.2/../../../../arm-none-eabi/lib/armv6k/fpu\libm.a(lib_a-kf_rem_pio2.o) (scalbnf)
c:/devkitpro/devkitarm/bin/../lib/gcc/arm-none-eabi/4.9.2/../../../../arm-none-eabi/lib/armv6k/fpu\libm.a(lib_a-sf_copysign.o)
                              c:/devkitpro/devkitarm/bin/../lib/gcc/arm-none-eabi/4.9.2/../../../../arm-none-eabi/lib/armv6k/fpu\libm.a(lib_a-sf_scalbn.o) (copysignf)
c:/devkitpro/devkitarm/bin/../lib/gcc/arm-none-eabi/4.9.2/armv6k/fpu\libgcc.a(_udivsi3.o)
                              c:/devkitPro/libctru/lib\libsftd.a(int_htab.o) (__aeabi_uidiv)
c:/devkitpro/devkitarm/bin/../lib/gcc/arm-none-eabi/4.9.2/armv6k/fpu\libgcc.a(_divsi3.o)
                              c:/devkitPro/portlibs/armv6k/lib\libfreetype.a(ftbase.o) (__aeabi_idiv)
c:/devkitpro/devkitarm/bin/../lib/gcc/arm-none-eabi/4.9.2/armv6k/fpu\libgcc.a(_dvmd_tls.o)
                              c:/devkitpro/devkitarm/bin/../lib/gcc/arm-none-eabi/4.9.2/armv6k/fpu\libgcc.a(_udivsi3.o) (__aeabi_idiv0)
c:/devkitpro/devkitarm/bin/../lib/gcc/arm-none-eabi/4.9.2/armv6k/fpu\libgcc.a(_arm_addsubsf3.o)
                              c:/devkitPro/libctru/lib\libsf2d.a(sf2d.o) (__aeabi_ul2f)
c:/devkitpro/devkitarm/bin/../lib/gcc/arm-none-eabi/4.9.2/armv6k/fpu\libgcc.a(_popcountsi2.o)
                              c:/devkitPro/libctru/lib\libctru.a(csnd.o) (__popcountsi2)
c:/devkitpro/devkitarm/bin/../lib/gcc/arm-none-eabi/4.9.2/../../../../arm-none-eabi/lib/armv6k/fpu\libg.a(lib_a-atol.o)
                              c:/devkitPro/portlibs/armv6k/lib\libfreetype.a(type1cid.o) (atol)
c:/devkitpro/devkitarm/bin/../lib/gcc/arm-none-eabi/4.9.2/../../../../arm-none-eabi/lib/armv6k/fpu\libg.a(lib_a-bsearch.o)
                              c:/devkitPro/libctru/lib\libctru.a(sdmc_dev.o) (bsearch)
c:/devkitpro/devkitarm/bin/../lib/gcc/arm-none-eabi/4.9.2/../../../../arm-none-eabi/lib/armv6k/fpu\libg.a(lib_a-errno.o)
                              c:/devkitPro/libctru/lib\libctru.a(os.o) (__errno)
c:/devkitpro/devkitarm/bin/../lib/gcc/arm-none-eabi/4.9.2/../../../../arm-none-eabi/lib/armv6k/fpu\libg.a(lib_a-fclose.o)
                              main.o (fclose)
c:/devkitpro/devkitarm/bin/../lib/gcc/arm-none-eabi/4.9.2/../../../../arm-none-eabi/lib/armv6k/fpu\libg.a(lib_a-fflush.o)
                              c:/devkitpro/devkitarm/bin/../lib/gcc/arm-none-eabi/4.9.2/../../../../arm-none-eabi/lib/armv6k/fpu\libg.a(lib_a-fclose.o) (__sflush_r)
c:/devkitpro/devkitarm/bin/../lib/gcc/arm-none-eabi/4.9.2/../../../../arm-none-eabi/lib/armv6k/fpu\libg.a(lib_a-findfp.o)
                              c:/devkitpro/devkitarm/bin/../lib/gcc/arm-none-eabi/4.9.2/../../../../arm-none-eabi/lib/armv6k/fpu\libg.a(lib_a-fclose.o) (__sinit)
c:/devkitpro/devkitarm/bin/../lib/gcc/arm-none-eabi/4.9.2/../../../../arm-none-eabi/lib/armv6k/fpu\libg.a(lib_a-fini.o)
                              c:/devkitPro/libctru/lib\libctru.a(stack_adjust.o) (__libc_fini_array)
c:/devkitpro/devkitarm/bin/../lib/gcc/arm-none-eabi/4.9.2/../../../../arm-none-eabi/lib/armv6k/fpu\libg.a(lib_a-fopen.o)
                              main.o (fopen)
c:/devkitpro/devkitarm/bin/../lib/gcc/arm-none-eabi/4.9.2/../../../../arm-none-eabi/lib/armv6k/fpu\libg.a(lib_a-fread.o)
                              main.o (fread)
c:/devkitpro/devkitarm/bin/../lib/gcc/arm-none-eabi/4.9.2/../../../../arm-none-eabi/lib/armv6k/fpu\libg.a(lib_a-freer.o)
                              c:/devkitpro/devkitarm/bin/../lib/gcc/arm-none-eabi/4.9.2/../../../../arm-none-eabi/lib/armv6k/fpu\libg.a(lib_a-fclose.o) (_free_r)
c:/devkitpro/devkitarm/bin/../lib/gcc/arm-none-eabi/4.9.2/../../../../arm-none-eabi/lib/armv6k/fpu\libg.a(lib_a-fseek.o)
                              c:/devkitpro/devkitarm/bin/../lib/gcc/arm-none-eabi/4.9.2/../../../../arm-none-eabi/lib/armv6k/fpu\libg.a(lib_a-fopen.o) (_fseek_r)
c:/devkitpro/devkitarm/bin/../lib/gcc/arm-none-eabi/4.9.2/../../../../arm-none-eabi/lib/armv6k/fpu\libg.a(lib_a-fseeko.o)
                              c:/devkitpro/devkitarm/bin/../lib/gcc/arm-none-eabi/4.9.2/../../../../arm-none-eabi/lib/armv6k/fpu\libg.a(lib_a-fseek.o) (_fseeko_r)
c:/devkitpro/devkitarm/bin/../lib/gcc/arm-none-eabi/4.9.2/../../../../arm-none-eabi/lib/armv6k/fpu\libg.a(lib_a-ftell.o)
                              main.o (ftell)
c:/devkitpro/devkitarm/bin/../lib/gcc/arm-none-eabi/4.9.2/../../../../arm-none-eabi/lib/armv6k/fpu\libg.a(lib_a-ftello.o)
                              c:/devkitpro/devkitarm/bin/../lib/gcc/arm-none-eabi/4.9.2/../../../../arm-none-eabi/lib/armv6k/fpu\libg.a(lib_a-ftell.o) (_ftello_r)
c:/devkitpro/devkitarm/bin/../lib/gcc/arm-none-eabi/4.9.2/../../../../arm-none-eabi/lib/armv6k/fpu\libg.a(lib_a-fwalk.o)
                              c:/devkitpro/devkitarm/bin/../lib/gcc/arm-none-eabi/4.9.2/../../../../arm-none-eabi/lib/armv6k/fpu\libg.a(lib_a-findfp.o) (_fwalk)
c:/devkitpro/devkitarm/bin/../lib/gcc/arm-none-eabi/4.9.2/../../../../arm-none-eabi/lib/armv6k/fpu\libg.a(lib_a-impure.o)
                              c:/devkitpro/devkitarm/bin/../lib/gcc/arm-none-eabi/4.9.2/../../../../arm-none-eabi/lib/armv6k/fpu\libg.a(lib_a-fflush.o) (_global_impure_ptr)
c:/devkitpro/devkitarm/bin/../lib/gcc/arm-none-eabi/4.9.2/../../../../arm-none-eabi/lib/armv6k/fpu\libg.a(lib_a-init.o)
                              c:/devkitPro/libctru/lib\libctru.a(stack_adjust.o) (__libc_init_array)
c:/devkitpro/devkitarm/bin/../lib/gcc/arm-none-eabi/4.9.2/../../../../arm-none-eabi/lib/armv6k/fpu\libg.a(lib_a-makebuf.o)
                              c:/devkitpro/devkitarm/bin/../lib/gcc/arm-none-eabi/4.9.2/../../../../arm-none-eabi/lib/armv6k/fpu\libg.a(lib_a-fseeko.o) (__smakebuf_r)
c:/devkitpro/devkitarm/bin/../lib/gcc/arm-none-eabi/4.9.2/../../../../arm-none-eabi/lib/armv6k/fpu\libg.a(lib_a-malloc.o)
                              c:/devkitPro/libctru/lib\libsftd.a(sftd.o) (malloc)
c:/devkitpro/devkitarm/bin/../lib/gcc/arm-none-eabi/4.9.2/../../../../arm-none-eabi/lib/armv6k/fpu\libg.a(lib_a-mallocr.o)
                              c:/devkitpro/devkitarm/bin/../lib/gcc/arm-none-eabi/4.9.2/../../../../arm-none-eabi/lib/armv6k/fpu\libg.a(lib_a-findfp.o) (_malloc_r)
c:/devkitpro/devkitarm/bin/../lib/gcc/arm-none-eabi/4.9.2/../../../../arm-none-eabi/lib/armv6k/fpu\libg.a(lib_a-memchr.o)
                              c:/devkitPro/portlibs/armv6k/lib\libfreetype.a(type1.o) (memchr)
c:/devkitpro/devkitarm/bin/../lib/gcc/arm-none-eabi/4.9.2/../../../../arm-none-eabi/lib/armv6k/fpu\libg.a(lib_a-memcmp.o)
                              c:/devkitPro/portlibs/armv6k/lib\libfreetype.a(ftbase.o) (memcmp)
c:/devkitpro/devkitarm/bin/../lib/gcc/arm-none-eabi/4.9.2/../../../../arm-none-eabi/lib/armv6k/fpu\libg.a(lib_a-memcpy.o)
                              c:/devkitPro/libctru/lib\libsftd.a(sftd.o) (memcpy)
c:/devkitpro/devkitarm/bin/../lib/gcc/arm-none-eabi/4.9.2/../../../../arm-none-eabi/lib/armv6k/fpu\libg.a(lib_a-memmove.o)
                              c:/devkitPro/portlibs/armv6k/lib\libfreetype.a(ftbase.o) (memmove)
c:/devkitpro/devkitarm/bin/../lib/gcc/arm-none-eabi/4.9.2/../../../../arm-none-eabi/lib/armv6k/fpu\libg.a(lib_a-memset.o)
                              main.o (memset)
c:/devkitpro/devkitarm/bin/../lib/gcc/arm-none-eabi/4.9.2/../../../../arm-none-eabi/lib/armv6k/fpu\libg.a(lib_a-mlock.o)
                              c:/devkitpro/devkitarm/bin/../lib/gcc/arm-none-eabi/4.9.2/../../../../arm-none-eabi/lib/armv6k/fpu\libg.a(lib_a-freer.o) (__malloc_lock)
c:/devkitpro/devkitarm/bin/../lib/gcc/arm-none-eabi/4.9.2/../../../../arm-none-eabi/lib/armv6k/fpu\libg.a(lib_a-qsort.o)
                              c:/devkitPro/portlibs/armv6k/lib\libfreetype.a(ftbase.o) (qsort)
c:/devkitpro/devkitarm/bin/../lib/gcc/arm-none-eabi/4.9.2/../../../../arm-none-eabi/lib/armv6k/fpu\libg.a(lib_a-realloc.o)
                              c:/devkitPro/portlibs/armv6k/lib\libfreetype.a(ftsystem.o) (realloc)
c:/devkitpro/devkitarm/bin/../lib/gcc/arm-none-eabi/4.9.2/../../../../arm-none-eabi/lib/armv6k/fpu\libg.a(lib_a-reallocr.o)
                              c:/devkitpro/devkitarm/bin/../lib/gcc/arm-none-eabi/4.9.2/../../../../arm-none-eabi/lib/armv6k/fpu\libg.a(lib_a-realloc.o) (_realloc_r)
c:/devkitpro/devkitarm/bin/../lib/gcc/arm-none-eabi/4.9.2/../../../../arm-none-eabi/lib/armv6k/fpu\libg.a(lib_a-refill.o)
                              c:/devkitpro/devkitarm/bin/../lib/gcc/arm-none-eabi/4.9.2/../../../../arm-none-eabi/lib/armv6k/fpu\libg.a(lib_a-fread.o) (__srefill_r)
c:/devkitpro/devkitarm/bin/../lib/gcc/arm-none-eabi/4.9.2/../../../../arm-none-eabi/lib/armv6k/fpu\libg.a(lib_a-setjmp.o)
                              c:/devkitPro/portlibs/armv6k/lib\libfreetype.a(sfnt.o) (setjmp)
c:/devkitpro/devkitarm/bin/../lib/gcc/arm-none-eabi/4.9.2/../../../../arm-none-eabi/lib/armv6k/fpu\libg.a(lib_a-snprintf.o)
                              c:/devkitPro/libctru/lib\libctru.a(os.o) (snprintf)
c:/devkitpro/devkitarm/bin/../lib/gcc/arm-none-eabi/4.9.2/../../../../arm-none-eabi/lib/armv6k/fpu\libg.a(lib_a-sprintf.o)
                              c:/devkitPro/libctru/lib\libsftd.a(sftd.o) (sprintf)
c:/devkitpro/devkitarm/bin/../lib/gcc/arm-none-eabi/4.9.2/../../../../arm-none-eabi/lib/armv6k/fpu\libg.a(lib_a-stdio.o)
                              c:/devkitpro/devkitarm/bin/../lib/gcc/arm-none-eabi/4.9.2/../../../../arm-none-eabi/lib/armv6k/fpu\libg.a(lib_a-findfp.o) (__sread)
c:/devkitpro/devkitarm/bin/../lib/gcc/arm-none-eabi/4.9.2/../../../../arm-none-eabi/lib/armv6k/fpu\libg.a(lib_a-strchr.o)
                              c:/devkitPro/libctru/lib\libctru.a(romfs_dev.o) (strchr)
c:/devkitpro/devkitarm/bin/../lib/gcc/arm-none-eabi/4.9.2/../../../../arm-none-eabi/lib/armv6k/fpu\libg.a(lib_a-strcmp.o)
                              c:/devkitPro/portlibs/armv6k/lib\libfreetype.a(ftbase.o) (strcmp)
c:/devkitpro/devkitarm/bin/../lib/gcc/arm-none-eabi/4.9.2/../../../../arm-none-eabi/lib/armv6k/fpu\libg.a(lib_a-strcpy.o)
                              c:/devkitPro/portlibs/armv6k/lib\libfreetype.a(ftbase.o) (strcpy)
c:/devkitpro/devkitarm/bin/../lib/gcc/arm-none-eabi/4.9.2/../../../../arm-none-eabi/lib/armv6k/fpu\libg.a(lib_a-strlen.o)
                              c:/devkitPro/libctru/lib\libsftd.a(sftd.o) (strlen)
c:/devkitpro/devkitarm/bin/../lib/gcc/arm-none-eabi/4.9.2/../../../../arm-none-eabi/lib/armv6k/fpu\libg.a(lib_a-strncat.o)
                              c:/devkitPro/libctru/lib\libctru.a(romfs_dev.o) (strncat)
c:/devkitpro/devkitarm/bin/../lib/gcc/arm-none-eabi/4.9.2/../../../../arm-none-eabi/lib/armv6k/fpu\libg.a(lib_a-strncmp.o)
                              c:/devkitPro/portlibs/armv6k/lib\libfreetype.a(truetype.o) (strncmp)
c:/devkitpro/devkitarm/bin/../lib/gcc/arm-none-eabi/4.9.2/../../../../arm-none-eabi/lib/armv6k/fpu\libg.a(lib_a-strncpy.o)
                              c:/devkitPro/portlibs/armv6k/lib\libfreetype.a(ftbase.o) (strncpy)
c:/devkitpro/devkitarm/bin/../lib/gcc/arm-none-eabi/4.9.2/../../../../arm-none-eabi/lib/armv6k/fpu\libg.a(lib_a-strrchr.o)
                              c:/devkitPro/portlibs/armv6k/lib\libfreetype.a(ftbase.o) (strrchr)
c:/devkitpro/devkitarm/bin/../lib/gcc/arm-none-eabi/4.9.2/../../../../arm-none-eabi/lib/armv6k/fpu\libg.a(lib_a-strstr.o)
                              c:/devkitPro/portlibs/armv6k/lib\libfreetype.a(truetype.o) (strstr)
c:/devkitpro/devkitarm/bin/../lib/gcc/arm-none-eabi/4.9.2/../../../../arm-none-eabi/lib/armv6k/fpu\libg.a(lib_a-strtok.o)
                              c:/devkitPro/libctru/lib\libsftd.a(sftd.o) (strtok)
c:/devkitpro/devkitarm/bin/../lib/gcc/arm-none-eabi/4.9.2/../../../../arm-none-eabi/lib/armv6k/fpu\libg.a(lib_a-strtok_r.o)
                              c:/devkitpro/devkitarm/bin/../lib/gcc/arm-none-eabi/4.9.2/../../../../arm-none-eabi/lib/armv6k/fpu\libg.a(lib_a-strtok.o) (__strtok_r)
c:/devkitpro/devkitarm/bin/../lib/gcc/arm-none-eabi/4.9.2/../../../../arm-none-eabi/lib/armv6k/fpu\libg.a(lib_a-strtol.o)
                              c:/devkitpro/devkitarm/bin/../lib/gcc/arm-none-eabi/4.9.2/../../../../arm-none-eabi/lib/armv6k/fpu\libg.a(lib_a-atol.o) (_strtol_r)
c:/devkitpro/devkitarm/bin/../lib/gcc/arm-none-eabi/4.9.2/../../../../arm-none-eabi/lib/armv6k/fpu\libg.a(lib_a-svfprintf.o)
                              c:/devkitpro/devkitarm/bin/../lib/gcc/arm-none-eabi/4.9.2/../../../../arm-none-eabi/lib/armv6k/fpu\libg.a(lib_a-snprintf.o) (_svfprintf_r)
c:/devkitpro/devkitarm/bin/../lib/gcc/arm-none-eabi/4.9.2/../../../../arm-none-eabi/lib/armv6k/fpu\libg.a(lib_a-vsnprintf.o)
                              c:/devkitPro/libctru/lib\libsftd.a(sftd.o) (vsnprintf)
c:/devkitpro/devkitarm/bin/../lib/gcc/arm-none-eabi/4.9.2/../../../../arm-none-eabi/lib/armv6k/fpu\libg.a(lib_a-vswprintf.o)
                              c:/devkitPro/libctru/lib\libsftd.a(sftd.o) (vswprintf)
c:/devkitpro/devkitarm/bin/../lib/gcc/arm-none-eabi/4.9.2/../../../../arm-none-eabi/lib/armv6k/fpu\libg.a(lib_a-wcrtomb.o)
                              c:/devkitpro/devkitarm/bin/../lib/gcc/arm-none-eabi/4.9.2/../../../../arm-none-eabi/lib/armv6k/fpu\libg.a(lib_a-svfprintf.o) (_wcrtomb_r)
c:/devkitpro/devkitarm/bin/../lib/gcc/arm-none-eabi/4.9.2/../../../../arm-none-eabi/lib/armv6k/fpu\libg.a(lib_a-wcsrtombs.o)
                              c:/devkitpro/devkitarm/bin/../lib/gcc/arm-none-eabi/4.9.2/../../../../arm-none-eabi/lib/armv6k/fpu\libg.a(lib_a-svfprintf.o) (_wcsrtombs_r)
c:/devkitpro/devkitarm/bin/../lib/gcc/arm-none-eabi/4.9.2/../../../../arm-none-eabi/lib/armv6k/fpu\libg.a(lib_a-wctomb_r.o)
                              c:/devkitpro/devkitarm/bin/../lib/gcc/arm-none-eabi/4.9.2/../../../../arm-none-eabi/lib/armv6k/fpu\libg.a(lib_a-wcrtomb.o) (__wctomb)
c:/devkitpro/devkitarm/bin/../lib/gcc/arm-none-eabi/4.9.2/../../../../arm-none-eabi/lib/armv6k/fpu\libg.a(lib_a-ctype_.o)
                              c:/devkitpro/devkitarm/bin/../lib/gcc/arm-none-eabi/4.9.2/../../../../arm-none-eabi/lib/armv6k/fpu\libg.a(lib_a-strtol.o) (__ctype_ptr__)
c:/devkitpro/devkitarm/bin/../lib/gcc/arm-none-eabi/4.9.2/../../../../arm-none-eabi/lib/armv6k/fpu\libg.a(lib_a-dtoa.o)
                              c:/devkitpro/devkitarm/bin/../lib/gcc/arm-none-eabi/4.9.2/../../../../arm-none-eabi/lib/armv6k/fpu\libg.a(lib_a-svfprintf.o) (_dtoa_r)
c:/devkitpro/devkitarm/bin/../lib/gcc/arm-none-eabi/4.9.2/../../../../arm-none-eabi/lib/armv6k/fpu\libg.a(lib_a-flags.o)
                              c:/devkitpro/devkitarm/bin/../lib/gcc/arm-none-eabi/4.9.2/../../../../arm-none-eabi/lib/armv6k/fpu\libg.a(lib_a-fopen.o) (__sflags)
c:/devkitpro/devkitarm/bin/../lib/gcc/arm-none-eabi/4.9.2/../../../../arm-none-eabi/lib/armv6k/fpu\libg.a(lib_a-locale.o)
                              c:/devkitpro/devkitarm/bin/../lib/gcc/arm-none-eabi/4.9.2/../../../../arm-none-eabi/lib/armv6k/fpu\libg.a(lib_a-svfprintf.o) (__locale_charset)
c:/devkitpro/devkitarm/bin/../lib/gcc/arm-none-eabi/4.9.2/../../../../arm-none-eabi/lib/armv6k/fpu\libg.a(lib_a-mbtowc_r.o)
                              c:/devkitpro/devkitarm/bin/../lib/gcc/arm-none-eabi/4.9.2/../../../../arm-none-eabi/lib/armv6k/fpu\libg.a(lib_a-locale.o) (__utf8_mbtowc)
c:/devkitpro/devkitarm/bin/../lib/gcc/arm-none-eabi/4.9.2/../../../../arm-none-eabi/lib/armv6k/fpu\libg.a(lib_a-mprec.o)
                              c:/devkitpro/devkitarm/bin/../lib/gcc/arm-none-eabi/4.9.2/../../../../arm-none-eabi/lib/armv6k/fpu\libg.a(lib_a-dtoa.o) (_Balloc)
c:/devkitpro/devkitarm/bin/../lib/gcc/arm-none-eabi/4.9.2/../../../../arm-none-eabi/lib/armv6k/fpu\libg.a(lib_a-s_fpclassify.o)
                              c:/devkitpro/devkitarm/bin/../lib/gcc/arm-none-eabi/4.9.2/../../../../arm-none-eabi/lib/armv6k/fpu\libg.a(lib_a-svfprintf.o) (__fpclassifyd)
c:/devkitpro/devkitarm/bin/../lib/gcc/arm-none-eabi/4.9.2/../../../../arm-none-eabi/lib/armv6k/fpu\libg.a(lib_a-s_frexp.o)
                              c:/devkitpro/devkitarm/bin/../lib/gcc/arm-none-eabi/4.9.2/../../../../arm-none-eabi/lib/armv6k/fpu\libg.a(lib_a-svfprintf.o) (frexp)
c:/devkitpro/devkitarm/bin/../lib/gcc/arm-none-eabi/4.9.2/../../../../arm-none-eabi/lib/armv6k/fpu\libg.a(lib_a-strcasecmp.o)
                              c:/devkitpro/devkitarm/bin/../lib/gcc/arm-none-eabi/4.9.2/../../../../arm-none-eabi/lib/armv6k/fpu\libg.a(lib_a-locale.o) (strcasecmp)
c:/devkitpro/devkitarm/bin/../lib/gcc/arm-none-eabi/4.9.2/../../../../arm-none-eabi/lib/armv6k/fpu\libg.a(lib_a-strcat.o)
                              c:/devkitpro/devkitarm/bin/../lib/gcc/arm-none-eabi/4.9.2/../../../../arm-none-eabi/lib/armv6k/fpu\libg.a(lib_a-locale.o) (strcat)
c:/devkitpro/devkitarm/bin/../lib/gcc/arm-none-eabi/4.9.2/../../../../arm-none-eabi/lib/armv6k/fpu\libg.a(lib_a-strlcpy.o)
                              c:/devkitpro/devkitarm/bin/../lib/gcc/arm-none-eabi/4.9.2/../../../../arm-none-eabi/lib/armv6k/fpu\libg.a(lib_a-locale.o) (strlcpy)
c:/devkitpro/devkitarm/bin/../lib/gcc/arm-none-eabi/4.9.2/../../../../arm-none-eabi/lib/armv6k/fpu\libg.a(lib_a-strncasecmp.o)
                              c:/devkitpro/devkitarm/bin/../lib/gcc/arm-none-eabi/4.9.2/../../../../arm-none-eabi/lib/armv6k/fpu\libg.a(lib_a-locale.o) (strncasecmp)
c:/devkitpro/devkitarm/bin/../lib/gcc/arm-none-eabi/4.9.2/../../../../arm-none-eabi/lib/armv6k/fpu\libg.a(lib_a-svfiprintf.o)
                              c:/devkitpro/devkitarm/bin/../lib/gcc/arm-none-eabi/4.9.2/../../../../arm-none-eabi/lib/armv6k/fpu\libg.a(lib_a-svfprintf.o) (__ssprint_r)
c:/devkitpro/devkitarm/bin/../lib/gcc/arm-none-eabi/4.9.2/../../../../arm-none-eabi/lib/armv6k/fpu\libg.a(lib_a-svfwprintf.o)
                              c:/devkitpro/devkitarm/bin/../lib/gcc/arm-none-eabi/4.9.2/../../../../arm-none-eabi/lib/armv6k/fpu\libg.a(lib_a-vswprintf.o) (_svfwprintf_r)
c:/devkitpro/devkitarm/bin/../lib/gcc/arm-none-eabi/4.9.2/../../../../arm-none-eabi/lib/armv6k/fpu\libg.a(lib_a-wcslen.o)
                              c:/devkitpro/devkitarm/bin/../lib/gcc/arm-none-eabi/4.9.2/../../../../arm-none-eabi/lib/armv6k/fpu\libg.a(lib_a-svfwprintf.o) (wcslen)
c:/devkitpro/devkitarm/bin/../lib/gcc/arm-none-eabi/4.9.2/../../../../arm-none-eabi/lib/armv6k/fpu\libg.a(lib_a-wcsnrtombs.o)
                              c:/devkitpro/devkitarm/bin/../lib/gcc/arm-none-eabi/4.9.2/../../../../arm-none-eabi/lib/armv6k/fpu\libg.a(lib_a-wcsrtombs.o) (_wcsnrtombs_r)
c:/devkitpro/devkitarm/bin/../lib/gcc/arm-none-eabi/4.9.2/../../../../arm-none-eabi/lib/armv6k/fpu\libg.a(lib_a-wmemchr.o)
                              c:/devkitpro/devkitarm/bin/../lib/gcc/arm-none-eabi/4.9.2/../../../../arm-none-eabi/lib/armv6k/fpu\libg.a(lib_a-svfwprintf.o) (wmemchr)
c:/devkitpro/devkitarm/bin/../lib/gcc/arm-none-eabi/4.9.2/../../../../arm-none-eabi/lib/armv6k/fpu\libg.a(lib_a-btowc.o)
                              c:/devkitpro/devkitarm/bin/../lib/gcc/arm-none-eabi/4.9.2/../../../../arm-none-eabi/lib/armv6k/fpu\libg.a(lib_a-svfwprintf.o) (btowc)
c:/devkitpro/devkitarm/bin/../lib/gcc/arm-none-eabi/4.9.2/../../../../arm-none-eabi/lib/armv6k/fpu\libg.a(lib_a-callocr.o)
                              c:/devkitpro/devkitarm/bin/../lib/gcc/arm-none-eabi/4.9.2/../../../../arm-none-eabi/lib/armv6k/fpu\libg.a(lib_a-mprec.o) (_calloc_r)
c:/devkitpro/devkitarm/bin/../lib/gcc/arm-none-eabi/4.9.2/../../../../arm-none-eabi/lib/armv6k/fpu\libg.a(lib_a-getenv_r.o)
                              c:/devkitpro/devkitarm/bin/../lib/gcc/arm-none-eabi/4.9.2/../../../../arm-none-eabi/lib/armv6k/fpu\libg.a(lib_a-locale.o) (_getenv_r)
c:/devkitpro/devkitarm/bin/../lib/gcc/arm-none-eabi/4.9.2/../../../../arm-none-eabi/lib/armv6k/fpu\libg.a(lib_a-mbrlen.o)
                              c:/devkitpro/devkitarm/bin/../lib/gcc/arm-none-eabi/4.9.2/../../../../arm-none-eabi/lib/armv6k/fpu\libg.a(lib_a-svfwprintf.o) (mbrlen)
c:/devkitpro/devkitarm/bin/../lib/gcc/arm-none-eabi/4.9.2/../../../../arm-none-eabi/lib/armv6k/fpu\libg.a(lib_a-mbrtowc.o)
                              c:/devkitpro/devkitarm/bin/../lib/gcc/arm-none-eabi/4.9.2/../../../../arm-none-eabi/lib/armv6k/fpu\libg.a(lib_a-svfwprintf.o) (_mbrtowc_r)
c:/devkitpro/devkitarm/bin/../lib/gcc/arm-none-eabi/4.9.2/../../../../arm-none-eabi/lib/armv6k/fpu\libg.a(lib_a-mbsnrtowcs.o)
                              c:/devkitpro/devkitarm/bin/../lib/gcc/arm-none-eabi/4.9.2/../../../../arm-none-eabi/lib/armv6k/fpu\libg.a(lib_a-svfwprintf.o) (_mbsnrtowcs_r)
c:/devkitpro/devkitarm/bin/../lib/gcc/arm-none-eabi/4.9.2/../../../../arm-none-eabi/lib/armv6k/fpu\libg.a(lib_a-environ.o)
                              c:/devkitpro/devkitarm/bin/../lib/gcc/arm-none-eabi/4.9.2/../../../../arm-none-eabi/lib/armv6k/fpu\libg.a(lib_a-getenv_r.o) (environ)
c:/devkitpro/devkitarm/bin/../lib/gcc/arm-none-eabi/4.9.2/../../../../arm-none-eabi/lib/armv6k/fpu\libg.a(lib_a-envlock.o)
                              c:/devkitpro/devkitarm/bin/../lib/gcc/arm-none-eabi/4.9.2/../../../../arm-none-eabi/lib/armv6k/fpu\libg.a(lib_a-getenv_r.o) (__env_lock)
c:/devkitpro/devkitarm/bin/../lib/gcc/arm-none-eabi/4.9.2/../../../../arm-none-eabi/lib/armv6k/fpu\libsysbase.a(iosupport.o)
                              c:/devkitPro/libctru/lib\libctru.a(sdmc_dev.o) (setDefaultDevice)
c:/devkitpro/devkitarm/bin/../lib/gcc/arm-none-eabi/4.9.2/../../../../arm-none-eabi/lib/armv6k/fpu\libsysbase.a(close.o)
                              c:/devkitpro/devkitarm/bin/../lib/gcc/arm-none-eabi/4.9.2/../../../../arm-none-eabi/lib/armv6k/fpu\libg.a(lib_a-stdio.o) (_close_r)
c:/devkitpro/devkitarm/bin/../lib/gcc/arm-none-eabi/4.9.2/../../../../arm-none-eabi/lib/armv6k/fpu\libsysbase.a(fstat.o)
                              c:/devkitpro/devkitarm/bin/../lib/gcc/arm-none-eabi/4.9.2/../../../../arm-none-eabi/lib/armv6k/fpu\libg.a(lib_a-fseeko.o) (_fstat_r)
c:/devkitpro/devkitarm/bin/../lib/gcc/arm-none-eabi/4.9.2/../../../../arm-none-eabi/lib/armv6k/fpu\libsysbase.a(isatty.o)
                              c:/devkitpro/devkitarm/bin/../lib/gcc/arm-none-eabi/4.9.2/../../../../arm-none-eabi/lib/armv6k/fpu\libg.a(lib_a-makebuf.o) (_isatty_r)
c:/devkitpro/devkitarm/bin/../lib/gcc/arm-none-eabi/4.9.2/../../../../arm-none-eabi/lib/armv6k/fpu\libsysbase.a(lseek.o)
                              c:/devkitpro/devkitarm/bin/../lib/gcc/arm-none-eabi/4.9.2/../../../../arm-none-eabi/lib/armv6k/fpu\libg.a(lib_a-stdio.o) (_lseek_r)
c:/devkitpro/devkitarm/bin/../lib/gcc/arm-none-eabi/4.9.2/../../../../arm-none-eabi/lib/armv6k/fpu\libsysbase.a(open.o)
                              c:/devkitpro/devkitarm/bin/../lib/gcc/arm-none-eabi/4.9.2/../../../../arm-none-eabi/lib/armv6k/fpu\libg.a(lib_a-fopen.o) (_open_r)
c:/devkitpro/devkitarm/bin/../lib/gcc/arm-none-eabi/4.9.2/../../../../arm-none-eabi/lib/armv6k/fpu\libsysbase.a(read.o)
                              c:/devkitpro/devkitarm/bin/../lib/gcc/arm-none-eabi/4.9.2/../../../../arm-none-eabi/lib/armv6k/fpu\libg.a(lib_a-stdio.o) (_read_r)
c:/devkitpro/devkitarm/bin/../lib/gcc/arm-none-eabi/4.9.2/../../../../arm-none-eabi/lib/armv6k/fpu\libsysbase.a(sbrk.o)
                              c:/devkitpro/devkitarm/bin/../lib/gcc/arm-none-eabi/4.9.2/../../../../arm-none-eabi/lib/armv6k/fpu\libg.a(lib_a-freer.o) (_sbrk_r)
c:/devkitpro/devkitarm/bin/../lib/gcc/arm-none-eabi/4.9.2/../../../../arm-none-eabi/lib/armv6k/fpu\libsysbase.a(write.o)
                              c:/devkitpro/devkitarm/bin/../lib/gcc/arm-none-eabi/4.9.2/../../../../arm-none-eabi/lib/armv6k/fpu\libg.a(lib_a-stdio.o) (_write_r)
c:/devkitpro/devkitarm/bin/../lib/gcc/arm-none-eabi/4.9.2/../../../../arm-none-eabi/lib/armv6k/fpu\libsysbase.a(malloc_vars.o)
                              c:/devkitPro/libctru/lib\libctru.a(allocateHeaps.o) (fake_heap_start)
c:/devkitpro/devkitarm/bin/../lib/gcc/arm-none-eabi/4.9.2/../../../../arm-none-eabi/lib/armv6k/fpu\libsysbase.a(chdir.o)
                              c:/devkitPro/libctru/lib\libctru.a(romfs_dev.o) (chdir)
c:/devkitpro/devkitarm/bin/../lib/gcc/arm-none-eabi/4.9.2/../../../../arm-none-eabi/lib/armv6k/fpu\libsysbase.a(flock.o)
                              c:/devkitpro/devkitarm/bin/../lib/gcc/arm-none-eabi/4.9.2/../../../../arm-none-eabi/lib/armv6k/fpu\libg.a(lib_a-fclose.o) (__flockfile)
c:/devkitpro/devkitarm/bin/../lib/gcc/arm-none-eabi/4.9.2/../../../../arm-none-eabi/lib/armv6k/fpu\libsysbase.a(syscall_support.o)
                              c:/devkitPro/libctru/lib\libctru.a(initSystem.o) (__syscalls)
c:/devkitpro/devkitarm/bin/../lib/gcc/arm-none-eabi/4.9.2/../../../../arm-none-eabi/lib/armv6k/fpu\libsysbase.a(handle_manager.o)
                              c:/devkitpro/devkitarm/bin/../lib/gcc/arm-none-eabi/4.9.2/../../../../arm-none-eabi/lib/armv6k/fpu\libsysbase.a(close.o) (__release_handle)
c:/devkitpro/devkitarm/bin/../lib/gcc/arm-none-eabi/4.9.2/../../../../arm-none-eabi/lib/armv6k/fpu\libsysbase.a(getreent.o)
                              c:/devkitpro/devkitarm/bin/../lib/gcc/arm-none-eabi/4.9.2/../../../../arm-none-eabi/lib/armv6k/fpu\libg.a(lib_a-errno.o) (__getreent)
c:/devkitpro/devkitarm/bin/../lib/gcc/arm-none-eabi/4.9.2/armv6k/fpu\libgcc.a(_aeabi_uldivmod.o)
                              c:/devkitpro/devkitarm/bin/../lib/gcc/arm-none-eabi/4.9.2/../../../../arm-none-eabi/lib/armv6k/fpu\libg.a(lib_a-svfprintf.o) (__aeabi_uldivmod)
c:/devkitpro/devkitarm/bin/../lib/gcc/arm-none-eabi/4.9.2/armv6k/fpu\libgcc.a(bpabi.o)
                              c:/devkitpro/devkitarm/bin/../lib/gcc/arm-none-eabi/4.9.2/armv6k/fpu\libgcc.a(_aeabi_uldivmod.o) (__gnu_uldivmod_helper)
c:/devkitpro/devkitarm/bin/../lib/gcc/arm-none-eabi/4.9.2/armv6k/fpu\libgcc.a(_divdi3.o)
                              c:/devkitpro/devkitarm/bin/../lib/gcc/arm-none-eabi/4.9.2/armv6k/fpu\libgcc.a(bpabi.o) (__divdi3)
c:/devkitpro/devkitarm/bin/../lib/gcc/arm-none-eabi/4.9.2/armv6k/fpu\libgcc.a(_udivdi3.o)
                              c:/devkitpro/devkitarm/bin/../lib/gcc/arm-none-eabi/4.9.2/armv6k/fpu\libgcc.a(bpabi.o) (__udivdi3)
c:/devkitpro/devkitarm/bin/../lib/gcc/arm-none-eabi/4.9.2/../../../../arm-none-eabi/lib/armv6k/fpu\libg.a(lib_a-strnlen.o)
                              c:/devkitpro/devkitarm/bin/../lib/gcc/arm-none-eabi/4.9.2/../../../../arm-none-eabi/lib/armv6k/fpu\libsysbase.a(chdir.o) (strnlen)

Allocating common symbols
Common symbol       size              file

hidMemHandle        0x4               c:/devkitPro/libctru/lib\libctru.a(hid.o)
__heapBase          0x4               c:/devkitPro/libctru/lib\libctru.a(allocateHeaps.o)
aptEventHandlerThread
                    0x4               c:/devkitPro/libctru/lib\libctru.a(apt.o)
hidHandle           0x4               c:/devkitPro/libctru/lib\libctru.a(hid.o)
gspEventStack       0x1000            c:/devkitPro/libctru/lib\libctru.a(gsp.o)
gfxBottomFramebuffers
                    0x8               c:/devkitPro/libctru/lib\libctru.a(gfx.o)
gspSharedMemHandle  0x4               c:/devkitPro/libctru/lib\libctru.a(gfx.o)
__system_argv       0x4               c:/devkitPro/libctru/lib\libctru.a(initArgv.o)
csndSharedMemSize   0x4               c:/devkitPro/libctru/lib\libctru.a(csnd.o)
hidSharedMem        0x4               c:/devkitPro/libctru/lib\libctru.a(hid.o)
__system_argc       0x4               c:/devkitPro/libctru/lib\libctru.a(initArgv.o)
bottomFramebufferInfo
                    0x1c              c:/devkitPro/libctru/lib\libctru.a(gfx.o)
__linear_heap       0x4               c:/devkitPro/libctru/lib\libctru.a(allocateHeaps.o)
csndOffsets         0x10              c:/devkitPro/libctru/lib\libctru.a(csnd.o)
aptParameters       0x1000            c:/devkitPro/libctru/lib\libctru.a(apt.o)
aptEventHandlerStack
                    0x1000            c:/devkitPro/libctru/lib\libctru.a(apt.o)
aptuHandle          0x4               c:/devkitPro/libctru/lib\libctru.a(apt.o)
irrstHandle         0x4               c:/devkitPro/libctru/lib\libctru.a(irrst.o)
aptEvents           0xc               c:/devkitPro/libctru/lib\libctru.a(apt.o)
gspEventThread      0x4               c:/devkitPro/libctru/lib\libctru.a(gsp.o)
gspEvent            0x4               c:/devkitPro/libctru/lib\libctru.a(gfx.o)
hidEvents           0x14              c:/devkitPro/libctru/lib\libctru.a(hid.o)
__system_retAddr    0x4               c:/devkitPro/libctru/lib\libctru.a(initSystem.o)
gpuCmdBuf           0x4               c:/devkitPro/libctru/lib\libctru.a(gpu.o)
irrstEvent          0x4               c:/devkitPro/libctru/lib\libctru.a(irrst.o)
buffer              0x4               main.o
gspEventCounts      0x1c              c:/devkitPro/libctru/lib\libctru.a(gsp.o)
irrstMemHandle      0x4               c:/devkitPro/libctru/lib\libctru.a(irrst.o)
gfxTopLeftFramebuffers
                    0x8               c:/devkitPro/libctru/lib\libctru.a(gfx.o)
size                0x4               main.o
gfxTopRightFramebuffers
                    0x8               c:/devkitPro/libctru/lib\libctru.a(gfx.o)
topFramebufferInfo  0x1c              c:/devkitPro/libctru/lib\libctru.a(gfx.o)
gspEvents           0x1c              c:/devkitPro/libctru/lib\libctru.a(gsp.o)
gpuCmdBufOffset     0x4               c:/devkitPro/libctru/lib\libctru.a(gpu.o)
gfxThreadID         0x1               c:/devkitPro/libctru/lib\libctru.a(gfx.o)
gfxSharedMemory     0x4               c:/devkitPro/libctru/lib\libctru.a(gfx.o)
gspRunEvents        0x1               c:/devkitPro/libctru/lib\libctru.a(gsp.o)
irrstSharedMem      0x4               c:/devkitPro/libctru/lib\libctru.a(irrst.o)
aptStatusMutex      0x4               c:/devkitPro/libctru/lib\libctru.a(apt.o)
gpuCmdBufSize       0x4               c:/devkitPro/libctru/lib\libctru.a(gpu.o)
gxCmdBuf            0x4               c:/devkitPro/libctru/lib\libctru.a(gx.o)
aptLockHandle       0x4               c:/devkitPro/libctru/lib\libctru.a(apt.o)
currentAppId        0x2               c:/devkitPro/libctru/lib\libctru.a(apt.o)

Discarded input sections

 .comment       0x00000000       0x23 c:/devkitpro/devkitarm/bin/../lib/gcc/arm-none-eabi/4.9.2/armv6k/fpu/crtbegin.o
 .comment       0x00000000       0x23 friskBack.o
 .comment       0x00000000       0x23 friskFace.o
 .comment       0x00000000       0x23 friskLeft1.o
 .comment       0x00000000       0x23 friskRight1.o
 .comment       0x00000000       0x23 main.o
 .comment       0x00000000       0x23 torielHouse1.o
 .comment       0x00000000       0x23 c:/devkitPro/libctru/lib\libsftd.a(sftd.o)
 .comment       0x00000000       0x23 c:/devkitPro/libctru/lib\libsftd.a(texture_atlas.o)
 .comment       0x00000000       0x23 c:/devkitPro/libctru/lib\libsftd.a(bin_packing_2d.o)
 .comment       0x00000000       0x23 c:/devkitPro/libctru/lib\libsftd.a(int_htab.o)
 .comment       0x00000000       0x23 c:/devkitPro/portlibs/armv6k/lib\libfreetype.a(ftinit.o)
 .comment       0x00000000       0x23 c:/devkitPro/portlibs/armv6k/lib\libfreetype.a(ftbase.o)
 .comment       0x00000000       0x23 c:/devkitPro/portlibs/armv6k/lib\libfreetype.a(truetype.o)
 .comment       0x00000000       0x23 c:/devkitPro/portlibs/armv6k/lib\libfreetype.a(type1.o)
 .comment       0x00000000       0x23 c:/devkitPro/portlibs/armv6k/lib\libfreetype.a(cff.o)
 .comment       0x00000000       0x23 c:/devkitPro/portlibs/armv6k/lib\libfreetype.a(type1cid.o)
 .comment       0x00000000       0x23 c:/devkitPro/portlibs/armv6k/lib\libfreetype.a(pfr.o)
 .comment       0x00000000       0x23 c:/devkitPro/portlibs/armv6k/lib\libfreetype.a(type42.o)
 .comment       0x00000000       0x23 c:/devkitPro/portlibs/armv6k/lib\libfreetype.a(winfnt.o)
 .comment       0x00000000       0x23 c:/devkitPro/portlibs/armv6k/lib\libfreetype.a(pcf.o)
 .comment       0x00000000       0x23 c:/devkitPro/portlibs/armv6k/lib\libfreetype.a(bdf.o)
 .comment       0x00000000       0x23 c:/devkitPro/portlibs/armv6k/lib\libfreetype.a(sfnt.o)
 .comment       0x00000000       0x23 c:/devkitPro/portlibs/armv6k/lib\libfreetype.a(autofit.o)
 .comment       0x00000000       0x23 c:/devkitPro/portlibs/armv6k/lib\libfreetype.a(pshinter.o)
 .comment       0x00000000       0x23 c:/devkitPro/portlibs/armv6k/lib\libfreetype.a(raster.o)
 .comment       0x00000000       0x23 c:/devkitPro/portlibs/armv6k/lib\libfreetype.a(smooth.o)
 .comment       0x00000000       0x23 c:/devkitPro/portlibs/armv6k/lib\libfreetype.a(ftcache.o)
 .comment       0x00000000       0x23 c:/devkitPro/portlibs/armv6k/lib\libfreetype.a(ftgzip.o)
 .comment       0x00000000       0x23 c:/devkitPro/portlibs/armv6k/lib\libfreetype.a(ftlzw.o)
 .comment       0x00000000       0x23 c:/devkitPro/portlibs/armv6k/lib\libfreetype.a(psaux.o)
 .comment       0x00000000       0x23 c:/devkitPro/portlibs/armv6k/lib\libfreetype.a(psnames.o)
 .comment       0x00000000       0x23 c:/devkitPro/portlibs/armv6k/lib\libfreetype.a(ftsystem.o)
 .comment       0x00000000       0x23 c:/devkitPro/portlibs/armv6k/lib\libfreetype.a(ftbitmap.o)
 .comment       0x00000000       0x23 c:/devkitPro/portlibs/armv6k/lib\libfreetype.a(ftglyph.o)
 .comment       0x00000000       0x23 c:/devkitPro/portlibs/armv6k/lib\libz.a(inflate.o)
 .comment       0x00000000       0x23 c:/devkitPro/portlibs/armv6k/lib\libz.a(inftrees.o)
 .comment       0x00000000       0x23 c:/devkitPro/portlibs/armv6k/lib\libz.a(zutil.o)
 .comment       0x00000000       0x23 c:/devkitPro/portlibs/armv6k/lib\libz.a(adler32.o)
 .comment       0x00000000       0x23 c:/devkitPro/portlibs/armv6k/lib\libz.a(crc32.o)
 .comment       0x00000000       0x23 c:/devkitPro/portlibs/armv6k/lib\libz.a(inffast.o)
 .comment       0x00000000       0x23 c:/devkitPro/libctru/lib\libsf2d.a(sf2d.o)
 .comment       0x00000000       0x23 c:/devkitPro/libctru/lib\libsf2d.a(sf2d_private.o)
 .comment       0x00000000       0x23 c:/devkitPro/libctru/lib\libsf2d.a(sf2d_texture.o)
 .comment       0x00000000       0x23 c:/devkitPro/libctru/lib\libctru.a(linear.o)
 .comment       0x00000000       0x23 c:/devkitPro/libctru/lib\libctru.a(mem_pool.o)
 .comment       0x00000000       0x23 c:/devkitPro/libctru/lib\libctru.a(vram.o)
 .comment       0x00000000       0x23 c:/devkitPro/libctru/lib\libctru.a(gfx.o)
 .comment       0x00000000       0x23 c:/devkitPro/libctru/lib\libctru.a(os.o)
 .comment       0x00000000       0x23 c:/devkitPro/libctru/lib\libctru.a(romfs_dev.o)
 .comment       0x00000000       0x23 c:/devkitPro/libctru/lib\libctru.a(srv.o)
 .comment       0x00000000       0x23 c:/devkitPro/libctru/lib\libctru.a(gpu.o)
 .comment       0x00000000       0x23 c:/devkitPro/libctru/lib\libctru.a(gpuResetSequence.o)
 .comment       0x00000000       0x23 c:/devkitPro/libctru/lib\libctru.a(shaderProgram.o)
 .comment       0x00000000       0x23 c:/devkitPro/libctru/lib\libctru.a(shbin.o)
 .comment       0x00000000       0x23 c:/devkitPro/libctru/lib\libctru.a(apt.o)
 .comment       0x00000000       0x23 c:/devkitPro/libctru/lib\libctru.a(cfgu.o)
 .comment       0x00000000       0x23 c:/devkitPro/libctru/lib\libctru.a(csnd.o)
 .comment       0x00000000       0x23 c:/devkitPro/libctru/lib\libctru.a(fs.o)
 .comment       0x00000000       0x23 c:/devkitPro/libctru/lib\libctru.a(gsp.o)
 .comment       0x00000000       0x23 c:/devkitPro/libctru/lib\libctru.a(gx.o)
 .comment       0x00000000       0x23 c:/devkitPro/libctru/lib\libctru.a(hid.o)
 .comment       0x00000000       0x23 c:/devkitPro/libctru/lib\libctru.a(irrst.o)
 .comment       0x00000000       0x23 c:/devkitPro/libctru/lib\libctru.a(ptm.o)
 .comment       0x00000000       0x23 c:/devkitPro/libctru/lib\libctru.a(rbtree_find.o)
 .comment       0x00000000       0x23 c:/devkitPro/libctru/lib\libctru.a(rbtree_init.o)
 .comment       0x00000000       0x23 c:/devkitPro/libctru/lib\libctru.a(rbtree_insert.o)
 .comment       0x00000000       0x23 c:/devkitPro/libctru/lib\libctru.a(rbtree_remove.o)
 .comment       0x00000000       0x23 c:/devkitPro/libctru/lib\libctru.a(rbtree_rotate.o)
 .comment       0x00000000       0x23 c:/devkitPro/libctru/lib\libctru.a(utf8_to_utf16.o)
 .comment       0x00000000       0x23 c:/devkitPro/libctru/lib\libctru.a(allocateHeaps.o)
 .comment       0x00000000       0x23 c:/devkitPro/libctru/lib\libctru.a(initArgv.o)
 .comment       0x00000000       0x23 c:/devkitPro/libctru/lib\libctru.a(initSystem.o)
 .comment       0x00000000       0x23 c:/devkitPro/libctru/lib\libctru.a(mappable.o)
 .comment       0x00000000       0x23 c:/devkitPro/libctru/lib\libctru.a(rbtree_iterator.o)
 .comment       0x00000000       0x23 c:/devkitPro/libctru/lib\libctru.a(decode_utf8.o)
 .comment       0x00000000       0x23 c:/devkitPro/libctru/lib\libctru.a(encode_utf16.o)
 .comment       0x00000000       0x23 c:/devkitPro/libctru/lib\libctru.a(appExit.o)
 .comment       0x00000000       0x23 c:/devkitPro/libctru/lib\libctru.a(appInit.o)
 .comment       0x00000000       0x23 c:/devkitPro/libctru/lib\libctru.a(ctru_exit.o)
 .comment       0x00000000       0x23 c:/devkitPro/libctru/lib\libctru.a(sdmc_dev.o)
 .comment       0x00000000       0x23 c:/devkitPro/libctru/lib\libctru.a(utf16_to_utf8.o)
 .comment       0x00000000       0x23 c:/devkitPro/libctru/lib\libctru.a(decode_utf16.o)
 .comment       0x00000000       0x23 c:/devkitPro/libctru/lib\libctru.a(encode_utf8.o)
 .comment       0x00000000       0x23 c:/devkitpro/devkitarm/bin/../lib/gcc/arm-none-eabi/4.9.2/../../../../arm-none-eabi/lib/armv6k/fpu\libm.a(lib_a-sf_cos.o)
 .comment       0x00000000       0x23 c:/devkitpro/devkitarm/bin/../lib/gcc/arm-none-eabi/4.9.2/../../../../arm-none-eabi/lib/armv6k/fpu\libm.a(lib_a-sf_sin.o)
 .comment       0x00000000       0x23 c:/devkitpro/devkitarm/bin/../lib/gcc/arm-none-eabi/4.9.2/../../../../arm-none-eabi/lib/armv6k/fpu\libm.a(lib_a-ef_rem_pio2.o)
 .comment       0x00000000       0x23 c:/devkitpro/devkitarm/bin/../lib/gcc/arm-none-eabi/4.9.2/../../../../arm-none-eabi/lib/armv6k/fpu\libm.a(lib_a-kf_cos.o)
 .comment       0x00000000       0x23 c:/devkitpro/devkitarm/bin/../lib/gcc/arm-none-eabi/4.9.2/../../../../arm-none-eabi/lib/armv6k/fpu\libm.a(lib_a-kf_rem_pio2.o)
 .comment       0x00000000       0x23 c:/devkitpro/devkitarm/bin/../lib/gcc/arm-none-eabi/4.9.2/../../../../arm-none-eabi/lib/armv6k/fpu\libm.a(lib_a-kf_sin.o)
 .comment       0x00000000       0x23 c:/devkitpro/devkitarm/bin/../lib/gcc/arm-none-eabi/4.9.2/../../../../arm-none-eabi/lib/armv6k/fpu\libm.a(lib_a-sf_fabs.o)
 .comment       0x00000000       0x23 c:/devkitpro/devkitarm/bin/../lib/gcc/arm-none-eabi/4.9.2/../../../../arm-none-eabi/lib/armv6k/fpu\libm.a(lib_a-sf_floor.o)
 .comment       0x00000000       0x23 c:/devkitpro/devkitarm/bin/../lib/gcc/arm-none-eabi/4.9.2/../../../../arm-none-eabi/lib/armv6k/fpu\libm.a(lib_a-sf_scalbn.o)
 .comment       0x00000000       0x23 c:/devkitpro/devkitarm/bin/../lib/gcc/arm-none-eabi/4.9.2/../../../../arm-none-eabi/lib/armv6k/fpu\libm.a(lib_a-sf_copysign.o)
 .comment       0x00000000       0x23 c:/devkitpro/devkitarm/bin/../lib/gcc/arm-none-eabi/4.9.2/armv6k/fpu\libgcc.a(_popcountsi2.o)
 .comment       0x00000000       0x23 c:/devkitpro/devkitarm/bin/../lib/gcc/arm-none-eabi/4.9.2/../../../../arm-none-eabi/lib/armv6k/fpu\libg.a(lib_a-atol.o)
 .comment       0x00000000       0x23 c:/devkitpro/devkitarm/bin/../lib/gcc/arm-none-eabi/4.9.2/../../../../arm-none-eabi/lib/armv6k/fpu\libg.a(lib_a-bsearch.o)
 .comment       0x00000000       0x23 c:/devkitpro/devkitarm/bin/../lib/gcc/arm-none-eabi/4.9.2/../../../../arm-none-eabi/lib/armv6k/fpu\libg.a(lib_a-errno.o)
 .comment       0x00000000       0x23 c:/devkitpro/devkitarm/bin/../lib/gcc/arm-none-eabi/4.9.2/../../../../arm-none-eabi/lib/armv6k/fpu\libg.a(lib_a-fclose.o)
 .comment       0x00000000       0x23 c:/devkitpro/devkitarm/bin/../lib/gcc/arm-none-eabi/4.9.2/../../../../arm-none-eabi/lib/armv6k/fpu\libg.a(lib_a-fflush.o)
 .comment       0x00000000       0x23 c:/devkitpro/devkitarm/bin/../lib/gcc/arm-none-eabi/4.9.2/../../../../arm-none-eabi/lib/armv6k/fpu\libg.a(lib_a-findfp.o)
 .comment       0x00000000       0x23 c:/devkitpro/devkitarm/bin/../lib/gcc/arm-none-eabi/4.9.2/../../../../arm-none-eabi/lib/armv6k/fpu\libg.a(lib_a-fini.o)
 .comment       0x00000000       0x23 c:/devkitpro/devkitarm/bin/../lib/gcc/arm-none-eabi/4.9.2/../../../../arm-none-eabi/lib/armv6k/fpu\libg.a(lib_a-fopen.o)
 .comment       0x00000000       0x23 c:/devkitpro/devkitarm/bin/../lib/gcc/arm-none-eabi/4.9.2/../../../../arm-none-eabi/lib/armv6k/fpu\libg.a(lib_a-fread.o)
 .comment       0x00000000       0x23 c:/devkitpro/devkitarm/bin/../lib/gcc/arm-none-eabi/4.9.2/../../../../arm-none-eabi/lib/armv6k/fpu\libg.a(lib_a-freer.o)
 .comment       0x00000000       0x23 c:/devkitpro/devkitarm/bin/../lib/gcc/arm-none-eabi/4.9.2/../../../../arm-none-eabi/lib/armv6k/fpu\libg.a(lib_a-fseek.o)
 .comment       0x00000000       0x23 c:/devkitpro/devkitarm/bin/../lib/gcc/arm-none-eabi/4.9.2/../../../../arm-none-eabi/lib/armv6k/fpu\libg.a(lib_a-fseeko.o)
 .comment       0x00000000       0x23 c:/devkitpro/devkitarm/bin/../lib/gcc/arm-none-eabi/4.9.2/../../../../arm-none-eabi/lib/armv6k/fpu\libg.a(lib_a-ftell.o)
 .comment       0x00000000       0x23 c:/devkitpro/devkitarm/bin/../lib/gcc/arm-none-eabi/4.9.2/../../../../arm-none-eabi/lib/armv6k/fpu\libg.a(lib_a-ftello.o)
 .comment       0x00000000       0x23 c:/devkitpro/devkitarm/bin/../lib/gcc/arm-none-eabi/4.9.2/../../../../arm-none-eabi/lib/armv6k/fpu\libg.a(lib_a-fwalk.o)
 .comment       0x00000000       0x23 c:/devkitpro/devkitarm/bin/../lib/gcc/arm-none-eabi/4.9.2/../../../../arm-none-eabi/lib/armv6k/fpu\libg.a(lib_a-impure.o)
 .comment       0x00000000       0x23 c:/devkitpro/devkitarm/bin/../lib/gcc/arm-none-eabi/4.9.2/../../../../arm-none-eabi/lib/armv6k/fpu\libg.a(lib_a-init.o)
 .comment       0x00000000       0x23 c:/devkitpro/devkitarm/bin/../lib/gcc/arm-none-eabi/4.9.2/../../../../arm-none-eabi/lib/armv6k/fpu\libg.a(lib_a-makebuf.o)
 .comment       0x00000000       0x23 c:/devkitpro/devkitarm/bin/../lib/gcc/arm-none-eabi/4.9.2/../../../../arm-none-eabi/lib/armv6k/fpu\libg.a(lib_a-malloc.o)
 .comment       0x00000000       0x23 c:/devkitpro/devkitarm/bin/../lib/gcc/arm-none-eabi/4.9.2/../../../../arm-none-eabi/lib/armv6k/fpu\libg.a(lib_a-mallocr.o)
 .comment       0x00000000       0x23 c:/devkitpro/devkitarm/bin/../lib/gcc/arm-none-eabi/4.9.2/../../../../arm-none-eabi/lib/armv6k/fpu\libg.a(lib_a-memchr.o)
 .comment       0x00000000       0x23 c:/devkitpro/devkitarm/bin/../lib/gcc/arm-none-eabi/4.9.2/../../../../arm-none-eabi/lib/armv6k/fpu\libg.a(lib_a-memcmp.o)
 .comment       0x00000000       0x23 c:/devkitpro/devkitarm/bin/../lib/gcc/arm-none-eabi/4.9.2/../../../../arm-none-eabi/lib/armv6k/fpu\libg.a(lib_a-memcpy.o)
 .comment       0x00000000       0x23 c:/devkitpro/devkitarm/bin/../lib/gcc/arm-none-eabi/4.9.2/../../../../arm-none-eabi/lib/armv6k/fpu\libg.a(lib_a-memmove.o)
 .comment       0x00000000       0x23 c:/devkitpro/devkitarm/bin/../lib/gcc/arm-none-eabi/4.9.2/../../../../arm-none-eabi/lib/armv6k/fpu\libg.a(lib_a-memset.o)
 .comment       0x00000000       0x23 c:/devkitpro/devkitarm/bin/../lib/gcc/arm-none-eabi/4.9.2/../../../../arm-none-eabi/lib/armv6k/fpu\libg.a(lib_a-mlock.o)
 .comment       0x00000000       0x23 c:/devkitpro/devkitarm/bin/../lib/gcc/arm-none-eabi/4.9.2/../../../../arm-none-eabi/lib/armv6k/fpu\libg.a(lib_a-qsort.o)
 .comment       0x00000000       0x23 c:/devkitpro/devkitarm/bin/../lib/gcc/arm-none-eabi/4.9.2/../../../../arm-none-eabi/lib/armv6k/fpu\libg.a(lib_a-realloc.o)
 .comment       0x00000000       0x23 c:/devkitpro/devkitarm/bin/../lib/gcc/arm-none-eabi/4.9.2/../../../../arm-none-eabi/lib/armv6k/fpu\libg.a(lib_a-reallocr.o)
 .comment       0x00000000       0x23 c:/devkitpro/devkitarm/bin/../lib/gcc/arm-none-eabi/4.9.2/../../../../arm-none-eabi/lib/armv6k/fpu\libg.a(lib_a-refill.o)
 .comment       0x00000000       0x23 c:/devkitpro/devkitarm/bin/../lib/gcc/arm-none-eabi/4.9.2/../../../../arm-none-eabi/lib/armv6k/fpu\libg.a(lib_a-snprintf.o)
 .comment       0x00000000       0x23 c:/devkitpro/devkitarm/bin/../lib/gcc/arm-none-eabi/4.9.2/../../../../arm-none-eabi/lib/armv6k/fpu\libg.a(lib_a-sprintf.o)
 .comment       0x00000000       0x23 c:/devkitpro/devkitarm/bin/../lib/gcc/arm-none-eabi/4.9.2/../../../../arm-none-eabi/lib/armv6k/fpu\libg.a(lib_a-stdio.o)
 .comment       0x00000000       0x23 c:/devkitpro/devkitarm/bin/../lib/gcc/arm-none-eabi/4.9.2/../../../../arm-none-eabi/lib/armv6k/fpu\libg.a(lib_a-strchr.o)
 .comment       0x00000000       0x23 c:/devkitpro/devkitarm/bin/../lib/gcc/arm-none-eabi/4.9.2/../../../../arm-none-eabi/lib/armv6k/fpu\libg.a(lib_a-strcpy.o)
 .comment       0x00000000       0x23 c:/devkitpro/devkitarm/bin/../lib/gcc/arm-none-eabi/4.9.2/../../../../arm-none-eabi/lib/armv6k/fpu\libg.a(lib_a-strlen.o)
 .comment       0x00000000       0x23 c:/devkitpro/devkitarm/bin/../lib/gcc/arm-none-eabi/4.9.2/../../../../arm-none-eabi/lib/armv6k/fpu\libg.a(lib_a-strncat.o)
 .comment       0x00000000       0x23 c:/devkitpro/devkitarm/bin/../lib/gcc/arm-none-eabi/4.9.2/../../../../arm-none-eabi/lib/armv6k/fpu\libg.a(lib_a-strncmp.o)
 .comment       0x00000000       0x23 c:/devkitpro/devkitarm/bin/../lib/gcc/arm-none-eabi/4.9.2/../../../../arm-none-eabi/lib/armv6k/fpu\libg.a(lib_a-strncpy.o)
 .comment       0x00000000       0x23 c:/devkitpro/devkitarm/bin/../lib/gcc/arm-none-eabi/4.9.2/../../../../arm-none-eabi/lib/armv6k/fpu\libg.a(lib_a-strrchr.o)
 .comment       0x00000000       0x23 c:/devkitpro/devkitarm/bin/../lib/gcc/arm-none-eabi/4.9.2/../../../../arm-none-eabi/lib/armv6k/fpu\libg.a(lib_a-strstr.o)
 .comment       0x00000000       0x23 c:/devkitpro/devkitarm/bin/../lib/gcc/arm-none-eabi/4.9.2/../../../../arm-none-eabi/lib/armv6k/fpu\libg.a(lib_a-strtok.o)
 .comment       0x00000000       0x23 c:/devkitpro/devkitarm/bin/../lib/gcc/arm-none-eabi/4.9.2/../../../../arm-none-eabi/lib/armv6k/fpu\libg.a(lib_a-strtok_r.o)
 .comment       0x00000000       0x23 c:/devkitpro/devkitarm/bin/../lib/gcc/arm-none-eabi/4.9.2/../../../../arm-none-eabi/lib/armv6k/fpu\libg.a(lib_a-strtol.o)
 .comment       0x00000000       0x23 c:/devkitpro/devkitarm/bin/../lib/gcc/arm-none-eabi/4.9.2/../../../../arm-none-eabi/lib/armv6k/fpu\libg.a(lib_a-svfprintf.o)
 .comment       0x00000000       0x23 c:/devkitpro/devkitarm/bin/../lib/gcc/arm-none-eabi/4.9.2/../../../../arm-none-eabi/lib/armv6k/fpu\libg.a(lib_a-vsnprintf.o)
 .comment       0x00000000       0x23 c:/devkitpro/devkitarm/bin/../lib/gcc/arm-none-eabi/4.9.2/../../../../arm-none-eabi/lib/armv6k/fpu\libg.a(lib_a-vswprintf.o)
 .comment       0x00000000       0x23 c:/devkitpro/devkitarm/bin/../lib/gcc/arm-none-eabi/4.9.2/../../../../arm-none-eabi/lib/armv6k/fpu\libg.a(lib_a-wcrtomb.o)
 .comment       0x00000000       0x23 c:/devkitpro/devkitarm/bin/../lib/gcc/arm-none-eabi/4.9.2/../../../../arm-none-eabi/lib/armv6k/fpu\libg.a(lib_a-wcsrtombs.o)
 .comment       0x00000000       0x23 c:/devkitpro/devkitarm/bin/../lib/gcc/arm-none-eabi/4.9.2/../../../../arm-none-eabi/lib/armv6k/fpu\libg.a(lib_a-wctomb_r.o)
 .comment       0x00000000       0x23 c:/devkitpro/devkitarm/bin/../lib/gcc/arm-none-eabi/4.9.2/../../../../arm-none-eabi/lib/armv6k/fpu\libg.a(lib_a-ctype_.o)
 .comment       0x00000000       0x23 c:/devkitpro/devkitarm/bin/../lib/gcc/arm-none-eabi/4.9.2/../../../../arm-none-eabi/lib/armv6k/fpu\libg.a(lib_a-dtoa.o)
 .comment       0x00000000       0x23 c:/devkitpro/devkitarm/bin/../lib/gcc/arm-none-eabi/4.9.2/../../../../arm-none-eabi/lib/armv6k/fpu\libg.a(lib_a-flags.o)
 .comment       0x00000000       0x23 c:/devkitpro/devkitarm/bin/../lib/gcc/arm-none-eabi/4.9.2/../../../../arm-none-eabi/lib/armv6k/fpu\libg.a(lib_a-locale.o)
 .comment       0x00000000       0x23 c:/devkitpro/devkitarm/bin/../lib/gcc/arm-none-eabi/4.9.2/../../../../arm-none-eabi/lib/armv6k/fpu\libg.a(lib_a-mbtowc_r.o)
 .comment       0x00000000       0x23 c:/devkitpro/devkitarm/bin/../lib/gcc/arm-none-eabi/4.9.2/../../../../arm-none-eabi/lib/armv6k/fpu\libg.a(lib_a-mprec.o)
 .comment       0x00000000       0x23 c:/devkitpro/devkitarm/bin/../lib/gcc/arm-none-eabi/4.9.2/../../../../arm-none-eabi/lib/armv6k/fpu\libg.a(lib_a-s_fpclassify.o)
 .comment       0x00000000       0x23 c:/devkitpro/devkitarm/bin/../lib/gcc/arm-none-eabi/4.9.2/../../../../arm-none-eabi/lib/armv6k/fpu\libg.a(lib_a-s_frexp.o)
 .comment       0x00000000       0x23 c:/devkitpro/devkitarm/bin/../lib/gcc/arm-none-eabi/4.9.2/../../../../arm-none-eabi/lib/armv6k/fpu\libg.a(lib_a-strcasecmp.o)
 .comment       0x00000000       0x23 c:/devkitpro/devkitarm/bin/../lib/gcc/arm-none-eabi/4.9.2/../../../../arm-none-eabi/lib/armv6k/fpu\libg.a(lib_a-strcat.o)
 .comment       0x00000000       0x23 c:/devkitpro/devkitarm/bin/../lib/gcc/arm-none-eabi/4.9.2/../../../../arm-none-eabi/lib/armv6k/fpu\libg.a(lib_a-strlcpy.o)
 .comment       0x00000000       0x23 c:/devkitpro/devkitarm/bin/../lib/gcc/arm-none-eabi/4.9.2/../../../../arm-none-eabi/lib/armv6k/fpu\libg.a(lib_a-strncasecmp.o)
 .comment       0x00000000       0x23 c:/devkitpro/devkitarm/bin/../lib/gcc/arm-none-eabi/4.9.2/../../../../arm-none-eabi/lib/armv6k/fpu\libg.a(lib_a-svfiprintf.o)
 .comment       0x00000000       0x23 c:/devkitpro/devkitarm/bin/../lib/gcc/arm-none-eabi/4.9.2/../../../../arm-none-eabi/lib/armv6k/fpu\libg.a(lib_a-svfwprintf.o)
 .comment       0x00000000       0x23 c:/devkitpro/devkitarm/bin/../lib/gcc/arm-none-eabi/4.9.2/../../../../arm-none-eabi/lib/armv6k/fpu\libg.a(lib_a-wcslen.o)
 .comment       0x00000000       0x23 c:/devkitpro/devkitarm/bin/../lib/gcc/arm-none-eabi/4.9.2/../../../../arm-none-eabi/lib/armv6k/fpu\libg.a(lib_a-wcsnrtombs.o)
 .comment       0x00000000       0x23 c:/devkitpro/devkitarm/bin/../lib/gcc/arm-none-eabi/4.9.2/../../../../arm-none-eabi/lib/armv6k/fpu\libg.a(lib_a-wmemchr.o)
 .comment       0x00000000       0x23 c:/devkitpro/devkitarm/bin/../lib/gcc/arm-none-eabi/4.9.2/../../../../arm-none-eabi/lib/armv6k/fpu\libg.a(lib_a-btowc.o)
 .comment       0x00000000       0x23 c:/devkitpro/devkitarm/bin/../lib/gcc/arm-none-eabi/4.9.2/../../../../arm-none-eabi/lib/armv6k/fpu\libg.a(lib_a-callocr.o)
 .comment       0x00000000       0x23 c:/devkitpro/devkitarm/bin/../lib/gcc/arm-none-eabi/4.9.2/../../../../arm-none-eabi/lib/armv6k/fpu\libg.a(lib_a-getenv_r.o)
 .comment       0x00000000       0x23 c:/devkitpro/devkitarm/bin/../lib/gcc/arm-none-eabi/4.9.2/../../../../arm-none-eabi/lib/armv6k/fpu\libg.a(lib_a-mbrlen.o)
 .comment       0x00000000       0x23 c:/devkitpro/devkitarm/bin/../lib/gcc/arm-none-eabi/4.9.2/../../../../arm-none-eabi/lib/armv6k/fpu\libg.a(lib_a-mbrtowc.o)
 .comment       0x00000000       0x23 c:/devkitpro/devkitarm/bin/../lib/gcc/arm-none-eabi/4.9.2/../../../../arm-none-eabi/lib/armv6k/fpu\libg.a(lib_a-mbsnrtowcs.o)
 .comment       0x00000000       0x23 c:/devkitpro/devkitarm/bin/../lib/gcc/arm-none-eabi/4.9.2/../../../../arm-none-eabi/lib/armv6k/fpu\libg.a(lib_a-environ.o)
 .comment       0x00000000       0x23 c:/devkitpro/devkitarm/bin/../lib/gcc/arm-none-eabi/4.9.2/../../../../arm-none-eabi/lib/armv6k/fpu\libg.a(lib_a-envlock.o)
 .comment       0x00000000       0x23 c:/devkitpro/devkitarm/bin/../lib/gcc/arm-none-eabi/4.9.2/../../../../arm-none-eabi/lib/armv6k/fpu\libsysbase.a(iosupport.o)
 .comment       0x00000000       0x23 c:/devkitpro/devkitarm/bin/../lib/gcc/arm-none-eabi/4.9.2/../../../../arm-none-eabi/lib/armv6k/fpu\libsysbase.a(close.o)
 .comment       0x00000000       0x23 c:/devkitpro/devkitarm/bin/../lib/gcc/arm-none-eabi/4.9.2/../../../../arm-none-eabi/lib/armv6k/fpu\libsysbase.a(fstat.o)
 .comment       0x00000000       0x23 c:/devkitpro/devkitarm/bin/../lib/gcc/arm-none-eabi/4.9.2/../../../../arm-none-eabi/lib/armv6k/fpu\libsysbase.a(isatty.o)
 .comment       0x00000000       0x23 c:/devkitpro/devkitarm/bin/../lib/gcc/arm-none-eabi/4.9.2/../../../../arm-none-eabi/lib/armv6k/fpu\libsysbase.a(lseek.o)
 .comment       0x00000000       0x23 c:/devkitpro/devkitarm/bin/../lib/gcc/arm-none-eabi/4.9.2/../../../../arm-none-eabi/lib/armv6k/fpu\libsysbase.a(open.o)
 .comment       0x00000000       0x23 c:/devkitpro/devkitarm/bin/../lib/gcc/arm-none-eabi/4.9.2/../../../../arm-none-eabi/lib/armv6k/fpu\libsysbase.a(read.o)
 .comment       0x00000000       0x23 c:/devkitpro/devkitarm/bin/../lib/gcc/arm-none-eabi/4.9.2/../../../../arm-none-eabi/lib/armv6k/fpu\libsysbase.a(sbrk.o)
 .comment       0x00000000       0x23 c:/devkitpro/devkitarm/bin/../lib/gcc/arm-none-eabi/4.9.2/../../../../arm-none-eabi/lib/armv6k/fpu\libsysbase.a(write.o)
 .comment       0x00000000       0x23 c:/devkitpro/devkitarm/bin/../lib/gcc/arm-none-eabi/4.9.2/../../../../arm-none-eabi/lib/armv6k/fpu\libsysbase.a(malloc_vars.o)
 .comment       0x00000000       0x23 c:/devkitpro/devkitarm/bin/../lib/gcc/arm-none-eabi/4.9.2/../../../../arm-none-eabi/lib/armv6k/fpu\libsysbase.a(chdir.o)
 .comment       0x00000000       0x23 c:/devkitpro/devkitarm/bin/../lib/gcc/arm-none-eabi/4.9.2/../../../../arm-none-eabi/lib/armv6k/fpu\libsysbase.a(flock.o)
 .comment       0x00000000       0x23 c:/devkitpro/devkitarm/bin/../lib/gcc/arm-none-eabi/4.9.2/../../../../arm-none-eabi/lib/armv6k/fpu\libsysbase.a(syscall_support.o)
 .comment       0x00000000       0x23 c:/devkitpro/devkitarm/bin/../lib/gcc/arm-none-eabi/4.9.2/../../../../arm-none-eabi/lib/armv6k/fpu\libsysbase.a(handle_manager.o)
 .comment       0x00000000       0x23 c:/devkitpro/devkitarm/bin/../lib/gcc/arm-none-eabi/4.9.2/../../../../arm-none-eabi/lib/armv6k/fpu\libsysbase.a(getreent.o)
 .comment       0x00000000       0x23 c:/devkitpro/devkitarm/bin/../lib/gcc/arm-none-eabi/4.9.2/armv6k/fpu\libgcc.a(bpabi.o)
 .comment       0x00000000       0x23 c:/devkitpro/devkitarm/bin/../lib/gcc/arm-none-eabi/4.9.2/armv6k/fpu\libgcc.a(_divdi3.o)
 .comment       0x00000000       0x23 c:/devkitpro/devkitarm/bin/../lib/gcc/arm-none-eabi/4.9.2/armv6k/fpu\libgcc.a(_udivdi3.o)
 .comment       0x00000000       0x23 c:/devkitpro/devkitarm/bin/../lib/gcc/arm-none-eabi/4.9.2/../../../../arm-none-eabi/lib/armv6k/fpu\libg.a(lib_a-strnlen.o)
 .comment       0x00000000       0x23 c:/devkitpro/devkitarm/bin/../lib/gcc/arm-none-eabi/4.9.2/armv6k/fpu/crtend.o

Memory Configuration

Name             Origin             Length             Attributes
*default*        0x00000000         0xffffffff

Linker script and memory map

                0x00100000                . = 0x100000
                0x00100000                __start__ = .

.text           0x00100000    0x97248
 *(.crt0)
 .crt0          0x00100000       0x94 c:/devkitpro/devkitarm/bin/../lib/gcc/arm-none-eabi/4.9.2/../../../../arm-none-eabi/lib/armv6k/fpu/3dsx_crt0.o
                0x00100000                _start
                0x00100008                __service_ptr
                0x0010000c                __apt_appid
                0x00100010                __heap_size
                0x00100014                __linear_heap_size
                0x00100018                __system_arglist
                0x0010001c                __system_runflags
 *(.init)
 .init          0x00100094        0xc c:/devkitpro/devkitarm/bin/../lib/gcc/arm-none-eabi/4.9.2/armv6k/fpu/crti.o
                0x00100094                _init
 .init          0x001000a0        0xc c:/devkitpro/devkitarm/bin/../lib/gcc/arm-none-eabi/4.9.2/armv6k/fpu/crtn.o
                0x001000ac                . = ALIGN (0x4)
 *(.text)
 .text          0x001000ac        0x0 c:/devkitpro/devkitarm/bin/../lib/gcc/arm-none-eabi/4.9.2/../../../../arm-none-eabi/lib/armv6k/fpu/3dsx_crt0.o
 .text          0x001000ac        0x0 c:/devkitpro/devkitarm/bin/../lib/gcc/arm-none-eabi/4.9.2/armv6k/fpu/crti.o
 .text          0x001000ac      0x108 c:/devkitpro/devkitarm/bin/../lib/gcc/arm-none-eabi/4.9.2/armv6k/fpu/crtbegin.o
 .text          0x001001b4        0x0 eightbit.ttf.o
 .text          0x001001b4        0x0 friskBack.o
 .text          0x001001b4        0x0 friskFace.o
 .text          0x001001b4        0x0 friskLeft1.o
 .text          0x001001b4        0x0 friskRight1.o
 .text          0x001001b4        0x0 main.o
 .text          0x001001b4        0x0 torielHouse1.o
 .text          0x001001b4     0x10ac c:/devkitPro/libctru/lib\libsftd.a(sftd.o)
                0x00100324                sftd_init
                0x00100364                sftd_fini
                0x001003a8                sftd_load_font_file
                0x00100488                sftd_load_font_mem
                0x0010054c                sftd_free_font
                0x0010059c                sftd_draw_text
                0x001007c4                sftd_draw_textf
                0x00100824                sftd_draw_wtext
                0x00100a4c                sftd_draw_wtextf
                0x00100ab8                sftd_get_text_width
                0x00100c60                sftd_draw_text_wrap
                0x00100f40                sftd_calc_bounding_box
                0x001011f8                sftd_draw_textf_wrap
 .text          0x00101260      0x244 c:/devkitPro/libctru/lib\libsftd.a(texture_atlas.o)
                0x00101260                texture_atlas_create
                0x001012dc                texture_atlas_free
                0x00101308                texture_atlas_insert
                0x00101420                texture_atlas_exists
                0x00101438                texture_atlas_get
 .text          0x001014a4      0x1c8 c:/devkitPro/libctru/lib\libsftd.a(bin_packing_2d.o)
                0x001014a4                bp2d_create
                0x001014f0                bp2d_free
                0x00101524                bp2d_insert
 .text          0x0010166c      0x33c c:/devkitPro/libctru/lib\libsftd.a(int_htab.o)
                0x0010166c                int_htab_create
                0x001016b4                int_htab_free
                0x00101700                int_htab_insert
                0x001017ec                int_htab_resize
                0x00101860                int_htab_find
                0x00101900                int_htab_erase
 .text          0x001019a8       0xc8 c:/devkitPro/portlibs/armv6k/lib\libfreetype.a(ftinit.o)
                0x001019a8                FT_Add_Default_Modules
                0x001019d8                FT_Init_FreeType
                0x00101a44                FT_Done_FreeType
 .text          0x00101a70     0xd0bc c:/devkitPro/portlibs/armv6k/lib\libfreetype.a(ftbase.o)
                0x0010259c                FT_RoundFix
                0x001025b0                FT_CeilFix
                0x001025c4                FT_FloorFix
                0x001025d0                FT_Hypot
                0x001026f4                FT_MulDiv
                0x001027f4                FT_MulDiv_No_Round
                0x001028d4                FT_MulFix
                0x001028f4                FT_DivFix
                0x00102a04                FT_Matrix_Multiply
                0x00102b34                FT_Matrix_Invert
                0x00102bf8                FT_Matrix_Multiply_Scaled
                0x00102d00                FT_Vector_Transform_Scaled
                0x00102f58                FT_Vector_NormLen
                0x0010310c                ft_corner_orientation
                0x00103220                ft_corner_is_flat
                0x001032b0                FT_GlyphLoader_New
                0x001032f4                FT_GlyphLoader_Rewind
                0x0010332c                FT_GlyphLoader_Reset
                0x001039fc                FT_GlyphLoader_Done
                0x00103b00                FT_GlyphLoader_CreateExtra
                0x00103be0                FT_GlyphLoader_CheckSubGlyphs
                0x00103d0c                FT_GlyphLoader_Prepare
                0x00103d88                FT_GlyphLoader_Add
                0x00103fbc                ft_service_list_lookup
                0x0010401c                ft_validator_init
                0x00104034                ft_validator_run
                0x0010403c                ft_validator_error
                0x00104050                FT_Stream_New
                0x00104168                FT_Stream_Free
                0x001041ac                ft_glyphslot_free_bitmap
                0x00104210                ft_glyphslot_set_bitmap
                0x00104268                ft_glyphslot_alloc_bitmap
                0x00104318                FT_New_GlyphSlot
                0x00104484                FT_Done_GlyphSlot
                0x00104518                FT_Set_Transform
                0x001045cc                FT_Attach_File
                0x001046cc                FT_Attach_Stream
                0x00104860                FT_Reference_Face
                0x00104880                FT_Done_Face
                0x00104954                FT_New_Size
                0x00104ad4                FT_Done_Size
                0x00104c0c                FT_Match_Size
                0x00104d3c                ft_synthesize_vertical_metrics
                0x00104dac                FT_Select_Metrics
                0x00105048                FT_Request_Metrics
                0x001053d4                FT_Select_Size
                0x00105440                FT_Request_Size
                0x001054d0                FT_Set_Char_Size
                0x00105598                FT_Set_Pixel_Sizes
                0x0010566c                FT_Get_Kerning
                0x00105794                FT_Get_Track_Kerning
                0x00105814                FT_Select_Charmap
                0x00105924                FT_Set_Charmap
                0x00105a0c                FT_Get_Charmap_Index
                0x00105a78                FT_Get_Char_Index
                0x00105ac0                FT_Get_First_Char
                0x00105b84                FT_Get_Next_Char
                0x00105c1c                FT_Face_GetCharVariantIndex
                0x00105d2c                FT_Face_GetCharVariantIsDefault
                0x00105e14                FT_Face_GetVariantSelectors
                0x00105ef4                FT_Face_GetVariantsOfChar
                0x00105fdc                FT_Face_GetCharsOfVariant
                0x001060c4                FT_Get_Name_Index
                0x00106170                FT_Get_Glyph_Name
                0x0010625c                FT_Get_Postscript_Name
                0x001062e4                FT_Get_Sfnt_Table
                0x00106350                FT_Load_Sfnt_Table
                0x001063d4                FT_Sfnt_Table_Info
                0x00106460                FT_Get_CMap_Language_ID
                0x001064e0                FT_Get_CMap_Format
                0x0010655c                FT_Activate_Size
                0x00106598                FT_Lookup_Renderer
                0x001065fc                FT_Get_Renderer
                0x0010664c                FT_Set_Renderer
                0x0010674c                FT_Render_Glyph_Internal
                0x00106844                FT_Render_Glyph
                0x00106874                FT_Get_Module
                0x001068e0                FT_Get_Module_Interface
                0x00106950                ft_module_get_service
                0x001069d4                FT_Remove_Module
                0x001069f8                FT_Property_Set
                0x00106aec                FT_Property_Get
                0x00106be0                FT_Reference_Library
                0x00106bfc                FT_New_Library
                0x00106c78                FT_Library_Version
                0x00106cb0                FT_Done_Library
                0x00106e7c                FT_Set_Debug_Hook
                0x00106ea8                FT_Get_TrueType_Engine_Type
                0x00106f7c                FT_Get_SubGlyph_Info
                0x00107010                FT_Outline_Decompose
                0x00107420                FT_Outline_Check
                0x001074c8                FT_Outline_Copy
                0x00107570                FT_Outline_Done_Internal
                0x0010761c                FT_Outline_Done
                0x001076dc                FT_Outline_Get_CBox
                0x00107778                FT_Outline_Translate
                0x001077cc                FT_Outline_Reverse
                0x00107898                FT_Outline_Render
                0x00107968                FT_Outline_Get_Bitmap
                0x00107a44                FT_Vector_Transform
                0x00107aec                FT_Outline_Transform
                0x00108288                FT_Load_Glyph
                0x00108644                FT_Get_Advances
                0x001086bc                FT_Get_Advance
                0x001089bc                FT_Load_Char
                0x00108a20                FT_Outline_Get_Orientation
                0x00108b6c                FT_Outline_EmboldenXY
                0x00108f50                FT_Outline_Embolden
                0x00108f58                FT_Raccess_Guess
                0x00109070                FT_Get_Sfnt_Name_Count
                0x00109094                FT_Stream_OpenMemory
                0x001090ac                FT_Stream_Close
                0x001090c4                FT_Stream_Seek
                0x00109110                FT_Stream_Skip
                0x00109174                FT_Stream_Pos
                0x0010917c                FT_Stream_Read
                0x00109200                FT_Stream_ReadAt
                0x00109280                FT_Stream_TryRead
                0x001092f0                FT_Stream_ExtractFrame
                0x00109430                FT_Stream_ReleaseFrame
                0x00109470                FT_Stream_EnterFrame
                0x00109590                FT_Stream_ExitFrame
                0x001095d4                FT_Stream_GetChar
                0x001095f8                FT_Stream_GetUShort
                0x00109628                FT_Stream_GetUShortLE
                0x00109658                FT_Stream_GetUOffset
                0x00109694                FT_Stream_GetULong
                0x001096d8                FT_Stream_GetULongLE
                0x0010971c                FT_Stream_ReadChar
                0x001097ac                FT_Stream_ReadUShort
                0x00109844                FT_Raccess_Get_HeaderInfo
                0x00109ab4                FT_Stream_ReadUShortLE
                0x00109b4c                FT_Stream_ReadUOffset
                0x00109bf0                FT_Stream_ReadULong
                0x0010a76c                FT_Stream_ReadULongLE
                0x0010a818                FT_Stream_ReadFields
                0x0010aa8c                FT_Cos
                0x0010ab58                FT_Sin
                0x0010ac24                FT_Tan
                0x0010acfc                FT_Atan2
                0x0010ad64                FT_Vector_Unit
                0x0010ae4c                FT_Vector_Rotate
                0x0010b094                FT_Vector_Length
                0x0010b1dc                FT_Vector_Polarize
                0x0010b32c                FT_Vector_From_Polar
                0x0010b560                FT_Angle_Diff
                0x0010b59c                ft_mem_alloc
                0x0010b5fc                FT_Add_Module
                0x0010b90c                ft_mem_qalloc
                0x0010b950                ft_mem_realloc
                0x0010ba54                FT_GlyphLoader_CheckPoints
                0x0010bc7c                FT_CMap_Done
                0x0010bdb0                FT_CMap_New
                0x0010bf1c                FT_Outline_New_Internal
                0x0010c080                FT_Raccess_Get_DataOffsets
                0x0010cfd4                FT_Open_Face
                0x0010d8fc                FT_New_Face
                0x0010d93c                FT_New_Memory_Face
                0x0010e09c                FT_Get_Sfnt_Name
                0x0010e1ec                FT_Outline_New
                0x0010e330                FT_GlyphLoader_CopyPoints
                0x0010e698                ft_mem_qrealloc
                0x0010e7b8                ft_mem_free
                0x0010e7c8                ft_mem_dup
                0x0010e838                ft_mem_strdup
                0x0010e8c4                ft_mem_strcpyn
                0x0010e928                FT_List_Find
                0x0010e96c                FT_List_Add
                0x0010e9a0                FT_List_Insert
                0x0010e9d4                FT_List_Remove
                0x0010ea04                FT_List_Up
                0x0010ea48                FT_List_Iterate
                0x0010ea9c                FT_List_Finalize
 .text          0x0010eb2c     0xc09c c:/devkitPro/portlibs/armv6k/lib\libfreetype.a(truetype.o)
                0x001150a8                TT_RunIns
                0x001193e0                TT_New_Context
 .text          0x0011abc8     0x5bfc c:/devkitPro/portlibs/armv6k/lib\libfreetype.a(type1.o)
 .text          0x001207c4     0xe128 c:/devkitPro/portlibs/armv6k/lib\libfreetype.a(cff.o)
 .text          0x0012e8ec     0x1c90 c:/devkitPro/portlibs/armv6k/lib\libfreetype.a(type1cid.o)
 .text          0x0013057c     0x3318 c:/devkitPro/portlibs/armv6k/lib\libfreetype.a(pfr.o)
 .text          0x00133894     0x1e58 c:/devkitPro/portlibs/armv6k/lib\libfreetype.a(type42.o)
 .text          0x001356ec     0x10e4 c:/devkitPro/portlibs/armv6k/lib\libfreetype.a(winfnt.o)
 .text          0x001367d0     0x21b0 c:/devkitPro/portlibs/armv6k/lib\libfreetype.a(pcf.o)
 .text          0x00138980     0x5210 c:/devkitPro/portlibs/armv6k/lib\libfreetype.a(bdf.o)
 .text          0x0013db90     0xa014 c:/devkitPro/portlibs/armv6k/lib\libfreetype.a(sfnt.o)
 .text          0x00147ba4     0x8d0c c:/devkitPro/portlibs/armv6k/lib\libfreetype.a(autofit.o)
                0x0015086c                af_get_coverage
                0x00150874                af_get_char_index
 .text          0x001508b0     0x4408 c:/devkitPro/portlibs/armv6k/lib\libfreetype.a(pshinter.o)
                0x00153840                ps_hints_apply
 .text          0x00154cb8      0xc64 c:/devkitPro/portlibs/armv6k/lib\libfreetype.a(raster.o)
 .text          0x0015591c     0x263c c:/devkitPro/portlibs/armv6k/lib\libfreetype.a(smooth.o)
 .text          0x00157f58     0x3c7c c:/devkitPro/portlibs/armv6k/lib\libfreetype.a(ftcache.o)
                0x00159ecc                FTC_Manager_LookupSize
                0x0015a020                FTC_Manager_LookupFace
                0x0015a0e8                FTC_Manager_New
                0x0015a1ec                FTC_Manager_Done
                0x0015a350                FTC_Manager_Reset
                0x0015a4a4                FTC_Manager_RemoveFaceID
                0x0015a758                FTC_Node_Unref
                0x0015a780                FTC_CMapCache_New
                0x0015a87c                FTC_CMapCache_Lookup
                0x0015ab14                FTC_ImageCache_New
                0x0015ac10                FTC_ImageCache_Lookup
                0x0015af2c                FTC_ImageCache_LookupScaler
                0x0015b2f0                FTC_SBitCache_New
                0x0015b3ec                FTC_SBitCache_Lookup
                0x0015b790                FTC_SBitCache_LookupScaler
 .text          0x0015bbd4      0x9a4 c:/devkitPro/portlibs/armv6k/lib\libfreetype.a(ftgzip.o)
                0x0015bee4                FT_Stream_OpenGzip
                0x0015c470                FT_Gzip_Uncompress
 .text          0x0015c578     0x14a8 c:/devkitPro/portlibs/armv6k/lib\libfreetype.a(ftlzw.o)
                0x0015c7a0                FT_Stream_OpenLZW
                0x0015c988                ft_lzwstate_reset
                0x0015c9b4                ft_lzwstate_init
                0x0015ca20                ft_lzwstate_done
                0x0015ca90                ft_lzwstate_io
 .text          0x0015da20     0x6bb4 c:/devkitPro/portlibs/armv6k/lib\libfreetype.a(psaux.o)
 .text          0x001645d4      0xa78 c:/devkitPro/portlibs/armv6k/lib\libfreetype.a(psnames.o)
 .text          0x0016504c      0x194 c:/devkitPro/portlibs/armv6k/lib\libfreetype.a(ftsystem.o)
                0x001650e8                FT_Stream_Open
                0x00165198                FT_New_Memory
                0x001651dc                FT_Done_Memory
 .text          0x001651e0      0xf78 c:/devkitPro/portlibs/armv6k/lib\libfreetype.a(ftbitmap.o)
                0x001651e0                FT_Bitmap_Init
                0x00165210                FT_Bitmap_New
                0x00165240                FT_Bitmap_Copy
                0x001653ec                FT_Bitmap_Convert
                0x00165910                FT_Bitmap_Embolden
                0x00166048                FT_GlyphSlot_Own_Bitmap
                0x001660fc                FT_Bitmap_Done
 .text          0x00166158      0x840 c:/devkitPro/portlibs/armv6k/lib\libfreetype.a(ftglyph.o)
                0x00166370                FT_Glyph_Copy
                0x00166464                FT_Get_Glyph
                0x00166584                FT_Glyph_Transform
                0x001665e8                FT_Glyph_Get_CBox
                0x0016668c                FT_Done_Glyph
                0x001666c0                FT_Glyph_To_Bitmap
 .text          0x00166998     0x2c58 c:/devkitPro/portlibs/armv6k/lib\libz.a(inflate.o)
                0x00166998                inflateResetKeep
                0x00166a28                inflateReset
                0x00166ac4                inflateReset2
                0x00166be4                inflateInit2_
                0x00166d6c                inflateInit_
                0x00166ed0                inflatePrime
                0x00166f48                inflate
                0x00168de4                inflateEnd
                0x00168e48                inflateGetDictionary
                0x00168ee0                inflateSetDictionary
                0x00169088                inflateGetHeader
                0x001690c4                inflateSync
                0x0016937c                inflateSyncPoint
                0x001693bc                inflateCopy
                0x00169568                inflateUndermine
                0x00169598                inflateMark
 .text          0x001695f0      0xbf4 c:/devkitPro/portlibs/armv6k/lib\libz.a(inftrees.o)
                0x001695f0                inflate_table
 .text          0x0016a1e4       0x38 c:/devkitPro/portlibs/armv6k/lib\libz.a(zutil.o)
                0x0016a1e4                zlibVersion
                0x0016a1f0                zlibCompileFlags
                0x0016a1f8                zError
                0x0016a20c                zcalloc
                0x0016a214                zcfree
 .text          0x0016a21c      0x5c0 c:/devkitPro/portlibs/armv6k/lib\libz.a(adler32.o)
                0x0016a21c                adler32
                0x0016a664                adler32_combine
                0x0016a720                adler32_combine64
 .text          0x0016a7dc      0x5d8 c:/devkitPro/portlibs/armv6k/lib\libz.a(crc32.o)
                0x0016a9f0                get_crc_table
                0x0016a9fc                crc32
                0x0016adac                crc32_combine
                0x0016adb0                crc32_combine64
 .text          0x0016adb4      0xbe4 c:/devkitPro/portlibs/armv6k/lib\libz.a(inffast.o)
                0x0016adb4                inflate_fast
 .text          0x0016b998      0x75c c:/devkitPro/libctru/lib\libsf2d.a(sf2d.o)
                0x0016bbb0                sf2d_init
                0x0016bbd8                sf2d_init_advanced
                0x0016bbf8                sf2d_fini
                0x0016bc5c                sf2d_set_3D
                0x0016bc68                sf2d_start_frame
                0x0016bdf8                sf2d_end_frame
                0x0016bf10                sf2d_swapbuffers
                0x0016bfc0                sf2d_set_vblank_wait
                0x0016bfd0                sf2d_get_fps
                0x0016bfe0                sf2d_pool_malloc
                0x0016c00c                sf2d_pool_memalign
                0x0016c04c                sf2d_pool_space_free
                0x0016c064                sf2d_pool_reset
                0x0016c078                sf2d_set_clear_color
                0x0016c088                sf2d_set_scissor_test
                0x0016c0d4                sf2d_get_current_screen
                0x0016c0e4                sf2d_get_current_side
 .text          0x0016c0f4      0x4b8 c:/devkitPro/libctru/lib\libsf2d.a(sf2d_private.o)
                0x0016c0f4                GPU_SetDummyTexEnv
                0x0016c128                vector_mult_matrix4x4
                0x0016c1ac                matrix_gpu_set_uniform
                0x0016c1bc                matrix_copy
                0x0016c1f8                matrix_identity4x4
                0x0016c244                matrix_mult4x4
                0x0016c2b8                matrix_set_z_rotation
                0x0016c32c                matrix_rotate_z
                0x0016c38c                matrix_set_scaling
                0x0016c3d8                matrix_swap_xy
                0x0016c478                matrix_init_orthographic
                0x0016c58c                next_pow2
 .text          0x0016c5ac     0x2138 c:/devkitPro/libctru/lib\libsf2d.a(sf2d_texture.o)
                0x0016c6d0                sf2d_create_texture
                0x0016c8d0                sf2d_free_texture
                0x0016c920                sf2d_fill_texture_from_RGBA8
                0x0016c9d8                sf2d_create_texture_mem_RGBA8
                0x0016ca1c                sf2d_bind_texture
                0x0016ca94                sf2d_bind_texture_color
                0x0016cb14                sf2d_bind_texture_parameters
                0x0016cb8c                sf2d_texture_set_params
                0x0016cb94                sf2d_texture_get_params
                0x0016cb9c                sf2d_draw_texture
                0x0016ccdc                sf2d_draw_texture_blend
                0x0016ce20                sf2d_draw_texture_rotate_hotspot
                0x0016cfd0                sf2d_draw_texture_rotate_hotspot_blend
                0x0016d184                sf2d_draw_texture_rotate
                0x0016d348                sf2d_draw_texture_rotate_blend
                0x0016d510                sf2d_draw_texture_part
                0x0016d68c                sf2d_draw_texture_part_blend
                0x0016d80c                sf2d_draw_texture_scale
                0x0016d974                sf2d_draw_texture_scale_blend
                0x0016dae0                sf2d_draw_texture_part_scale
                0x0016dc34                sf2d_draw_texture_part_scale_blend
                0x0016dd8c                sf2d_draw_texture_part_rotate_scale
                0x0016dfa4                sf2d_draw_texture_part_rotate_scale_blend
                0x0016e1c0                sf2d_draw_texture_depth
                0x0016e320                sf2d_draw_texture_depth_blend
                0x0016e484                sf2d_draw_quad_uv
                0x0016e5b0                sf2d_set_pixel
                0x0016e644                sf2d_get_pixel
                0x0016e6d4                sf2d_texture_tile32
 .text          0x0016e6e4        0x0 c:/devkitPro/libctru/lib\libsf2d.a(shader.vsh.o)
 .text          0x0016e6e4      0x1d4 c:/devkitPro/libctru/lib\libctru.a(linear.o)
                0x0016e70c                linearMemAlign
                0x0016e84c                linearAlloc
                0x0016e854                linearRealloc
                0x0016e85c                linearFree
                0x0016e8ac                linearSpaceFree
 .text          0x0016e8b8      0x35c c:/devkitPro/libctru/lib\libctru.a(mem_pool.o)
                0x0016e8b8                MemPool::CoalesceRight(MemBlock*)
                0x0016e958                MemPool::Allocate(MemChunk&, unsigned long, int)
                0x0016eae0                MemPool::Deallocate(MemChunk const&)
                0x0016ebe4                MemPool::GetFreeSpace()
 .text          0x0016ec14      0x1c4 c:/devkitPro/libctru/lib\libctru.a(vram.o)
                0x0016ec3c                vramMemAlign
                0x0016ed6c                vramAlloc
                0x0016ed74                vramRealloc
                0x0016ed7c                vramFree
                0x0016edcc                vramSpaceFree
 .text          0x0016edd8      0x748 c:/devkitPro/libctru/lib\libctru.a(gfx.o)
                0x0016ee64                gfxSet3D
                0x0016ee74                gfxSetScreenFormat
                0x0016ee8c                gfxGetScreenFormat
                0x0016eea4                gfxSetDoubleBuffering
                0x0016eeb8                gfxSetFramebufferInfo
                0x0016ef28                gfxWriteFramebufferInfo
                0x0016efec                gfxInit
                0x0016f1cc                gfxInitDefault
                0x0016f1dc                gfxExit
                0x0016f2c4                gfxGetFramebuffer
                0x0016f374                gfxFlushBuffers
                0x0016f450                gfxSwapBuffers
                0x0016f4c4                gfxSwapBuffersGpu
 .text          0x0016f520      0x550 c:/devkitPro/libctru/lib\libctru.a(os.o)
                0x0016f654                osConvertVirtToPhys
                0x0016f6a0                osConvertOldLINEARMemToNew
                0x0016f6c0                __libctru_gtod
                0x0016f7b4                osGetTime
                0x0016f828                osGetFirmVersion
                0x0016f83c                osGetKernelVersion
                0x0016f850                osStrError
                0x0016f870                osGetWifiStrength
                0x0016f880                __ctru_speedup_config
                0x0016f8b4                osSetSpeedupEnable
                0x0016f8c4                osGetSystemVersionData
                0x0016f9f4                osGetSystemVersionDataString
 .text          0x0016fa70      0xa8c c:/devkitPro/libctru/lib\libctru.a(romfs_dev.o)
                0x001701f0                romfsInit
                0x00170478                romfsInitFromFile
                0x001704a0                romfsExit
 .text          0x001704fc      0x3b8 c:/devkitPro/libctru/lib\libctru.a(srv.o)
                0x001704fc                __get_handle_from_list
                0x00170594                __destroy_handle_list
                0x001705e8                srvExit
                0x00170610                srvGetSessionHandle
                0x0017061c                srvRegisterClient
                0x00170654                srvInit
                0x001706bc                srvGetServiceHandle
                0x0017073c                srvRegisterService
                0x00170798                srvUnregisterService
                0x001707e4                srvPmInit
                0x00170838                srvRegisterProcess
                0x00170880                srvUnregisterProcess
 .text          0x001708b4     0x1a58 c:/devkitPro/libctru/lib\libctru.a(gpu.o)
                0x00170934                GPU_Init
                0x00170960                GPUCMD_SetBuffer
                0x0017098c                GPUCMD_SetBufferOffset
                0x0017099c                GPUCMD_GetBuffer
                0x001709dc                GPUCMD_AddRawCommands
                0x00170a28                GPUCMD_Run
                0x00170a88                GPUCMD_FlushAndRun
                0x00170afc                GPUCMD_Add
                0x00170be0                GPUCMD_Finalize
                0x00170c78                GPU_Reset
                0x00171458                GPU_SetFloatUniform
                0x001714d0                GPU_SetViewport
                0x001716c4                GPU_SetScissorTest
                0x00171710                GPU_DepthMap
                0x0017178c                GPU_SetAlphaTest
                0x001717c4                GPU_SetStencilTest
                0x0017180c                GPU_SetStencilOp
                0x00171840                GPU_SetDepthTestAndWriteMask
                0x00171878                GPU_SetAlphaBlending
                0x001718e0                GPU_SetColorLogicOp
                0x00171924                GPU_SetBlendingColor
                0x00171960                GPU_SetTextureEnable
                0x001719ac                GPU_SetTexture
                0x00171b44                GPU_SetTextureBorderColor
                0x00171bd8                GPU_SetAttributeBuffers
                0x00171dd4                GPU_SetAttributeBuffersAddress
                0x00171e00                GPU_SetFaceCulling
                0x00171e2c                GPU_SetCombinerBufferWrite
                0x00171e60                GPU_SetTexEnv
                0x00171ed8                GPU_DrawArray
                0x00172008                GPU_DrawElements
                0x0017213c                GPU_FinishDrawing
                0x00172198                GPU_SetShaderOutmap
                0x001721e0                GPU_SendShaderCode
                0x00172298                GPU_SendOperandDescriptors
 .text          0x0017230c        0x0 c:/devkitPro/libctru/lib\libctru.a(gpuResetSequence.o)
 .text          0x0017230c      0x7f4 c:/devkitPro/libctru/lib\libctru.a(shaderProgram.o)
                0x0017230c                shaderInstanceInit
                0x00172514                shaderInstanceFree
                0x0017254c                shaderInstanceSetBool
                0x0017258c                shaderInstanceGetBool
                0x001725d8                shaderInstanceGetUniformLocation
                0x001725f8                shaderProgramInit
                0x00172610                shaderProgramFree
                0x00172640                shaderProgramSetVsh
                0x001726ac                shaderProgramSetGsh
                0x00172720                shaderProgramUse
 .text          0x00172b00      0x348 c:/devkitPro/libctru/lib\libctru.a(shbin.o)
                0x00172b00                DVLB_Free
                0x00172b3c                DVLE_GetUniformRegister
                0x00172bb8                DVLE_GenerateOutmap
                0x00172cb0                DVLB_ParseFile
 .text          0x00172e48     0x1e3c c:/devkitPro/libctru/lib\libctru.a(apt.o)
                0x00172eac                _aptDebug
                0x00172eb0                aptInitCaptureInfo
                0x00172f60                aptWaitStatusEvent
                0x00172f88                aptHook
                0x00172fc0                aptUnhook
                0x00172fec                aptGetStatus
                0x00173024                aptSetStatus
                0x00173094                aptGetStatusPower
                0x001730cc                aptSetStatusPower
                0x00173104                aptOpenSession
                0x00173128                aptCloseSession
                0x00173150                aptSignalReadyForSleep
                0x00173160                APT_GetLockHandle
                0x001731b0                APT_Initialize
                0x00173218                APT_Finalize
                0x00173254                APT_HardwareResetAsync
                0x00173288                APT_Enable
                0x001732c4                APT_GetAppletManInfo
                0x00173344                aptGetMenuAppID
                0x00173380                APT_GetAppletInfo
                0x00173418                APT_GetAppletProgramInfo
                0x0017346c                APT_GetProgramID
                0x001734dc                APT_IsRegistered
                0x0017352c                APT_InquireNotification
                0x0017357c                APT_PrepareToJumpToHomeMenu
                0x001735b0                APT_JumpToHomeMenu
                0x00173600                APT_PrepareToJumpToApplication
                0x0017363c                APT_JumpToApplication
                0x0017368c                APT_NotifyToWait
                0x001736c8                APT_AppletUtility
                0x00173750                aptAppletUtility_Exit_RetToApp
                0x00173870                aptAppletClosed
                0x00173980                aptInit
                0x00173b48                APT_GlanceParameter
                0x00173bbc                APT_ReceiveParameter
                0x00173c30                APT_SendParameter
                0x00173ca0                APT_SendCaptureBufferInfo
                0x00173cec                aptReturnToMenu
                0x00173ec0                APT_ReplySleepQuery
                0x00173f00                APT_ReplySleepNotificationComplete
                0x00173f3c                aptEventHandler
                0x00174240                APT_PrepareToCloseApplication
                0x0017427c                APT_CloseApplication
                0x001742d4                aptExit
                0x001744c0                APT_SetAppCpuTimeLimit
                0x00174504                APT_GetAppCpuTimeLimit
                0x00174558                APT_CheckNew3DS_Application
                0x001745b4                APT_CheckNew3DS_System
                0x00174610                APT_CheckNew3DS
                0x00174684                APT_PrepareToDoAppJump
                0x001746d0                APT_DoAppJump
                0x00174738                APT_PrepareToStartLibraryApplet
                0x00174774                APT_StartLibraryApplet
                0x001747d4                aptAppletStarted
                0x001748d8                aptMainLoop
                0x00174a50                APT_LaunchLibraryApplet
                0x00174be8                APT_PrepareToStartSystemApplet
                0x00174c24                APT_StartSystemApplet
 .text          0x00174c84      0x288 c:/devkitPro/libctru/lib\libctru.a(cfgu.o)
                0x00174c84                initCfgu
                0x00174cd8                exitCfgu
                0x00174cf8                CFGU_SecureInfoGetRegion
                0x00174d30                CFGU_GenHashConsoleUnique
                0x00174d88                CFGU_GetRegionCanadaUSA
                0x00174dc0                CFGU_GetSystemModel
                0x00174df8                CFGU_GetModelNintendo2DS
                0x00174e30                CFGU_GetCountryCodeString
                0x00174e70                CFGU_GetCountryCodeID
                0x00174eb0                CFGU_GetConfigInfoBlk2
                0x00174ef8                CFGU_GetSystemLanguage
 .text          0x00174f0c      0xb7c c:/devkitPro/libctru/lib\libctru.a(csnd.o)
                0x00174f0c                CSND_AcquireCapUnit
                0x00174f44                CSND_ReleaseCapUnit
                0x00174f78                CSND_Reset
                0x00174fa4                csndInit
                0x0017510c                csndExit
                0x001751a0                csndAddCmd
                0x00175260                csndWriteCmd
                0x001752a0                csndExecCmds
                0x0017533c                CSND_SetPlayStateR
                0x0017535c                CSND_SetPlayState
                0x0017537c                CSND_SetEncoding
                0x0017539c                CSND_SetBlock
                0x001753cc                CSND_SetLooping
                0x001753ec                CSND_SetBit7
                0x0017540c                CSND_SetInterp
                0x0017542c                CSND_SetDuty
                0x0017544c                CSND_SetTimer
                0x0017546c                CSND_SetVol
                0x00175494                CSND_SetAdpcmState
                0x001754d0                CSND_SetAdpcmReload
                0x001754f0                CSND_SetChnRegs
                0x00175530                CSND_SetChnRegsPSG
                0x00175560                CSND_SetChnRegsNoise
                0x00175588                CSND_CapEnable
                0x001755a8                CSND_CapSetRepeat
                0x001755d0                CSND_CapSetFormat
                0x001755f4                CSND_CapSetBit2
                0x00175618                CSND_CapSetTimer
                0x0017563c                CSND_CapSetBuffer
                0x00175668                CSND_SetCapRegs
                0x0017569c                CSND_SetDspFlags
                0x001756b8                CSND_UpdateInfo
                0x001756d4                csndPlaySound
                0x00175920                csndGetDspFlags
                0x00175978                csndGetChnInfo
                0x001759b8                csndGetCapInfo
                0x001759e0                csndGetState
                0x00175a60                csndIsPlaying
 .text          0x00175a88      0xd4c c:/devkitPro/libctru/lib\libctru.a(fs.o)
                0x00175a88                FS_makePath
                0x00175ab4                fsExit
                0x00175ad8                fsGetSessionHandle
                0x00175ae4                FSUSER_Initialize
                0x00175b58                fsInit
                0x00175bc4                FSUSER_OpenFile
                0x00175c70                FSUSER_OpenFileDirectly
                0x00175d3c                FSUSER_DeleteFile
                0x00175dc4                FSUSER_RenameFile
                0x00175e88                FSUSER_DeleteDirectory
                0x00175f10                FSUSER_DeleteDirectoryRecursively
                0x00175f98                FSUSER_CreateFile
                0x00176030                FSUSER_CreateDirectory
                0x001760bc                FSUSER_RenameDirectory
                0x00176180                FSUSER_OpenDirectory
                0x00176214                FSUSER_OpenArchive
                0x0017629c                FSUSER_CloseArchive
                0x001762f4                FSUSER_GetSdmcArchiveResource
                0x00176370                FSUSER_GetNandArchiveResource
                0x001763ec                FSUSER_IsSdmcDetected
                0x00176438                FSUSER_GetProductInfo
                0x001764b0                FSUSER_GetMediaType
                0x001764fc                FSUSER_IsSdmcWritable
                0x00176548                FSFILE_Close
                0x0017658c                FSFILE_Read
                0x001765e8                FSFILE_Write
                0x0017664c                FSFILE_GetSize
                0x0017668c                FSFILE_SetSize
                0x001766b8                FSFILE_GetAttributes
                0x001766f0                FSFILE_SetAttributes
                0x00176718                FSFILE_Flush
                0x0017673c                FSDIR_Read
                0x00176790                FSDIR_Close
 .text          0x001767d4      0x934 c:/devkitPro/libctru/lib\libctru.a(gsp.o)
                0x001768b8                gspInit
                0x001768cc                gspExit
                0x001768e4                gspInitEventHandler
                0x001769b0                gspExitEventHandler
                0x00176a08                gspWaitForEvent
                0x00176a60                GSPGPU_WriteHWRegs
                0x00176ad0                GSPGPU_WriteHWRegsWithMask
                0x00176b5c                GSPGPU_ReadHWRegs
                0x00176bcc                GSPGPU_SetBufferSwap
                0x00176c40                GSPGPU_FlushDataCache
                0x00176c94                GSPGPU_InvalidateDataCache
                0x00176ce8                GSPGPU_SetLcdForceBlack
                0x00176d24                GSPGPU_TriggerCmdReqQueue
                0x00176d58                GSPGPU_RegisterInterruptRelayQueue
                0x00176dc4                GSPGPU_UnregisterInterruptRelayQueue
                0x00176df8                GSPGPU_AcquireRight
                0x00176e48                GSPGPU_ReleaseRight
                0x00176e7c                GSPGPU_ImportDisplayCaptureInfo
                0x00176f00                GSPGPU_SaveVramSysArea
                0x00176f34                GSPGPU_RestoreVramSysArea
                0x00176f68                GSPGPU_SubmitGxCommand
                0x00177074                gspLcdInit
                0x00177088                gspLcdExit
                0x001770a0                GSPLCD_PowerOffBacklight
                0x001770d4                GSPLCD_PowerOnBacklight
 .text          0x00177108      0x264 c:/devkitPro/libctru/lib\libctru.a(gx.o)
                0x00177108                GX_RequestDma
                0x0017715c                GX_SetCommandList_Last
                0x001771c4                GX_SetMemoryFill
                0x00177238                GX_SetDisplayTransfer
                0x0017729c                GX_SetTextureCopy
                0x00177304                GX_SetCommandList_First
 .text          0x0017736c      0x754 c:/devkitPro/libctru/lib\libctru.a(hid.o)
                0x0017736c                hidExit
                0x0017743c                hidWaitForEvent
                0x00177494                hidCheckSectionUpdateTime
                0x001774d0                hidScanInput
                0x00177718                hidKeysHeld
                0x00177728                hidKeysDown
                0x00177738                hidKeysUp
                0x00177748                hidTouchRead
                0x00177760                hidCircleRead
                0x00177778                hidAccelRead
                0x00177798                hidGyroRead
                0x001777b8                HIDUSER_GetHandles
                0x00177848                hidInit
                0x0017799c                HIDUSER_EnableAccelerometer
                0x001779c8                HIDUSER_DisableAccelerometer
                0x001779f4                HIDUSER_EnableGyroscope
                0x00177a20                HIDUSER_DisableGyroscope
                0x00177a4c                HIDUSER_GetGyroscopeRawToDpsCoefficient
                0x00177a88                HIDUSER_GetSoundVolume
 .text          0x00177ac0      0x3c0 c:/devkitPro/libctru/lib\libctru.a(irrst.o)
                0x00177ac0                irrstWaitForEvent
                0x00177b0c                irrstCheckSectionUpdateTime
                0x00177b48                irrstScanInput
                0x00177bfc                irrstKeysHeld
                0x00177c14                irrstCstickRead
                0x00177c2c                IRRST_GetHandles
                0x00177c7c                IRRST_Initialize
                0x00177cb4                irrstInit
                0x00177db4                IRRST_Shutdown
                0x00177de0                irrstExit
 .text          0x00177e80      0x1bc c:/devkitPro/libctru/lib\libctru.a(ptm.o)
                0x00177e80                ptmInit
                0x00177e94                ptmExit
                0x00177ea4                ptmSysmInit
                0x00177eb8                ptmSysmExit
                0x00177ec8                PTMU_GetShellState
                0x00177f08                PTMU_GetBatteryLevel
                0x00177f48                PTMU_GetBatteryChargeState
                0x00177f88                PTMU_GetPedometerState
                0x00177fc8                PTMU_GetTotalStepCount
                0x00178008                PTMSYSM_ConfigureNew3DSCPU
 .text          0x0017803c       0x70 c:/devkitPro/libctru/lib\libctru.a(rbtree_find.o)
                0x0017803c                rbtree_find
 .text          0x001780ac       0x14 c:/devkitPro/libctru/lib\libctru.a(rbtree_init.o)
                0x001780ac                rbtree_init
 .text          0x001780c0      0x1f4 c:/devkitPro/libctru/lib\libctru.a(rbtree_insert.o)
                0x001782a4                rbtree_insert
                0x001782ac                rbtree_insert_multi
 .text          0x001782b4      0x340 c:/devkitPro/libctru/lib\libctru.a(rbtree_remove.o)
                0x001782b4                rbtree_remove
 .text          0x001785f4       0xac c:/devkitPro/libctru/lib\libctru.a(rbtree_rotate.o)
                0x001785f4                rbtree_rotate
 .text          0x001786a0       0xb8 c:/devkitPro/libctru/lib\libctru.a(utf8_to_utf16.o)
                0x001786a0                utf8_to_utf16
 .text          0x00178758       0xa4 c:/devkitPro/libctru/lib\libctru.a(allocateHeaps.o)
                0x00178758                __system_allocateHeaps
 .text          0x001787fc       0xf4 c:/devkitPro/libctru/lib\libctru.a(initArgv.o)
                0x001787fc                __system_initArgv
 .text          0x001788f0       0x4c c:/devkitPro/libctru/lib\libctru.a(initSystem.o)
                0x001788f0                __libctru_init
 *fill*         0x0017893c        0x4 
 .text          0x00178940      0x460 c:/devkitPro/libctru/lib\libctru.a(svc.o)
                0x00178940                svcControlMemory
                0x00178960                svcQueryMemory
                0x00178990                svcExitProcess
                0x00178998                svcCreateThread
                0x001789b8                svcExitThread
                0x001789c0                svcSleepThread
                0x001789c8                svcGetThreadPriority
                0x001789dc                svcSetThreadPriority
                0x001789e4                svcGetThreadAffinityMask
                0x001789ec                svcSetThreadAffinityMask
                0x001789f4                svcGetThreadIdealProcessor
                0x00178a08                svcSetThreadIdealProcessor
                0x00178a10                svcGetProcessorID
                0x00178a18                svcCreateMutex
                0x00178a2c                svcReleaseMutex
                0x00178a34                svcCreateSemaphore
                0x00178a48                svcReleaseSemaphore
                0x00178a5c                svcCreateEvent
                0x00178a70                svcSignalEvent
                0x00178a78                svcClearEvent
                0x00178a80                svcCreateTimer
                0x00178a94                svcSetTimer
                0x00178a9c                svcCancelTimer
                0x00178aa4                svcClearTimer
                0x00178aac                svcCreateMemoryBlock
                0x00178ac4                svcMapMemoryBlock
                0x00178acc                svcUnmapMemoryBlock
                0x00178ad4                svcCreateAddressArbiter
                0x00178ae8                svcArbitrateAddress
                0x00178b08                svcCloseHandle
                0x00178b10                svcWaitSynchronization
                0x00178b18                svcWaitSynchronizationN
                0x00178b40                svcDuplicateHandle
                0x00178b54                svcGetSystemTick
                0x00178b5c                svcGetSystemInfo
                0x00178b74                svcGetProcessInfo
                0x00178b8c                svcGetThreadInfo
                0x00178ba4                svcConnectToPort
                0x00178bb8                svcSendSyncRequest
                0x00178bc0                svcOpenProcess
                0x00178bd4                svcOpenThread
                0x00178be8                svcGetProcessId
                0x00178bfc                svcGetProcessIdOfThread
                0x00178c10                svcGetThreadId
                0x00178c24                svcBreak
                0x00178c2c                svcOutputDebugString
                0x00178c34                svcCreatePort
                0x00178c54                svcAcceptSession
                0x00178c6c                svcReplyAndReceive
                0x00178c84                svcInvalidateProcessDataCache
                0x00178c8c                svcFlushProcessDataCache
                0x00178c94                svcStartInterProcessDma
                0x00178cb4                svcStopDma
                0x00178cbc                svcGetDmaState
                0x00178cd0                svcDebugActiveProcess
                0x00178ce4                svcBreakDebugProcess
                0x00178cec                svcTerminateDebugProcess
                0x00178cf4                svcGetProcessDebugEvent
                0x00178cfc                svcContinueDebugEvent
                0x00178d04                svcGetProcessList
                0x00178d24                svcReadProcessMemory
                0x00178d2c                svcWriteProcessMemory
                0x00178d34                svcControlProcessMemory
                0x00178d4c                svcMapProcessMemory
                0x00178d54                svcUnmapProcessMemory
                0x00178d5c                svcTerminateProcess
                0x00178d64                svcBackdoor
                0x00178d6c                svcKernelSetState
                0x00178d74                svcQueryProcessMemory
 .text          0x00178da0       0x64 c:/devkitPro/libctru/lib\libctru.a(stack_adjust.o)
                0x00178da0                initSystem
                0x00178de4                __ctru_exit
 .text          0x00178e04      0x178 c:/devkitPro/libctru/lib\libctru.a(mappable.o)
                0x00178e2c                mappableAlloc
                0x00178f20                mappableFree
                0x00178f70                mappableSpaceFree
 .text          0x00178f7c      0x118 c:/devkitPro/libctru/lib\libctru.a(rbtree_iterator.o)
                0x00178f7c                rbtree_node_next
                0x00179008                rbtree_node_prev
 .text          0x00179094      0x138 c:/devkitPro/libctru/lib\libctru.a(decode_utf8.o)
                0x00179094                decode_utf8
 .text          0x001791cc       0x68 c:/devkitPro/libctru/lib\libctru.a(encode_utf16.o)
                0x001791cc                encode_utf16
 .text          0x00179234       0x1c c:/devkitPro/libctru/lib\libctru.a(appExit.o)
                0x00179234                __appExit
 .text          0x00179250       0x1c c:/devkitPro/libctru/lib\libctru.a(appInit.o)
                0x00179250                __appInit
 .text          0x0017926c       0x90 c:/devkitPro/libctru/lib\libctru.a(ctru_exit.o)
                0x0017926c                __libctru_exit
 .text          0x001792fc      0xffc c:/devkitPro/libctru/lib\libctru.a(sdmc_dev.o)
                0x0017a178                sdmcInit
                0x0017a2a8                sdmcExit
 .text          0x0017a2f8       0xe8 c:/devkitPro/libctru/lib\libctru.a(utf16_to_utf8.o)
                0x0017a2f8                utf16_to_utf8
 .text          0x0017a3e0       0x60 c:/devkitPro/libctru/lib\libctru.a(decode_utf16.o)
                0x0017a3e0                decode_utf16
 .text          0x0017a440      0x104 c:/devkitPro/libctru/lib\libctru.a(encode_utf8.o)
                0x0017a440                encode_utf8
 .text          0x0017a544        0x0 c:/devkitpro/devkitarm/bin/../lib/gcc/arm-none-eabi/4.9.2/../../../../arm-none-eabi/lib/armv6k/fpu\libm.a(lib_a-sf_cos.o)
 .text          0x0017a544        0x0 c:/devkitpro/devkitarm/bin/../lib/gcc/arm-none-eabi/4.9.2/../../../../arm-none-eabi/lib/armv6k/fpu\libm.a(lib_a-sf_sin.o)
 .text          0x0017a544        0x0 c:/devkitpro/devkitarm/bin/../lib/gcc/arm-none-eabi/4.9.2/../../../../arm-none-eabi/lib/armv6k/fpu\libm.a(lib_a-ef_rem_pio2.o)
 .text          0x0017a544        0x0 c:/devkitpro/devkitarm/bin/../lib/gcc/arm-none-eabi/4.9.2/../../../../arm-none-eabi/lib/armv6k/fpu\libm.a(lib_a-kf_cos.o)
 .text          0x0017a544        0x0 c:/devkitpro/devkitarm/bin/../lib/gcc/arm-none-eabi/4.9.2/../../../../arm-none-eabi/lib/armv6k/fpu\libm.a(lib_a-kf_rem_pio2.o)
 .text          0x0017a544        0x0 c:/devkitpro/devkitarm/bin/../lib/gcc/arm-none-eabi/4.9.2/../../../../arm-none-eabi/lib/armv6k/fpu\libm.a(lib_a-kf_sin.o)
 .text          0x0017a544        0x0 c:/devkitpro/devkitarm/bin/../lib/gcc/arm-none-eabi/4.9.2/../../../../arm-none-eabi/lib/armv6k/fpu\libm.a(lib_a-sf_fabs.o)
 .text          0x0017a544        0x0 c:/devkitpro/devkitarm/bin/../lib/gcc/arm-none-eabi/4.9.2/../../../../arm-none-eabi/lib/armv6k/fpu\libm.a(lib_a-sf_floor.o)
 .text          0x0017a544        0x0 c:/devkitpro/devkitarm/bin/../lib/gcc/arm-none-eabi/4.9.2/../../../../arm-none-eabi/lib/armv6k/fpu\libm.a(lib_a-sf_scalbn.o)
 .text          0x0017a544        0x0 c:/devkitpro/devkitarm/bin/../lib/gcc/arm-none-eabi/4.9.2/../../../../arm-none-eabi/lib/armv6k/fpu\libm.a(lib_a-sf_copysign.o)
 .text          0x0017a544      0x20c c:/devkitpro/devkitarm/bin/../lib/gcc/arm-none-eabi/4.9.2/armv6k/fpu\libgcc.a(_udivsi3.o)
                0x0017a544                __aeabi_uidiv
                0x0017a544                __udivsi3
                0x0017a730                __aeabi_uidivmod
 .text          0x0017a750      0x240 c:/devkitpro/devkitarm/bin/../lib/gcc/arm-none-eabi/4.9.2/armv6k/fpu\libgcc.a(_divsi3.o)
                0x0017a750                __divsi3
                0x0017a750                __aeabi_idiv
                0x0017a970                __aeabi_idivmod
 .text          0x0017a990        0x4 c:/devkitpro/devkitarm/bin/../lib/gcc/arm-none-eabi/4.9.2/armv6k/fpu\libgcc.a(_dvmd_tls.o)
                0x0017a990                __aeabi_idiv0
                0x0017a990                __aeabi_ldiv0
 .text          0x0017a994      0x250 c:/devkitpro/devkitarm/bin/../lib/gcc/arm-none-eabi/4.9.2/armv6k/fpu\libgcc.a(_arm_addsubsf3.o)
                0x0017a994                __aeabi_frsub
                0x0017a99c                __subsf3
                0x0017a99c                __aeabi_fsub
                0x0017a9a0                __aeabi_fadd
                0x0017a9a0                __addsf3
                0x0017ab30                __aeabi_ui2f
                0x0017ab30                __floatunsisf
                0x0017ab38                __aeabi_i2f
                0x0017ab38                __floatsisf
                0x0017ab58                __aeabi_ul2f
                0x0017ab58                __floatundisf
                0x0017ab68                __aeabi_l2f
                0x0017ab68                __floatdisf
 .text          0x0017abe4       0x44 c:/devkitpro/devkitarm/bin/../lib/gcc/arm-none-eabi/4.9.2/armv6k/fpu\libgcc.a(_popcountsi2.o)
                0x0017abe4                __popcountsi2
 .text          0x0017ac28        0x0 c:/devkitpro/devkitarm/bin/../lib/gcc/arm-none-eabi/4.9.2/../../../../arm-none-eabi/lib/armv6k/fpu\libg.a(lib_a-atol.o)
 .text          0x0017ac28        0x0 c:/devkitpro/devkitarm/bin/../lib/gcc/arm-none-eabi/4.9.2/../../../../arm-none-eabi/lib/armv6k/fpu\libg.a(lib_a-bsearch.o)
 .text          0x0017ac28        0x0 c:/devkitpro/devkitarm/bin/../lib/gcc/arm-none-eabi/4.9.2/../../../../arm-none-eabi/lib/armv6k/fpu\libg.a(lib_a-errno.o)
 .text          0x0017ac28        0x0 c:/devkitpro/devkitarm/bin/../lib/gcc/arm-none-eabi/4.9.2/../../../../arm-none-eabi/lib/armv6k/fpu\libg.a(lib_a-fclose.o)
 .text          0x0017ac28        0x0 c:/devkitpro/devkitarm/bin/../lib/gcc/arm-none-eabi/4.9.2/../../../../arm-none-eabi/lib/armv6k/fpu\libg.a(lib_a-fflush.o)
 .text          0x0017ac28        0x0 c:/devkitpro/devkitarm/bin/../lib/gcc/arm-none-eabi/4.9.2/../../../../arm-none-eabi/lib/armv6k/fpu\libg.a(lib_a-findfp.o)
 .text          0x0017ac28        0x0 c:/devkitpro/devkitarm/bin/../lib/gcc/arm-none-eabi/4.9.2/../../../../arm-none-eabi/lib/armv6k/fpu\libg.a(lib_a-fini.o)
 .text          0x0017ac28        0x0 c:/devkitpro/devkitarm/bin/../lib/gcc/arm-none-eabi/4.9.2/../../../../arm-none-eabi/lib/armv6k/fpu\libg.a(lib_a-fopen.o)
 .text          0x0017ac28        0x0 c:/devkitpro/devkitarm/bin/../lib/gcc/arm-none-eabi/4.9.2/../../../../arm-none-eabi/lib/armv6k/fpu\libg.a(lib_a-fread.o)
 .text          0x0017ac28        0x0 c:/devkitpro/devkitarm/bin/../lib/gcc/arm-none-eabi/4.9.2/../../../../arm-none-eabi/lib/armv6k/fpu\libg.a(lib_a-freer.o)
 .text          0x0017ac28        0x0 c:/devkitpro/devkitarm/bin/../lib/gcc/arm-none-eabi/4.9.2/../../../../arm-none-eabi/lib/armv6k/fpu\libg.a(lib_a-fseek.o)
 .text          0x0017ac28        0x0 c:/devkitpro/devkitarm/bin/../lib/gcc/arm-none-eabi/4.9.2/../../../../arm-none-eabi/lib/armv6k/fpu\libg.a(lib_a-fseeko.o)
 .text          0x0017ac28        0x0 c:/devkitpro/devkitarm/bin/../lib/gcc/arm-none-eabi/4.9.2/../../../../arm-none-eabi/lib/armv6k/fpu\libg.a(lib_a-ftell.o)
 .text          0x0017ac28        0x0 c:/devkitpro/devkitarm/bin/../lib/gcc/arm-none-eabi/4.9.2/../../../../arm-none-eabi/lib/armv6k/fpu\libg.a(lib_a-ftello.o)
 .text          0x0017ac28        0x0 c:/devkitpro/devkitarm/bin/../lib/gcc/arm-none-eabi/4.9.2/../../../../arm-none-eabi/lib/armv6k/fpu\libg.a(lib_a-fwalk.o)
 .text          0x0017ac28        0x0 c:/devkitpro/devkitarm/bin/../lib/gcc/arm-none-eabi/4.9.2/../../../../arm-none-eabi/lib/armv6k/fpu\libg.a(lib_a-impure.o)
 .text          0x0017ac28        0x0 c:/devkitpro/devkitarm/bin/../lib/gcc/arm-none-eabi/4.9.2/../../../../arm-none-eabi/lib/armv6k/fpu\libg.a(lib_a-init.o)
 .text          0x0017ac28        0x0 c:/devkitpro/devkitarm/bin/../lib/gcc/arm-none-eabi/4.9.2/../../../../arm-none-eabi/lib/armv6k/fpu\libg.a(lib_a-makebuf.o)
 .text          0x0017ac28        0x0 c:/devkitpro/devkitarm/bin/../lib/gcc/arm-none-eabi/4.9.2/../../../../arm-none-eabi/lib/armv6k/fpu\libg.a(lib_a-malloc.o)
 .text          0x0017ac28        0x0 c:/devkitpro/devkitarm/bin/../lib/gcc/arm-none-eabi/4.9.2/../../../../arm-none-eabi/lib/armv6k/fpu\libg.a(lib_a-mallocr.o)
 .text          0x0017ac28        0x0 c:/devkitpro/devkitarm/bin/../lib/gcc/arm-none-eabi/4.9.2/../../../../arm-none-eabi/lib/armv6k/fpu\libg.a(lib_a-memchr.o)
 .text          0x0017ac28        0x0 c:/devkitpro/devkitarm/bin/../lib/gcc/arm-none-eabi/4.9.2/../../../../arm-none-eabi/lib/armv6k/fpu\libg.a(lib_a-memcmp.o)
 .text          0x0017ac28        0x0 c:/devkitpro/devkitarm/bin/../lib/gcc/arm-none-eabi/4.9.2/../../../../arm-none-eabi/lib/armv6k/fpu\libg.a(lib_a-memcpy.o)
 .text          0x0017ac28        0x0 c:/devkitpro/devkitarm/bin/../lib/gcc/arm-none-eabi/4.9.2/../../../../arm-none-eabi/lib/armv6k/fpu\libg.a(lib_a-memmove.o)
 .text          0x0017ac28        0x0 c:/devkitpro/devkitarm/bin/../lib/gcc/arm-none-eabi/4.9.2/../../../../arm-none-eabi/lib/armv6k/fpu\libg.a(lib_a-memset.o)
 .text          0x0017ac28        0x0 c:/devkitpro/devkitarm/bin/../lib/gcc/arm-none-eabi/4.9.2/../../../../arm-none-eabi/lib/armv6k/fpu\libg.a(lib_a-mlock.o)
 .text          0x0017ac28        0x0 c:/devkitpro/devkitarm/bin/../lib/gcc/arm-none-eabi/4.9.2/../../../../arm-none-eabi/lib/armv6k/fpu\libg.a(lib_a-qsort.o)
 .text          0x0017ac28        0x0 c:/devkitpro/devkitarm/bin/../lib/gcc/arm-none-eabi/4.9.2/../../../../arm-none-eabi/lib/armv6k/fpu\libg.a(lib_a-realloc.o)
 .text          0x0017ac28        0x0 c:/devkitpro/devkitarm/bin/../lib/gcc/arm-none-eabi/4.9.2/../../../../arm-none-eabi/lib/armv6k/fpu\libg.a(lib_a-reallocr.o)
 .text          0x0017ac28        0x0 c:/devkitpro/devkitarm/bin/../lib/gcc/arm-none-eabi/4.9.2/../../../../arm-none-eabi/lib/armv6k/fpu\libg.a(lib_a-refill.o)
 .text          0x0017ac28       0x2c c:/devkitpro/devkitarm/bin/../lib/gcc/arm-none-eabi/4.9.2/../../../../arm-none-eabi/lib/armv6k/fpu\libg.a(lib_a-setjmp.o)
                0x0017ac28                setjmp
                0x0017ac3c                longjmp
 .text          0x0017ac54        0x0 c:/devkitpro/devkitarm/bin/../lib/gcc/arm-none-eabi/4.9.2/../../../../arm-none-eabi/lib/armv6k/fpu\libg.a(lib_a-snprintf.o)
 .text          0x0017ac54        0x0 c:/devkitpro/devkitarm/bin/../lib/gcc/arm-none-eabi/4.9.2/../../../../arm-none-eabi/lib/armv6k/fpu\libg.a(lib_a-sprintf.o)
 .text          0x0017ac54        0x0 c:/devkitpro/devkitarm/bin/../lib/gcc/arm-none-eabi/4.9.2/../../../../arm-none-eabi/lib/armv6k/fpu\libg.a(lib_a-stdio.o)
 .text          0x0017ac54        0x0 c:/devkitpro/devkitarm/bin/../lib/gcc/arm-none-eabi/4.9.2/../../../../arm-none-eabi/lib/armv6k/fpu\libg.a(lib_a-strchr.o)
 *fill*         0x0017ac54        0xc 
 .text          0x0017ac60      0x3a0 c:/devkitpro/devkitarm/bin/../lib/gcc/arm-none-eabi/4.9.2/../../../../arm-none-eabi/lib/armv6k/fpu\libg.a(lib_a-strcmp.o)
                0x0017ac68                strcmp
 .text          0x0017b000        0x0 c:/devkitpro/devkitarm/bin/../lib/gcc/arm-none-eabi/4.9.2/../../../../arm-none-eabi/lib/armv6k/fpu\libg.a(lib_a-strcpy.o)
 .text          0x0017b000        0x0 c:/devkitpro/devkitarm/bin/../lib/gcc/arm-none-eabi/4.9.2/../../../../arm-none-eabi/lib/armv6k/fpu\libg.a(lib_a-strlen.o)
 .text          0x0017b000        0x0 c:/devkitpro/devkitarm/bin/../lib/gcc/arm-none-eabi/4.9.2/../../../../arm-none-eabi/lib/armv6k/fpu\libg.a(lib_a-strncat.o)
 .text          0x0017b000        0x0 c:/devkitpro/devkitarm/bin/../lib/gcc/arm-none-eabi/4.9.2/../../../../arm-none-eabi/lib/armv6k/fpu\libg.a(lib_a-strncmp.o)
 .text          0x0017b000        0x0 c:/devkitpro/devkitarm/bin/../lib/gcc/arm-none-eabi/4.9.2/../../../../arm-none-eabi/lib/armv6k/fpu\libg.a(lib_a-strncpy.o)
 .text          0x0017b000        0x0 c:/devkitpro/devkitarm/bin/../lib/gcc/arm-none-eabi/4.9.2/../../../../arm-none-eabi/lib/armv6k/fpu\libg.a(lib_a-strrchr.o)
 .text          0x0017b000        0x0 c:/devkitpro/devkitarm/bin/../lib/gcc/arm-none-eabi/4.9.2/../../../../arm-none-eabi/lib/armv6k/fpu\libg.a(lib_a-strstr.o)
 .text          0x0017b000        0x0 c:/devkitpro/devkitarm/bin/../lib/gcc/arm-none-eabi/4.9.2/../../../../arm-none-eabi/lib/armv6k/fpu\libg.a(lib_a-strtok.o)
 .text          0x0017b000        0x0 c:/devkitpro/devkitarm/bin/../lib/gcc/arm-none-eabi/4.9.2/../../../../arm-none-eabi/lib/armv6k/fpu\libg.a(lib_a-strtok_r.o)
 .text          0x0017b000        0x0 c:/devkitpro/devkitarm/bin/../lib/gcc/arm-none-eabi/4.9.2/../../../../arm-none-eabi/lib/armv6k/fpu\libg.a(lib_a-strtol.o)
 .text          0x0017b000        0x0 c:/devkitpro/devkitarm/bin/../lib/gcc/arm-none-eabi/4.9.2/../../../../arm-none-eabi/lib/armv6k/fpu\libg.a(lib_a-svfprintf.o)
 .text          0x0017b000        0x0 c:/devkitpro/devkitarm/bin/../lib/gcc/arm-none-eabi/4.9.2/../../../../arm-none-eabi/lib/armv6k/fpu\libg.a(lib_a-vsnprintf.o)
 .text          0x0017b000        0x0 c:/devkitpro/devkitarm/bin/../lib/gcc/arm-none-eabi/4.9.2/../../../../arm-none-eabi/lib/armv6k/fpu\libg.a(lib_a-vswprintf.o)
 .text          0x0017b000        0x0 c:/devkitpro/devkitarm/bin/../lib/gcc/arm-none-eabi/4.9.2/../../../../arm-none-eabi/lib/armv6k/fpu\libg.a(lib_a-wcrtomb.o)
 .text          0x0017b000        0x0 c:/devkitpro/devkitarm/bin/../lib/gcc/arm-none-eabi/4.9.2/../../../../arm-none-eabi/lib/armv6k/fpu\libg.a(lib_a-wcsrtombs.o)
 .text          0x0017b000        0x0 c:/devkitpro/devkitarm/bin/../lib/gcc/arm-none-eabi/4.9.2/../../../../arm-none-eabi/lib/armv6k/fpu\libg.a(lib_a-wctomb_r.o)
 .text          0x0017b000        0x0 c:/devkitpro/devkitarm/bin/../lib/gcc/arm-none-eabi/4.9.2/../../../../arm-none-eabi/lib/armv6k/fpu\libg.a(lib_a-ctype_.o)
 .text          0x0017b000        0x0 c:/devkitpro/devkitarm/bin/../lib/gcc/arm-none-eabi/4.9.2/../../../../arm-none-eabi/lib/armv6k/fpu\libg.a(lib_a-dtoa.o)
 .text          0x0017b000        0x0 c:/devkitpro/devkitarm/bin/../lib/gcc/arm-none-eabi/4.9.2/../../../../arm-none-eabi/lib/armv6k/fpu\libg.a(lib_a-flags.o)
 .text          0x0017b000        0x0 c:/devkitpro/devkitarm/bin/../lib/gcc/arm-none-eabi/4.9.2/../../../../arm-none-eabi/lib/armv6k/fpu\libg.a(lib_a-locale.o)
 .text          0x0017b000        0x0 c:/devkitpro/devkitarm/bin/../lib/gcc/arm-none-eabi/4.9.2/../../../../arm-none-eabi/lib/armv6k/fpu\libg.a(lib_a-mbtowc_r.o)
 .text          0x0017b000        0x0 c:/devkitpro/devkitarm/bin/../lib/gcc/arm-none-eabi/4.9.2/../../../../arm-none-eabi/lib/armv6k/fpu\libg.a(lib_a-mprec.o)
 .text          0x0017b000        0x0 c:/devkitpro/devkitarm/bin/../lib/gcc/arm-none-eabi/4.9.2/../../../../arm-none-eabi/lib/armv6k/fpu\libg.a(lib_a-s_fpclassify.o)
 .text          0x0017b000        0x0 c:/devkitpro/devkitarm/bin/../lib/gcc/arm-none-eabi/4.9.2/../../../../arm-none-eabi/lib/armv6k/fpu\libg.a(lib_a-s_frexp.o)
 .text          0x0017b000        0x0 c:/devkitpro/devkitarm/bin/../lib/gcc/arm-none-eabi/4.9.2/../../../../arm-none-eabi/lib/armv6k/fpu\libg.a(lib_a-strcasecmp.o)
 .text          0x0017b000        0x0 c:/devkitpro/devkitarm/bin/../lib/gcc/arm-none-eabi/4.9.2/../../../../arm-none-eabi/lib/armv6k/fpu\libg.a(lib_a-strcat.o)
 .text          0x0017b000        0x0 c:/devkitpro/devkitarm/bin/../lib/gcc/arm-none-eabi/4.9.2/../../../../arm-none-eabi/lib/armv6k/fpu\libg.a(lib_a-strlcpy.o)
 .text          0x0017b000        0x0 c:/devkitpro/devkitarm/bin/../lib/gcc/arm-none-eabi/4.9.2/../../../../arm-none-eabi/lib/armv6k/fpu\libg.a(lib_a-strncasecmp.o)
 .text          0x0017b000        0x0 c:/devkitpro/devkitarm/bin/../lib/gcc/arm-none-eabi/4.9.2/../../../../arm-none-eabi/lib/armv6k/fpu\libg.a(lib_a-svfiprintf.o)
 .text          0x0017b000        0x0 c:/devkitpro/devkitarm/bin/../lib/gcc/arm-none-eabi/4.9.2/../../../../arm-none-eabi/lib/armv6k/fpu\libg.a(lib_a-svfwprintf.o)
 .text          0x0017b000        0x0 c:/devkitpro/devkitarm/bin/../lib/gcc/arm-none-eabi/4.9.2/../../../../arm-none-eabi/lib/armv6k/fpu\libg.a(lib_a-wcslen.o)
 .text          0x0017b000        0x0 c:/devkitpro/devkitarm/bin/../lib/gcc/arm-none-eabi/4.9.2/../../../../arm-none-eabi/lib/armv6k/fpu\libg.a(lib_a-wcsnrtombs.o)
 .text          0x0017b000        0x0 c:/devkitpro/devkitarm/bin/../lib/gcc/arm-none-eabi/4.9.2/../../../../arm-none-eabi/lib/armv6k/fpu\libg.a(lib_a-wmemchr.o)
 .text          0x0017b000        0x0 c:/devkitpro/devkitarm/bin/../lib/gcc/arm-none-eabi/4.9.2/../../../../arm-none-eabi/lib/armv6k/fpu\libg.a(lib_a-btowc.o)
 .text          0x0017b000        0x0 c:/devkitpro/devkitarm/bin/../lib/gcc/arm-none-eabi/4.9.2/../../../../arm-none-eabi/lib/armv6k/fpu\libg.a(lib_a-callocr.o)
 .text          0x0017b000        0x0 c:/devkitpro/devkitarm/bin/../lib/gcc/arm-none-eabi/4.9.2/../../../../arm-none-eabi/lib/armv6k/fpu\libg.a(lib_a-getenv_r.o)
 .text          0x0017b000        0x0 c:/devkitpro/devkitarm/bin/../lib/gcc/arm-none-eabi/4.9.2/../../../../arm-none-eabi/lib/armv6k/fpu\libg.a(lib_a-mbrlen.o)
 .text          0x0017b000        0x0 c:/devkitpro/devkitarm/bin/../lib/gcc/arm-none-eabi/4.9.2/../../../../arm-none-eabi/lib/armv6k/fpu\libg.a(lib_a-mbrtowc.o)
 .text          0x0017b000        0x0 c:/devkitpro/devkitarm/bin/../lib/gcc/arm-none-eabi/4.9.2/../../../../arm-none-eabi/lib/armv6k/fpu\libg.a(lib_a-mbsnrtowcs.o)
 .text          0x0017b000        0x0 c:/devkitpro/devkitarm/bin/../lib/gcc/arm-none-eabi/4.9.2/../../../../arm-none-eabi/lib/armv6k/fpu\libg.a(lib_a-environ.o)
 .text          0x0017b000        0x0 c:/devkitpro/devkitarm/bin/../lib/gcc/arm-none-eabi/4.9.2/../../../../arm-none-eabi/lib/armv6k/fpu\libg.a(lib_a-envlock.o)
 .text          0x0017b000      0x1a8 c:/devkitpro/devkitarm/bin/../lib/gcc/arm-none-eabi/4.9.2/../../../../arm-none-eabi/lib/armv6k/fpu\libsysbase.a(iosupport.o)
                0x0017b000                setDefaultDevice
                0x0017b018                FindDevice
                0x0017b0c4                RemoveDevice
                0x0017b0f0                AddDevice
                0x0017b184                GetDeviceOpTab
 .text          0x0017b1a8       0x7c c:/devkitpro/devkitarm/bin/../lib/gcc/arm-none-eabi/4.9.2/../../../../arm-none-eabi/lib/armv6k/fpu\libsysbase.a(close.o)
                0x0017b1a8                _close_r
 .text          0x0017b224       0x6c c:/devkitpro/devkitarm/bin/../lib/gcc/arm-none-eabi/4.9.2/../../../../arm-none-eabi/lib/armv6k/fpu\libsysbase.a(fstat.o)
                0x0017b224                _fstat_r
 .text          0x0017b290        0x8 c:/devkitpro/devkitarm/bin/../lib/gcc/arm-none-eabi/4.9.2/../../../../arm-none-eabi/lib/armv6k/fpu\libsysbase.a(isatty.o)
                0x0017b290                _isatty_r
 .text          0x0017b298       0x74 c:/devkitpro/devkitarm/bin/../lib/gcc/arm-none-eabi/4.9.2/../../../../arm-none-eabi/lib/armv6k/fpu\libsysbase.a(lseek.o)
                0x0017b298                _lseek_r
 .text          0x0017b30c       0xc8 c:/devkitpro/devkitarm/bin/../lib/gcc/arm-none-eabi/4.9.2/../../../../arm-none-eabi/lib/armv6k/fpu\libsysbase.a(open.o)
                0x0017b30c                _open_r
 .text          0x0017b3d4       0x74 c:/devkitpro/devkitarm/bin/../lib/gcc/arm-none-eabi/4.9.2/../../../../arm-none-eabi/lib/armv6k/fpu\libsysbase.a(read.o)
                0x0017b3d4                _read_r
 .text          0x0017b448       0x70 c:/devkitpro/devkitarm/bin/../lib/gcc/arm-none-eabi/4.9.2/../../../../arm-none-eabi/lib/armv6k/fpu\libsysbase.a(sbrk.o)
                0x0017b448                _sbrk_r
 .text          0x0017b4b8       0x74 c:/devkitpro/devkitarm/bin/../lib/gcc/arm-none-eabi/4.9.2/../../../../arm-none-eabi/lib/armv6k/fpu\libsysbase.a(write.o)
                0x0017b4b8                _write_r
 .text          0x0017b52c        0x0 c:/devkitpro/devkitarm/bin/../lib/gcc/arm-none-eabi/4.9.2/../../../../arm-none-eabi/lib/armv6k/fpu\libsysbase.a(malloc_vars.o)
 .text          0x0017b52c      0x3a4 c:/devkitpro/devkitarm/bin/../lib/gcc/arm-none-eabi/4.9.2/../../../../arm-none-eabi/lib/armv6k/fpu\libsysbase.a(chdir.o)
                0x0017b52c                _concatenate_path
                0x0017b6e8                chdir
                0x0017b830                getcwd
 .text          0x0017b8d0        0x8 c:/devkitpro/devkitarm/bin/../lib/gcc/arm-none-eabi/4.9.2/../../../../arm-none-eabi/lib/armv6k/fpu\libsysbase.a(flock.o)
                0x0017b8d0                __flockfile
                0x0017b8d4                __funlockfile
 .text          0x0017b8d8      0x108 c:/devkitpro/devkitarm/bin/../lib/gcc/arm-none-eabi/4.9.2/../../../../arm-none-eabi/lib/armv6k/fpu\libsysbase.a(syscall_support.o)
                0x0017b8d8                __libc_lock_init
                0x0017b8f0                __libc_lock_acquire
                0x0017b908                __libc_lock_try_acquire
                0x0017b92c                __libc_lock_release
                0x0017b944                __libc_lock_close
                0x0017b95c                __libc_lock_init_recursive
                0x0017b974                __libc_lock_acquire_recursive
                0x0017b98c                __libc_lock_try_acquire_recursive
                0x0017b9b0                __libc_lock_release_recursive
                0x0017b9c8                __libc_lock_close_recursive
 .text          0x0017b9e0      0x254 c:/devkitpro/devkitarm/bin/../lib/gcc/arm-none-eabi/4.9.2/../../../../arm-none-eabi/lib/armv6k/fpu\libsysbase.a(handle_manager.o)
                0x0017b9e0                __free_handle
                0x0017ba24                __release_handle
                0x0017ba50                __alloc_handle
                0x0017bab8                __get_handle
                0x0017bad4                dup
                0x0017bb60                dup2
 .text          0x0017bc34       0x28 c:/devkitpro/devkitarm/bin/../lib/gcc/arm-none-eabi/4.9.2/../../../../arm-none-eabi/lib/armv6k/fpu\libsysbase.a(getreent.o)
                0x0017bc34                __getreent
 .text          0x0017bc5c       0x3c c:/devkitpro/devkitarm/bin/../lib/gcc/arm-none-eabi/4.9.2/armv6k/fpu\libgcc.a(_aeabi_uldivmod.o)
                0x0017bc5c                __aeabi_uldivmod
 .text          0x0017bc98       0x78 c:/devkitpro/devkitarm/bin/../lib/gcc/arm-none-eabi/4.9.2/armv6k/fpu\libgcc.a(bpabi.o)
                0x0017bc98                __gnu_ldivmod_helper
                0x0017bcd4                __gnu_uldivmod_helper
 .text          0x0017bd10      0x180 c:/devkitpro/devkitarm/bin/../lib/gcc/arm-none-eabi/4.9.2/armv6k/fpu\libgcc.a(_divdi3.o)
                0x0017bd10                __divdi3
 .text          0x0017be90      0x124 c:/devkitpro/devkitarm/bin/../lib/gcc/arm-none-eabi/4.9.2/armv6k/fpu\libgcc.a(_udivdi3.o)
                0x0017be90                __udivdi3
 .text          0x0017bfb4        0x0 c:/devkitpro/devkitarm/bin/../lib/gcc/arm-none-eabi/4.9.2/../../../../arm-none-eabi/lib/armv6k/fpu\libg.a(lib_a-strnlen.o)
 .text          0x0017bfb4        0x0 c:/devkitpro/devkitarm/bin/../lib/gcc/arm-none-eabi/4.9.2/armv6k/fpu/crtend.o
 .text          0x0017bfb4        0x0 c:/devkitpro/devkitarm/bin/../lib/gcc/arm-none-eabi/4.9.2/armv6k/fpu/crtn.o
 *(.text.*)
 .text.startup  0x0017bfb4      0x3bc main.o
                0x0017bfb4                main
 .text.unlikely
                0x0017c370      0xa78 c:/devkitPro/portlibs/armv6k/lib\libfreetype.a(truetype.o)
 .text.unlikely
                0x0017cde8      0xa68 c:/devkitPro/portlibs/armv6k/lib\libfreetype.a(cff.o)
 .text.unlikely
                0x0017d850       0x34 c:/devkitPro/portlibs/armv6k/lib\libfreetype.a(type42.o)
 .text.unlikely
                0x0017d884     0x1044 c:/devkitPro/portlibs/armv6k/lib\libfreetype.a(autofit.o)
 .text.unlikely
                0x0017e8c8     0x17f4 c:/devkitPro/portlibs/armv6k/lib\libfreetype.a(raster.o)
 .text.unlikely
                0x001800bc       0x5c c:/devkitPro/portlibs/armv6k/lib\libfreetype.a(ftcache.o)
 .text.cosf     0x00180118       0xa8 c:/devkitpro/devkitarm/bin/../lib/gcc/arm-none-eabi/4.9.2/../../../../arm-none-eabi/lib/armv6k/fpu\libm.a(lib_a-sf_cos.o)
                0x00180118                cosf
 .text.sinf     0x001801c0       0xb0 c:/devkitpro/devkitarm/bin/../lib/gcc/arm-none-eabi/4.9.2/../../../../arm-none-eabi/lib/armv6k/fpu\libm.a(lib_a-sf_sin.o)
                0x001801c0                sinf
 .text.__ieee754_rem_pio2f
                0x00180270      0x2e0 c:/devkitpro/devkitarm/bin/../lib/gcc/arm-none-eabi/4.9.2/../../../../arm-none-eabi/lib/armv6k/fpu\libm.a(lib_a-ef_rem_pio2.o)
                0x00180270                __ieee754_rem_pio2f
 .text.__kernel_cosf
                0x00180550      0x124 c:/devkitpro/devkitarm/bin/../lib/gcc/arm-none-eabi/4.9.2/../../../../arm-none-eabi/lib/armv6k/fpu\libm.a(lib_a-kf_cos.o)
                0x00180550                __kernel_cosf
 .text.__kernel_rem_pio2f
                0x00180674      0x838 c:/devkitpro/devkitarm/bin/../lib/gcc/arm-none-eabi/4.9.2/../../../../arm-none-eabi/lib/armv6k/fpu\libm.a(lib_a-kf_rem_pio2.o)
                0x00180674                __kernel_rem_pio2f
 .text.__kernel_sinf
                0x00180eac       0xa0 c:/devkitpro/devkitarm/bin/../lib/gcc/arm-none-eabi/4.9.2/../../../../arm-none-eabi/lib/armv6k/fpu\libm.a(lib_a-kf_sin.o)
                0x00180eac                __kernel_sinf
 .text.fabsf    0x00180f4c       0x10 c:/devkitpro/devkitarm/bin/../lib/gcc/arm-none-eabi/4.9.2/../../../../arm-none-eabi/lib/armv6k/fpu\libm.a(lib_a-sf_fabs.o)
                0x00180f4c                fabsf
 .text.floorf   0x00180f5c       0xb8 c:/devkitpro/devkitarm/bin/../lib/gcc/arm-none-eabi/4.9.2/../../../../arm-none-eabi/lib/armv6k/fpu\libm.a(lib_a-sf_floor.o)
                0x00180f5c                floorf
 .text.scalbnf  0x00181014      0x118 c:/devkitpro/devkitarm/bin/../lib/gcc/arm-none-eabi/4.9.2/../../../../arm-none-eabi/lib/armv6k/fpu\libm.a(lib_a-sf_scalbn.o)
                0x00181014                scalbnf
 .text.copysignf
                0x0018112c       0x1c c:/devkitpro/devkitarm/bin/../lib/gcc/arm-none-eabi/4.9.2/../../../../arm-none-eabi/lib/armv6k/fpu\libm.a(lib_a-sf_copysign.o)
                0x0018112c                copysignf
 .text.atol     0x00181148        0xc c:/devkitpro/devkitarm/bin/../lib/gcc/arm-none-eabi/4.9.2/../../../../arm-none-eabi/lib/armv6k/fpu\libg.a(lib_a-atol.o)
                0x00181148                atol
 .text._atol_r  0x00181154        0xc c:/devkitpro/devkitarm/bin/../lib/gcc/arm-none-eabi/4.9.2/../../../../arm-none-eabi/lib/armv6k/fpu\libg.a(lib_a-atol.o)
                0x00181154                _atol_r
 .text.bsearch  0x00181160       0x78 c:/devkitpro/devkitarm/bin/../lib/gcc/arm-none-eabi/4.9.2/../../../../arm-none-eabi/lib/armv6k/fpu\libg.a(lib_a-bsearch.o)
                0x00181160                bsearch
 .text.__errno  0x001811d8        0xc c:/devkitpro/devkitarm/bin/../lib/gcc/arm-none-eabi/4.9.2/../../../../arm-none-eabi/lib/armv6k/fpu\libg.a(lib_a-errno.o)
                0x001811d8                __errno
 .text._fclose_r
                0x001811e4      0x118 c:/devkitpro/devkitarm/bin/../lib/gcc/arm-none-eabi/4.9.2/../../../../arm-none-eabi/lib/armv6k/fpu\libg.a(lib_a-fclose.o)
                0x001811e4                _fclose_r
 .text.fclose   0x001812fc       0x18 c:/devkitpro/devkitarm/bin/../lib/gcc/arm-none-eabi/4.9.2/../../../../arm-none-eabi/lib/armv6k/fpu\libg.a(lib_a-fclose.o)
                0x001812fc                fclose
 .text.__sflush_r
                0x00181314      0x238 c:/devkitpro/devkitarm/bin/../lib/gcc/arm-none-eabi/4.9.2/../../../../arm-none-eabi/lib/armv6k/fpu\libg.a(lib_a-fflush.o)
                0x00181314                __sflush_r
 .text._fflush_r
                0x0018154c       0x98 c:/devkitpro/devkitarm/bin/../lib/gcc/arm-none-eabi/4.9.2/../../../../arm-none-eabi/lib/armv6k/fpu\libg.a(lib_a-fflush.o)
                0x0018154c                _fflush_r
 .text.fflush   0x001815e4       0x38 c:/devkitpro/devkitarm/bin/../lib/gcc/arm-none-eabi/4.9.2/../../../../arm-none-eabi/lib/armv6k/fpu\libg.a(lib_a-fflush.o)
                0x001815e4                fflush
 .text._cleanup_r
                0x0018161c        0xc c:/devkitpro/devkitarm/bin/../lib/gcc/arm-none-eabi/4.9.2/../../../../arm-none-eabi/lib/armv6k/fpu\libg.a(lib_a-findfp.o)
                0x0018161c                _cleanup_r
 .text.__fp_lock
                0x00181628       0x1c c:/devkitpro/devkitarm/bin/../lib/gcc/arm-none-eabi/4.9.2/../../../../arm-none-eabi/lib/armv6k/fpu\libg.a(lib_a-findfp.o)
 .text.__fp_unlock
                0x00181644       0x1c c:/devkitpro/devkitarm/bin/../lib/gcc/arm-none-eabi/4.9.2/../../../../arm-none-eabi/lib/armv6k/fpu\libg.a(lib_a-findfp.o)
 .text.__sinit.part.1
                0x00181660      0x15c c:/devkitpro/devkitarm/bin/../lib/gcc/arm-none-eabi/4.9.2/../../../../arm-none-eabi/lib/armv6k/fpu\libg.a(lib_a-findfp.o)
 .text.__sfmoreglue
                0x001817bc       0x48 c:/devkitpro/devkitarm/bin/../lib/gcc/arm-none-eabi/4.9.2/../../../../arm-none-eabi/lib/armv6k/fpu\libg.a(lib_a-findfp.o)
                0x001817bc                __sfmoreglue
 .text.__sfp    0x00181804       0xe8 c:/devkitpro/devkitarm/bin/../lib/gcc/arm-none-eabi/4.9.2/../../../../arm-none-eabi/lib/armv6k/fpu\libg.a(lib_a-findfp.o)
                0x00181804                __sfp
 .text._cleanup
                0x001818ec       0x18 c:/devkitpro/devkitarm/bin/../lib/gcc/arm-none-eabi/4.9.2/../../../../arm-none-eabi/lib/armv6k/fpu\libg.a(lib_a-findfp.o)
                0x001818ec                _cleanup
 .text.__sinit  0x00181904       0x10 c:/devkitpro/devkitarm/bin/../lib/gcc/arm-none-eabi/4.9.2/../../../../arm-none-eabi/lib/armv6k/fpu\libg.a(lib_a-findfp.o)
                0x00181904                __sinit
 .text.__sfp_lock_acquire
                0x00181914        0x4 c:/devkitpro/devkitarm/bin/../lib/gcc/arm-none-eabi/4.9.2/../../../../arm-none-eabi/lib/armv6k/fpu\libg.a(lib_a-findfp.o)
                0x00181914                __sfp_lock_acquire
 .text.__sfp_lock_release
                0x00181918        0x4 c:/devkitpro/devkitarm/bin/../lib/gcc/arm-none-eabi/4.9.2/../../../../arm-none-eabi/lib/armv6k/fpu\libg.a(lib_a-findfp.o)
                0x00181918                __sfp_lock_release
 .text.__sinit_lock_acquire
                0x0018191c        0x4 c:/devkitpro/devkitarm/bin/../lib/gcc/arm-none-eabi/4.9.2/../../../../arm-none-eabi/lib/armv6k/fpu\libg.a(lib_a-findfp.o)
                0x0018191c                __sinit_lock_acquire
 .text.__sinit_lock_release
                0x00181920        0x4 c:/devkitpro/devkitarm/bin/../lib/gcc/arm-none-eabi/4.9.2/../../../../arm-none-eabi/lib/armv6k/fpu\libg.a(lib_a-findfp.o)
                0x00181920                __sinit_lock_release
 .text.__fp_lock_all
                0x00181924       0x18 c:/devkitpro/devkitarm/bin/../lib/gcc/arm-none-eabi/4.9.2/../../../../arm-none-eabi/lib/armv6k/fpu\libg.a(lib_a-findfp.o)
                0x00181924                __fp_lock_all
 .text.__fp_unlock_all
                0x0018193c       0x18 c:/devkitpro/devkitarm/bin/../lib/gcc/arm-none-eabi/4.9.2/../../../../arm-none-eabi/lib/armv6k/fpu\libg.a(lib_a-findfp.o)
                0x0018193c                __fp_unlock_all
 .text.__libc_fini_array
                0x00181954       0x40 c:/devkitpro/devkitarm/bin/../lib/gcc/arm-none-eabi/4.9.2/../../../../arm-none-eabi/lib/armv6k/fpu\libg.a(lib_a-fini.o)
                0x00181954                __libc_fini_array
 .text._fopen_r
                0x00181994      0x130 c:/devkitpro/devkitarm/bin/../lib/gcc/arm-none-eabi/4.9.2/../../../../arm-none-eabi/lib/armv6k/fpu\libg.a(lib_a-fopen.o)
                0x00181994                _fopen_r
 .text.fopen    0x00181ac4       0x20 c:/devkitpro/devkitarm/bin/../lib/gcc/arm-none-eabi/4.9.2/../../../../arm-none-eabi/lib/armv6k/fpu\libg.a(lib_a-fopen.o)
                0x00181ac4                fopen
 .text._fread_r
                0x00181ae4      0x2f0 c:/devkitpro/devkitarm/bin/../lib/gcc/arm-none-eabi/4.9.2/../../../../arm-none-eabi/lib/armv6k/fpu\libg.a(lib_a-fread.o)
                0x00181ae4                _fread_r
 .text.fread    0x00181dd4       0x38 c:/devkitpro/devkitarm/bin/../lib/gcc/arm-none-eabi/4.9.2/../../../../arm-none-eabi/lib/armv6k/fpu\libg.a(lib_a-fread.o)
                0x00181dd4                fread
 .text._malloc_trim_r
                0x00181e0c       0xf8 c:/devkitpro/devkitarm/bin/../lib/gcc/arm-none-eabi/4.9.2/../../../../arm-none-eabi/lib/armv6k/fpu\libg.a(lib_a-freer.o)
                0x00181e0c                _malloc_trim_r
 .text._free_r  0x00181f04      0x2b4 c:/devkitpro/devkitarm/bin/../lib/gcc/arm-none-eabi/4.9.2/../../../../arm-none-eabi/lib/armv6k/fpu\libg.a(lib_a-freer.o)
                0x00181f04                _free_r
 .text._fseek_r
                0x001821b8        0x4 c:/devkitpro/devkitarm/bin/../lib/gcc/arm-none-eabi/4.9.2/../../../../arm-none-eabi/lib/armv6k/fpu\libg.a(lib_a-fseek.o)
                0x001821b8                _fseek_r
 .text.fseek    0x001821bc       0x28 c:/devkitpro/devkitarm/bin/../lib/gcc/arm-none-eabi/4.9.2/../../../../arm-none-eabi/lib/armv6k/fpu\libg.a(lib_a-fseek.o)
                0x001821bc                fseek
 .text._fseeko_r
                0x001821e4      0x4f8 c:/devkitpro/devkitarm/bin/../lib/gcc/arm-none-eabi/4.9.2/../../../../arm-none-eabi/lib/armv6k/fpu\libg.a(lib_a-fseeko.o)
                0x001821e4                _fseeko_r
 .text.fseeko   0x001826dc       0x28 c:/devkitpro/devkitarm/bin/../lib/gcc/arm-none-eabi/4.9.2/../../../../arm-none-eabi/lib/armv6k/fpu\libg.a(lib_a-fseeko.o)
                0x001826dc                fseeko
 .text._ftell_r
                0x00182704        0x4 c:/devkitpro/devkitarm/bin/../lib/gcc/arm-none-eabi/4.9.2/../../../../arm-none-eabi/lib/armv6k/fpu\libg.a(lib_a-ftell.o)
                0x00182704                _ftell_r
 .text.ftell    0x00182708       0x18 c:/devkitpro/devkitarm/bin/../lib/gcc/arm-none-eabi/4.9.2/../../../../arm-none-eabi/lib/armv6k/fpu\libg.a(lib_a-ftell.o)
                0x00182708                ftell
 .text._ftello_r
                0x00182720      0x164 c:/devkitpro/devkitarm/bin/../lib/gcc/arm-none-eabi/4.9.2/../../../../arm-none-eabi/lib/armv6k/fpu\libg.a(lib_a-ftello.o)
                0x00182720                _ftello_r
 .text.ftello   0x00182884       0x18 c:/devkitpro/devkitarm/bin/../lib/gcc/arm-none-eabi/4.9.2/../../../../arm-none-eabi/lib/armv6k/fpu\libg.a(lib_a-ftello.o)
                0x00182884                ftello
 .text._fwalk   0x0018289c       0x78 c:/devkitpro/devkitarm/bin/../lib/gcc/arm-none-eabi/4.9.2/../../../../arm-none-eabi/lib/armv6k/fpu\libg.a(lib_a-fwalk.o)
                0x0018289c                _fwalk
 .text._fwalk_reent
                0x00182914       0x80 c:/devkitpro/devkitarm/bin/../lib/gcc/arm-none-eabi/4.9.2/../../../../arm-none-eabi/lib/armv6k/fpu\libg.a(lib_a-fwalk.o)
                0x00182914                _fwalk_reent
 .text.__libc_init_array
                0x00182994       0x78 c:/devkitpro/devkitarm/bin/../lib/gcc/arm-none-eabi/4.9.2/../../../../arm-none-eabi/lib/armv6k/fpu\libg.a(lib_a-init.o)
                0x00182994                __libc_init_array
 .text.__smakebuf_r
                0x00182a0c      0x160 c:/devkitpro/devkitarm/bin/../lib/gcc/arm-none-eabi/4.9.2/../../../../arm-none-eabi/lib/armv6k/fpu\libg.a(lib_a-makebuf.o)
                0x00182a0c                __smakebuf_r
 .text.malloc   0x00182b6c       0x18 c:/devkitpro/devkitarm/bin/../lib/gcc/arm-none-eabi/4.9.2/../../../../arm-none-eabi/lib/armv6k/fpu\libg.a(lib_a-malloc.o)
                0x00182b6c                malloc
 .text.free     0x00182b84       0x18 c:/devkitpro/devkitarm/bin/../lib/gcc/arm-none-eabi/4.9.2/../../../../arm-none-eabi/lib/armv6k/fpu\libg.a(lib_a-malloc.o)
                0x00182b84                free
 .text._malloc_r
                0x00182b9c      0x740 c:/devkitpro/devkitarm/bin/../lib/gcc/arm-none-eabi/4.9.2/../../../../arm-none-eabi/lib/armv6k/fpu\libg.a(lib_a-mallocr.o)
                0x00182b9c                _malloc_r
 .text.memchr   0x001832dc      0x120 c:/devkitpro/devkitarm/bin/../lib/gcc/arm-none-eabi/4.9.2/../../../../arm-none-eabi/lib/armv6k/fpu\libg.a(lib_a-memchr.o)
                0x001832dc                memchr
 .text.memcmp   0x001833fc       0xa8 c:/devkitpro/devkitarm/bin/../lib/gcc/arm-none-eabi/4.9.2/../../../../arm-none-eabi/lib/armv6k/fpu\libg.a(lib_a-memcmp.o)
                0x001833fc                memcmp
 .text.memcpy   0x001834a4       0xf4 c:/devkitpro/devkitarm/bin/../lib/gcc/arm-none-eabi/4.9.2/../../../../arm-none-eabi/lib/armv6k/fpu\libg.a(lib_a-memcpy.o)
                0x001834a4                memcpy
 .text.memmove  0x00183598      0x12c c:/devkitpro/devkitarm/bin/../lib/gcc/arm-none-eabi/4.9.2/../../../../arm-none-eabi/lib/armv6k/fpu\libg.a(lib_a-memmove.o)
                0x00183598                memmove
 .text.memset   0x001836c4       0xf0 c:/devkitpro/devkitarm/bin/../lib/gcc/arm-none-eabi/4.9.2/../../../../arm-none-eabi/lib/armv6k/fpu\libg.a(lib_a-memset.o)
                0x001836c4                memset
 .text.__malloc_lock
                0x001837b4        0x4 c:/devkitpro/devkitarm/bin/../lib/gcc/arm-none-eabi/4.9.2/../../../../arm-none-eabi/lib/armv6k/fpu\libg.a(lib_a-mlock.o)
                0x001837b4                __malloc_lock
 .text.__malloc_unlock
                0x001837b8        0x4 c:/devkitpro/devkitarm/bin/../lib/gcc/arm-none-eabi/4.9.2/../../../../arm-none-eabi/lib/armv6k/fpu\libg.a(lib_a-mlock.o)
                0x001837b8                __malloc_unlock
 .text.qsort    0x001837bc      0x8a4 c:/devkitpro/devkitarm/bin/../lib/gcc/arm-none-eabi/4.9.2/../../../../arm-none-eabi/lib/armv6k/fpu\libg.a(lib_a-qsort.o)
                0x001837bc                qsort
 .text.realloc  0x00184060       0x20 c:/devkitpro/devkitarm/bin/../lib/gcc/arm-none-eabi/4.9.2/../../../../arm-none-eabi/lib/armv6k/fpu\libg.a(lib_a-realloc.o)
                0x00184060                realloc
 .text._realloc_r
                0x00184080      0x564 c:/devkitpro/devkitarm/bin/../lib/gcc/arm-none-eabi/4.9.2/../../../../arm-none-eabi/lib/armv6k/fpu\libg.a(lib_a-reallocr.o)
                0x00184080                _realloc_r
 .text.lflush   0x001845e4       0x1c c:/devkitpro/devkitarm/bin/../lib/gcc/arm-none-eabi/4.9.2/../../../../arm-none-eabi/lib/armv6k/fpu\libg.a(lib_a-refill.o)
 .text.__srefill_r
                0x00184600      0x1d8 c:/devkitpro/devkitarm/bin/../lib/gcc/arm-none-eabi/4.9.2/../../../../arm-none-eabi/lib/armv6k/fpu\libg.a(lib_a-refill.o)
                0x00184600                __srefill_r
 .text._snprintf_r
                0x001847d8       0xd8 c:/devkitpro/devkitarm/bin/../lib/gcc/arm-none-eabi/4.9.2/../../../../arm-none-eabi/lib/armv6k/fpu\libg.a(lib_a-snprintf.o)
                0x001847d8                _snprintf_r
 .text.snprintf
                0x001848b0       0xe0 c:/devkitpro/devkitarm/bin/../lib/gcc/arm-none-eabi/4.9.2/../../../../arm-none-eabi/lib/armv6k/fpu\libg.a(lib_a-snprintf.o)
                0x001848b0                snprintf
 .text._sprintf_r
                0x00184990       0x68 c:/devkitpro/devkitarm/bin/../lib/gcc/arm-none-eabi/4.9.2/../../../../arm-none-eabi/lib/armv6k/fpu\libg.a(lib_a-sprintf.o)
                0x00184990                _sprintf_r
 .text.sprintf  0x001849f8       0x68 c:/devkitpro/devkitarm/bin/../lib/gcc/arm-none-eabi/4.9.2/../../../../arm-none-eabi/lib/armv6k/fpu\libg.a(lib_a-sprintf.o)
                0x001849f8                sprintf
 .text.__sread  0x00184a60       0x30 c:/devkitpro/devkitarm/bin/../lib/gcc/arm-none-eabi/4.9.2/../../../../arm-none-eabi/lib/armv6k/fpu\libg.a(lib_a-stdio.o)
                0x00184a60                __sread
 .text.__seofread
                0x00184a90        0x8 c:/devkitpro/devkitarm/bin/../lib/gcc/arm-none-eabi/4.9.2/../../../../arm-none-eabi/lib/armv6k/fpu\libg.a(lib_a-stdio.o)
                0x00184a90                __seofread
 .text.__swrite
                0x00184a98       0x54 c:/devkitpro/devkitarm/bin/../lib/gcc/arm-none-eabi/4.9.2/../../../../arm-none-eabi/lib/armv6k/fpu\libg.a(lib_a-stdio.o)
                0x00184a98                __swrite
 .text.__sseek  0x00184aec       0x2c c:/devkitpro/devkitarm/bin/../lib/gcc/arm-none-eabi/4.9.2/../../../../arm-none-eabi/lib/armv6k/fpu\libg.a(lib_a-stdio.o)
                0x00184aec                __sseek
 .text.__sclose
                0x00184b18        0x8 c:/devkitpro/devkitarm/bin/../lib/gcc/arm-none-eabi/4.9.2/../../../../arm-none-eabi/lib/armv6k/fpu\libg.a(lib_a-stdio.o)
                0x00184b18                __sclose
 .text.strchr   0x00184b20      0x16c c:/devkitpro/devkitarm/bin/../lib/gcc/arm-none-eabi/4.9.2/../../../../arm-none-eabi/lib/armv6k/fpu\libg.a(lib_a-strchr.o)
                0x00184b20                strchr
 .text.strcpy   0x00184c8c       0xf0 c:/devkitpro/devkitarm/bin/../lib/gcc/arm-none-eabi/4.9.2/../../../../arm-none-eabi/lib/armv6k/fpu\libg.a(lib_a-strcpy.o)
                0x00184c8c                strcpy
 .text.strlen   0x00184d7c       0x5c c:/devkitpro/devkitarm/bin/../lib/gcc/arm-none-eabi/4.9.2/../../../../arm-none-eabi/lib/armv6k/fpu\libg.a(lib_a-strlen.o)
                0x00184d7c                strlen
 .text.strncat  0x00184dd8       0xa4 c:/devkitpro/devkitarm/bin/../lib/gcc/arm-none-eabi/4.9.2/../../../../arm-none-eabi/lib/armv6k/fpu\libg.a(lib_a-strncat.o)
                0x00184dd8                strncat
 .text.strncmp  0x00184e7c      0x110 c:/devkitpro/devkitarm/bin/../lib/gcc/arm-none-eabi/4.9.2/../../../../arm-none-eabi/lib/armv6k/fpu\libg.a(lib_a-strncmp.o)
                0x00184e7c                strncmp
 .text.strncpy  0x00184f8c       0xe0 c:/devkitpro/devkitarm/bin/../lib/gcc/arm-none-eabi/4.9.2/../../../../arm-none-eabi/lib/armv6k/fpu\libg.a(lib_a-strncpy.o)
                0x00184f8c                strncpy
 .text.strrchr  0x0018506c       0x44 c:/devkitpro/devkitarm/bin/../lib/gcc/arm-none-eabi/4.9.2/../../../../arm-none-eabi/lib/armv6k/fpu\libg.a(lib_a-strrchr.o)
                0x0018506c                strrchr
 .text.critical_factorization
                0x001850b0      0x110 c:/devkitpro/devkitarm/bin/../lib/gcc/arm-none-eabi/4.9.2/../../../../arm-none-eabi/lib/armv6k/fpu\libg.a(lib_a-strstr.o)
 .text.two_way_long_needle
                0x001851c0      0x398 c:/devkitpro/devkitarm/bin/../lib/gcc/arm-none-eabi/4.9.2/../../../../arm-none-eabi/lib/armv6k/fpu\libg.a(lib_a-strstr.o)
 .text.strstr   0x00185558      0x370 c:/devkitpro/devkitarm/bin/../lib/gcc/arm-none-eabi/4.9.2/../../../../arm-none-eabi/lib/armv6k/fpu\libg.a(lib_a-strstr.o)
                0x00185558                strstr
 .text.strtok   0x001858c8       0x28 c:/devkitpro/devkitarm/bin/../lib/gcc/arm-none-eabi/4.9.2/../../../../arm-none-eabi/lib/armv6k/fpu\libg.a(lib_a-strtok.o)
                0x001858c8                strtok
 .text.__strtok_r
                0x001858f0       0xc0 c:/devkitpro/devkitarm/bin/../lib/gcc/arm-none-eabi/4.9.2/../../../../arm-none-eabi/lib/armv6k/fpu\libg.a(lib_a-strtok_r.o)
                0x001858f0                __strtok_r
 .text.strtok_r
                0x001859b0        0x8 c:/devkitpro/devkitarm/bin/../lib/gcc/arm-none-eabi/4.9.2/../../../../arm-none-eabi/lib/armv6k/fpu\libg.a(lib_a-strtok_r.o)
                0x001859b0                strtok_r
 .text._strtol_r
                0x001859b8      0x1dc c:/devkitpro/devkitarm/bin/../lib/gcc/arm-none-eabi/4.9.2/../../../../arm-none-eabi/lib/armv6k/fpu\libg.a(lib_a-strtol.o)
                0x001859b8                _strtol_r
 .text.strtol   0x00185b94       0x28 c:/devkitpro/devkitarm/bin/../lib/gcc/arm-none-eabi/4.9.2/../../../../arm-none-eabi/lib/armv6k/fpu\libg.a(lib_a-strtol.o)
                0x00185b94                strtol
 .text.get_arg  0x00185bbc      0x860 c:/devkitpro/devkitarm/bin/../lib/gcc/arm-none-eabi/4.9.2/../../../../arm-none-eabi/lib/armv6k/fpu\libg.a(lib_a-svfprintf.o)
 *fill*         0x0018641c        0x4 
 .text._svfprintf_r
                0x00186420     0x4320 c:/devkitpro/devkitarm/bin/../lib/gcc/arm-none-eabi/4.9.2/../../../../arm-none-eabi/lib/armv6k/fpu\libg.a(lib_a-svfprintf.o)
                0x00186420                _svfprintf_r
 .text._vsnprintf_r
                0x0018a740       0xb0 c:/devkitpro/devkitarm/bin/../lib/gcc/arm-none-eabi/4.9.2/../../../../arm-none-eabi/lib/armv6k/fpu\libg.a(lib_a-vsnprintf.o)
                0x0018a740                _vsnprintf_r
 .text.vsnprintf
                0x0018a7f0       0x38 c:/devkitpro/devkitarm/bin/../lib/gcc/arm-none-eabi/4.9.2/../../../../arm-none-eabi/lib/armv6k/fpu\libg.a(lib_a-vsnprintf.o)
                0x0018a7f0                vsnprintf
 .text._vswprintf_r
                0x0018a828       0xa4 c:/devkitpro/devkitarm/bin/../lib/gcc/arm-none-eabi/4.9.2/../../../../arm-none-eabi/lib/armv6k/fpu\libg.a(lib_a-vswprintf.o)
                0x0018a828                _vswprintf_r
 .text.vswprintf
                0x0018a8cc       0x38 c:/devkitpro/devkitarm/bin/../lib/gcc/arm-none-eabi/4.9.2/../../../../arm-none-eabi/lib/armv6k/fpu\libg.a(lib_a-vswprintf.o)
                0x0018a8cc                vswprintf
 .text._wcrtomb_r
                0x0018a904       0x8c c:/devkitpro/devkitarm/bin/../lib/gcc/arm-none-eabi/4.9.2/../../../../arm-none-eabi/lib/armv6k/fpu\libg.a(lib_a-wcrtomb.o)
                0x0018a904                _wcrtomb_r
 .text.wcrtomb  0x0018a990       0x94 c:/devkitpro/devkitarm/bin/../lib/gcc/arm-none-eabi/4.9.2/../../../../arm-none-eabi/lib/armv6k/fpu\libg.a(lib_a-wcrtomb.o)
                0x0018a990                wcrtomb
 .text._wcsrtombs_r
                0x0018aa24       0x20 c:/devkitpro/devkitarm/bin/../lib/gcc/arm-none-eabi/4.9.2/../../../../arm-none-eabi/lib/armv6k/fpu\libg.a(lib_a-wcsrtombs.o)
                0x0018aa24                _wcsrtombs_r
 .text.wcsrtombs
                0x0018aa44       0x3c c:/devkitpro/devkitarm/bin/../lib/gcc/arm-none-eabi/4.9.2/../../../../arm-none-eabi/lib/armv6k/fpu\libg.a(lib_a-wcsrtombs.o)
                0x0018aa44                wcsrtombs
 .text.__utf8_wctomb
                0x0018aa80      0x114 c:/devkitpro/devkitarm/bin/../lib/gcc/arm-none-eabi/4.9.2/../../../../arm-none-eabi/lib/armv6k/fpu\libg.a(lib_a-wctomb_r.o)
                0x0018aa80                __utf8_wctomb
 .text._wctomb_r
                0x0018ab94       0x48 c:/devkitpro/devkitarm/bin/../lib/gcc/arm-none-eabi/4.9.2/../../../../arm-none-eabi/lib/armv6k/fpu\libg.a(lib_a-wctomb_r.o)
                0x0018ab94                _wctomb_r
 .text.__ascii_wctomb
                0x0018abdc       0x28 c:/devkitpro/devkitarm/bin/../lib/gcc/arm-none-eabi/4.9.2/../../../../arm-none-eabi/lib/armv6k/fpu\libg.a(lib_a-wctomb_r.o)
                0x0018abdc                __ascii_wctomb
 .text.__sjis_wctomb
                0x0018ac04       0x84 c:/devkitpro/devkitarm/bin/../lib/gcc/arm-none-eabi/4.9.2/../../../../arm-none-eabi/lib/armv6k/fpu\libg.a(lib_a-wctomb_r.o)
                0x0018ac04                __sjis_wctomb
 .text.__eucjp_wctomb
                0x0018ac88       0xc8 c:/devkitpro/devkitarm/bin/../lib/gcc/arm-none-eabi/4.9.2/../../../../arm-none-eabi/lib/armv6k/fpu\libg.a(lib_a-wctomb_r.o)
                0x0018ac88                __eucjp_wctomb
 .text.__jis_wctomb
                0x0018ad50       0xd4 c:/devkitpro/devkitarm/bin/../lib/gcc/arm-none-eabi/4.9.2/../../../../arm-none-eabi/lib/armv6k/fpu\libg.a(lib_a-wctomb_r.o)
                0x0018ad50                __jis_wctomb
 .text.__set_ctype
                0x0018ae24       0x18 c:/devkitpro/devkitarm/bin/../lib/gcc/arm-none-eabi/4.9.2/../../../../arm-none-eabi/lib/armv6k/fpu\libg.a(lib_a-ctype_.o)
                0x0018ae24                __set_ctype
 .text.quorem   0x0018ae3c      0x1c0 c:/devkitpro/devkitarm/bin/../lib/gcc/arm-none-eabi/4.9.2/../../../../arm-none-eabi/lib/armv6k/fpu\libg.a(lib_a-dtoa.o)
 *fill*         0x0018affc        0x4 
 .text._dtoa_r  0x0018b000     0x12e0 c:/devkitpro/devkitarm/bin/../lib/gcc/arm-none-eabi/4.9.2/../../../../arm-none-eabi/lib/armv6k/fpu\libg.a(lib_a-dtoa.o)
                0x0018b000                _dtoa_r
 .text.__sflags
                0x0018c2e0       0xb0 c:/devkitpro/devkitarm/bin/../lib/gcc/arm-none-eabi/4.9.2/../../../../arm-none-eabi/lib/armv6k/fpu\libg.a(lib_a-flags.o)
                0x0018c2e0                __sflags
 .text.__get_locale_env
                0x0018c390       0x8c c:/devkitpro/devkitarm/bin/../lib/gcc/arm-none-eabi/4.9.2/../../../../arm-none-eabi/lib/armv6k/fpu\libg.a(lib_a-locale.o)
 .text.loadlocale
                0x0018c41c      0x8a4 c:/devkitpro/devkitarm/bin/../lib/gcc/arm-none-eabi/4.9.2/../../../../arm-none-eabi/lib/armv6k/fpu\libg.a(lib_a-locale.o)
 .text.currentlocale
                0x0018ccc0       0x88 c:/devkitpro/devkitarm/bin/../lib/gcc/arm-none-eabi/4.9.2/../../../../arm-none-eabi/lib/armv6k/fpu\libg.a(lib_a-locale.o)
 .text._setlocale_r
                0x0018cd48      0x300 c:/devkitpro/devkitarm/bin/../lib/gcc/arm-none-eabi/4.9.2/../../../../arm-none-eabi/lib/armv6k/fpu\libg.a(lib_a-locale.o)
                0x0018cd48                _setlocale_r
 .text.__locale_charset
                0x0018d048        0xc c:/devkitpro/devkitarm/bin/../lib/gcc/arm-none-eabi/4.9.2/../../../../arm-none-eabi/lib/armv6k/fpu\libg.a(lib_a-locale.o)
                0x0018d048                __locale_charset
 .text.__locale_mb_cur_max
                0x0018d054       0x10 c:/devkitpro/devkitarm/bin/../lib/gcc/arm-none-eabi/4.9.2/../../../../arm-none-eabi/lib/armv6k/fpu\libg.a(lib_a-locale.o)
                0x0018d054                __locale_mb_cur_max
 .text.__locale_msgcharset
                0x0018d064        0xc c:/devkitpro/devkitarm/bin/../lib/gcc/arm-none-eabi/4.9.2/../../../../arm-none-eabi/lib/armv6k/fpu\libg.a(lib_a-locale.o)
                0x0018d064                __locale_msgcharset
 .text.__locale_cjk_lang
                0x0018d070       0x10 c:/devkitpro/devkitarm/bin/../lib/gcc/arm-none-eabi/4.9.2/../../../../arm-none-eabi/lib/armv6k/fpu\libg.a(lib_a-locale.o)
                0x0018d070                __locale_cjk_lang
 .text._localeconv_r
                0x0018d080        0xc c:/devkitpro/devkitarm/bin/../lib/gcc/arm-none-eabi/4.9.2/../../../../arm-none-eabi/lib/armv6k/fpu\libg.a(lib_a-locale.o)
                0x0018d080                _localeconv_r
 .text.setlocale
                0x0018d08c       0x20 c:/devkitpro/devkitarm/bin/../lib/gcc/arm-none-eabi/4.9.2/../../../../arm-none-eabi/lib/armv6k/fpu\libg.a(lib_a-locale.o)
                0x0018d08c                setlocale
 .text.localeconv
                0x0018d0ac       0x14 c:/devkitpro/devkitarm/bin/../lib/gcc/arm-none-eabi/4.9.2/../../../../arm-none-eabi/lib/armv6k/fpu\libg.a(lib_a-locale.o)
                0x0018d0ac                localeconv
 .text.__utf8_mbtowc
                0x0018d0c0      0x2fc c:/devkitpro/devkitarm/bin/../lib/gcc/arm-none-eabi/4.9.2/../../../../arm-none-eabi/lib/armv6k/fpu\libg.a(lib_a-mbtowc_r.o)
                0x0018d0c0                __utf8_mbtowc
 .text._mbtowc_r
                0x0018d3bc       0x4c c:/devkitpro/devkitarm/bin/../lib/gcc/arm-none-eabi/4.9.2/../../../../arm-none-eabi/lib/armv6k/fpu\libg.a(lib_a-mbtowc_r.o)
                0x0018d3bc                _mbtowc_r
 .text.__ascii_mbtowc
                0x0018d408       0x4c c:/devkitpro/devkitarm/bin/../lib/gcc/arm-none-eabi/4.9.2/../../../../arm-none-eabi/lib/armv6k/fpu\libg.a(lib_a-mbtowc_r.o)
                0x0018d408                __ascii_mbtowc
 .text.__sjis_mbtowc
                0x0018d454       0xd4 c:/devkitpro/devkitarm/bin/../lib/gcc/arm-none-eabi/4.9.2/../../../../arm-none-eabi/lib/armv6k/fpu\libg.a(lib_a-mbtowc_r.o)
                0x0018d454                __sjis_mbtowc
 .text.__eucjp_mbtowc
                0x0018d528      0x140 c:/devkitpro/devkitarm/bin/../lib/gcc/arm-none-eabi/4.9.2/../../../../arm-none-eabi/lib/armv6k/fpu\libg.a(lib_a-mbtowc_r.o)
                0x0018d528                __eucjp_mbtowc
 .text.__jis_mbtowc
                0x0018d668      0x1a8 c:/devkitpro/devkitarm/bin/../lib/gcc/arm-none-eabi/4.9.2/../../../../arm-none-eabi/lib/armv6k/fpu\libg.a(lib_a-mbtowc_r.o)
                0x0018d668                __jis_mbtowc
 .text._Balloc  0x0018d810       0x8c c:/devkitpro/devkitarm/bin/../lib/gcc/arm-none-eabi/4.9.2/../../../../arm-none-eabi/lib/armv6k/fpu\libg.a(lib_a-mprec.o)
                0x0018d810                _Balloc
 .text._Bfree   0x0018d89c       0x1c c:/devkitpro/devkitarm/bin/../lib/gcc/arm-none-eabi/4.9.2/../../../../arm-none-eabi/lib/armv6k/fpu\libg.a(lib_a-mprec.o)
                0x0018d89c                _Bfree
 .text.__multadd
                0x0018d8b8       0xd0 c:/devkitpro/devkitarm/bin/../lib/gcc/arm-none-eabi/4.9.2/../../../../arm-none-eabi/lib/armv6k/fpu\libg.a(lib_a-mprec.o)
                0x0018d8b8                __multadd
 .text.__s2b    0x0018d988       0xe4 c:/devkitpro/devkitarm/bin/../lib/gcc/arm-none-eabi/4.9.2/../../../../arm-none-eabi/lib/armv6k/fpu\libg.a(lib_a-mprec.o)
                0x0018d988                __s2b
 .text.__hi0bits
                0x0018da6c       0x5c c:/devkitpro/devkitarm/bin/../lib/gcc/arm-none-eabi/4.9.2/../../../../arm-none-eabi/lib/armv6k/fpu\libg.a(lib_a-mprec.o)
                0x0018da6c                __hi0bits
 .text.__lo0bits
                0x0018dac8       0x98 c:/devkitpro/devkitarm/bin/../lib/gcc/arm-none-eabi/4.9.2/../../../../arm-none-eabi/lib/armv6k/fpu\libg.a(lib_a-mprec.o)
                0x0018dac8                __lo0bits
 .text.__i2b    0x0018db60       0x20 c:/devkitpro/devkitarm/bin/../lib/gcc/arm-none-eabi/4.9.2/../../../../arm-none-eabi/lib/armv6k/fpu\libg.a(lib_a-mprec.o)
                0x0018db60                __i2b
 .text.__multiply
                0x0018db80      0x1dc c:/devkitpro/devkitarm/bin/../lib/gcc/arm-none-eabi/4.9.2/../../../../arm-none-eabi/lib/armv6k/fpu\libg.a(lib_a-mprec.o)
                0x0018db80                __multiply
 .text.__pow5mult
                0x0018dd5c      0x100 c:/devkitpro/devkitarm/bin/../lib/gcc/arm-none-eabi/4.9.2/../../../../arm-none-eabi/lib/armv6k/fpu\libg.a(lib_a-mprec.o)
                0x0018dd5c                __pow5mult
 .text.__lshift
                0x0018de5c       0xf4 c:/devkitpro/devkitarm/bin/../lib/gcc/arm-none-eabi/4.9.2/../../../../arm-none-eabi/lib/armv6k/fpu\libg.a(lib_a-mprec.o)
                0x0018de5c                __lshift
 .text.__mcmp   0x0018df50       0x64 c:/devkitpro/devkitarm/bin/../lib/gcc/arm-none-eabi/4.9.2/../../../../arm-none-eabi/lib/armv6k/fpu\libg.a(lib_a-mprec.o)
                0x0018df50                __mcmp
 .text.__mdiff  0x0018dfb4      0x13c c:/devkitpro/devkitarm/bin/../lib/gcc/arm-none-eabi/4.9.2/../../../../arm-none-eabi/lib/armv6k/fpu\libg.a(lib_a-mprec.o)
                0x0018dfb4                __mdiff
 .text.__ulp    0x0018e0f0       0x74 c:/devkitpro/devkitarm/bin/../lib/gcc/arm-none-eabi/4.9.2/../../../../arm-none-eabi/lib/armv6k/fpu\libg.a(lib_a-mprec.o)
                0x0018e0f0                __ulp
 .text.__b2d    0x0018e164       0xe4 c:/devkitpro/devkitarm/bin/../lib/gcc/arm-none-eabi/4.9.2/../../../../arm-none-eabi/lib/armv6k/fpu\libg.a(lib_a-mprec.o)
                0x0018e164                __b2d
 .text.__d2b    0x0018e248      0x104 c:/devkitpro/devkitarm/bin/../lib/gcc/arm-none-eabi/4.9.2/../../../../arm-none-eabi/lib/armv6k/fpu\libg.a(lib_a-mprec.o)
                0x0018e248                __d2b
 .text.__ratio  0x0018e34c       0x7c c:/devkitpro/devkitarm/bin/../lib/gcc/arm-none-eabi/4.9.2/../../../../arm-none-eabi/lib/armv6k/fpu\libg.a(lib_a-mprec.o)
                0x0018e34c                __ratio
 .text._mprec_log10
                0x0018e3c8       0x48 c:/devkitpro/devkitarm/bin/../lib/gcc/arm-none-eabi/4.9.2/../../../../arm-none-eabi/lib/armv6k/fpu\libg.a(lib_a-mprec.o)
                0x0018e3c8                _mprec_log10
 .text.__copybits
                0x0018e410       0x6c c:/devkitpro/devkitarm/bin/../lib/gcc/arm-none-eabi/4.9.2/../../../../arm-none-eabi/lib/armv6k/fpu\libg.a(lib_a-mprec.o)
                0x0018e410                __copybits
 .text.__any_on
                0x0018e47c       0x80 c:/devkitpro/devkitarm/bin/../lib/gcc/arm-none-eabi/4.9.2/../../../../arm-none-eabi/lib/armv6k/fpu\libg.a(lib_a-mprec.o)
                0x0018e47c                __any_on
 .text.__fpclassifyd
                0x0018e4fc       0x74 c:/devkitpro/devkitarm/bin/../lib/gcc/arm-none-eabi/4.9.2/../../../../arm-none-eabi/lib/armv6k/fpu\libg.a(lib_a-s_fpclassify.o)
                0x0018e4fc                __fpclassifyd
 .text.frexp    0x0018e570       0x98 c:/devkitpro/devkitarm/bin/../lib/gcc/arm-none-eabi/4.9.2/../../../../arm-none-eabi/lib/armv6k/fpu\libg.a(lib_a-s_frexp.o)
                0x0018e570                frexp
 .text.strcasecmp
                0x0018e608       0x68 c:/devkitpro/devkitarm/bin/../lib/gcc/arm-none-eabi/4.9.2/../../../../arm-none-eabi/lib/armv6k/fpu\libg.a(lib_a-strcasecmp.o)
                0x0018e608                strcasecmp
 .text.strcat   0x0018e670       0x80 c:/devkitpro/devkitarm/bin/../lib/gcc/arm-none-eabi/4.9.2/../../../../arm-none-eabi/lib/armv6k/fpu\libg.a(lib_a-strcat.o)
                0x0018e670                strcat
 .text.strlcpy  0x0018e6f0       0x48 c:/devkitpro/devkitarm/bin/../lib/gcc/arm-none-eabi/4.9.2/../../../../arm-none-eabi/lib/armv6k/fpu\libg.a(lib_a-strlcpy.o)
                0x0018e6f0                strlcpy
 .text.strncasecmp
                0x0018e738       0x8c c:/devkitpro/devkitarm/bin/../lib/gcc/arm-none-eabi/4.9.2/../../../../arm-none-eabi/lib/armv6k/fpu\libg.a(lib_a-strncasecmp.o)
                0x0018e738                strncasecmp
 .text.get_arg  0x0018e7c4      0x860 c:/devkitpro/devkitarm/bin/../lib/gcc/arm-none-eabi/4.9.2/../../../../arm-none-eabi/lib/armv6k/fpu\libg.a(lib_a-svfiprintf.o)
 .text.__ssprint_r
                0x0018f024      0x1a8 c:/devkitpro/devkitarm/bin/../lib/gcc/arm-none-eabi/4.9.2/../../../../arm-none-eabi/lib/armv6k/fpu\libg.a(lib_a-svfiprintf.o)
                0x0018f024                __ssprint_r
 .text._svfiprintf_r
                0x0018f1cc     0x2fdc c:/devkitpro/devkitarm/bin/../lib/gcc/arm-none-eabi/4.9.2/../../../../arm-none-eabi/lib/armv6k/fpu\libg.a(lib_a-svfiprintf.o)
                0x0018f1cc                _svfiprintf_r
 .text.wcvt     0x001921a8      0x308 c:/devkitpro/devkitarm/bin/../lib/gcc/arm-none-eabi/4.9.2/../../../../arm-none-eabi/lib/armv6k/fpu\libg.a(lib_a-svfwprintf.o)
 .text.get_arg.isra.0
                0x001924b0      0x7f4 c:/devkitpro/devkitarm/bin/../lib/gcc/arm-none-eabi/4.9.2/../../../../arm-none-eabi/lib/armv6k/fpu\libg.a(lib_a-svfwprintf.o)
 *fill*         0x00192ca4        0x4 
 .text._svfwprintf_r
                0x00192ca8     0x3e40 c:/devkitpro/devkitarm/bin/../lib/gcc/arm-none-eabi/4.9.2/../../../../arm-none-eabi/lib/armv6k/fpu\libg.a(lib_a-svfwprintf.o)
                0x00192ca8                _svfwprintf_r
 .text.wcslen   0x00196ae8       0x2c c:/devkitpro/devkitarm/bin/../lib/gcc/arm-none-eabi/4.9.2/../../../../arm-none-eabi/lib/armv6k/fpu\libg.a(lib_a-wcslen.o)
                0x00196ae8                wcslen
 .text._wcsnrtombs_r
                0x00196b14      0x184 c:/devkitpro/devkitarm/bin/../lib/gcc/arm-none-eabi/4.9.2/../../../../arm-none-eabi/lib/armv6k/fpu\libg.a(lib_a-wcsnrtombs.o)
                0x00196b14                _wcsnrtombs_r
 .text.wcsnrtombs
                0x00196c98       0x40 c:/devkitpro/devkitarm/bin/../lib/gcc/arm-none-eabi/4.9.2/../../../../arm-none-eabi/lib/armv6k/fpu\libg.a(lib_a-wcsnrtombs.o)
                0x00196c98                wcsnrtombs
 .text.wmemchr  0x00196cd8       0x5c c:/devkitpro/devkitarm/bin/../lib/gcc/arm-none-eabi/4.9.2/../../../../arm-none-eabi/lib/armv6k/fpu\libg.a(lib_a-wmemchr.o)
                0x00196cd8                wmemchr
 .text.btowc    0x00196d34       0x78 c:/devkitpro/devkitarm/bin/../lib/gcc/arm-none-eabi/4.9.2/../../../../arm-none-eabi/lib/armv6k/fpu\libg.a(lib_a-btowc.o)
                0x00196d34                btowc
 .text._calloc_r
                0x00196dac       0x94 c:/devkitpro/devkitarm/bin/../lib/gcc/arm-none-eabi/4.9.2/../../../../arm-none-eabi/lib/armv6k/fpu\libg.a(lib_a-callocr.o)
                0x00196dac                _calloc_r
 .text._findenv_r
                0x00196e40       0xc8 c:/devkitpro/devkitarm/bin/../lib/gcc/arm-none-eabi/4.9.2/../../../../arm-none-eabi/lib/armv6k/fpu\libg.a(lib_a-getenv_r.o)
                0x00196e40                _findenv_r
 .text._getenv_r
                0x00196f08       0x18 c:/devkitpro/devkitarm/bin/../lib/gcc/arm-none-eabi/4.9.2/../../../../arm-none-eabi/lib/armv6k/fpu\libg.a(lib_a-getenv_r.o)
                0x00196f08                _getenv_r
 .text.mbrlen   0x00196f20       0x40 c:/devkitpro/devkitarm/bin/../lib/gcc/arm-none-eabi/4.9.2/../../../../arm-none-eabi/lib/armv6k/fpu\libg.a(lib_a-mbrlen.o)
                0x00196f20                mbrlen
 .text._mbrtowc_r
                0x00196f60       0x98 c:/devkitpro/devkitarm/bin/../lib/gcc/arm-none-eabi/4.9.2/../../../../arm-none-eabi/lib/armv6k/fpu\libg.a(lib_a-mbrtowc.o)
                0x00196f60                _mbrtowc_r
 .text.mbrtowc  0x00196ff8       0x9c c:/devkitpro/devkitarm/bin/../lib/gcc/arm-none-eabi/4.9.2/../../../../arm-none-eabi/lib/armv6k/fpu\libg.a(lib_a-mbrtowc.o)
                0x00196ff8                mbrtowc
 .text._mbsnrtowcs_r
                0x00197094       0xf8 c:/devkitpro/devkitarm/bin/../lib/gcc/arm-none-eabi/4.9.2/../../../../arm-none-eabi/lib/armv6k/fpu\libg.a(lib_a-mbsnrtowcs.o)
                0x00197094                _mbsnrtowcs_r
 .text.mbsnrtowcs
                0x0019718c       0x40 c:/devkitpro/devkitarm/bin/../lib/gcc/arm-none-eabi/4.9.2/../../../../arm-none-eabi/lib/armv6k/fpu\libg.a(lib_a-mbsnrtowcs.o)
                0x0019718c                mbsnrtowcs
 .text.__env_lock
                0x001971cc        0x4 c:/devkitpro/devkitarm/bin/../lib/gcc/arm-none-eabi/4.9.2/../../../../arm-none-eabi/lib/armv6k/fpu\libg.a(lib_a-envlock.o)
                0x001971cc                __env_lock
 .text.__env_unlock
                0x001971d0        0x4 c:/devkitpro/devkitarm/bin/../lib/gcc/arm-none-eabi/4.9.2/../../../../arm-none-eabi/lib/armv6k/fpu\libg.a(lib_a-envlock.o)
                0x001971d0                __env_unlock
 .text.strnlen  0x001971d4       0x5c c:/devkitpro/devkitarm/bin/../lib/gcc/arm-none-eabi/4.9.2/../../../../arm-none-eabi/lib/armv6k/fpu\libg.a(lib_a-strnlen.o)
                0x001971d4                strnlen
 *(.glue_7)
 .glue_7        0x00197230        0x0 linker stubs
 *(.glue_7t)
 .glue_7t       0x00197230        0x0 linker stubs
 *(.stub)
 *(.gnu.warning)
 *(.gnu.linkonce.t*)
                0x00197230                . = ALIGN (0x4)
 *(.fini)
 .fini          0x00197230        0xc c:/devkitpro/devkitarm/bin/../lib/gcc/arm-none-eabi/4.9.2/armv6k/fpu/crti.o
                0x00197230                _fini
 .fini          0x0019723c        0xc c:/devkitpro/devkitarm/bin/../lib/gcc/arm-none-eabi/4.9.2/armv6k/fpu/crtn.o
                0x00197248                . = ALIGN (0x4)

.vfp11_veneer   0x00197248        0x0
 .vfp11_veneer  0x00197248        0x0 linker stubs

.v4_bx          0x00197248        0x0
 .v4_bx         0x00197248        0x0 linker stubs

.iplt           0x00197248        0x0
 .iplt          0x00197248        0x0 c:/devkitpro/devkitarm/bin/../lib/gcc/arm-none-eabi/4.9.2/../../../../arm-none-eabi/lib/armv6k/fpu/3dsx_crt0.o

.rodata         0x00198000    0x84a4c
 *(.rodata)
 .rodata        0x00198000     0x4eac eightbit.ttf.o
                0x00198000                eightbit_ttf
                0x0019cea8                eightbit_ttf_size
                0x0019cea8                eightbit_ttf_end
 .rodata        0x0019ceac     0x23b0 friskBack.o
                0x0019ceac                friskBack
 .rodata        0x0019f25c     0x23b0 friskFace.o
                0x0019f25c                friskFace
 .rodata        0x001a160c     0x23b0 friskLeft1.o
                0x001a160c                friskLeft1
 .rodata        0x001a39bc     0x23b0 friskRight1.o
                0x001a39bc                friskRight1
 .rodata        0x001a5d6c    0x5dc10 torielHouse1.o
                0x001a5d6c                torielHouse1
 .rodata        0x0020397c       0x4c c:/devkitPro/portlibs/armv6k/lib\libfreetype.a(ftinit.o)
 .rodata        0x002039c8       0xa0 c:/devkitPro/portlibs/armv6k/lib\libfreetype.a(ftbase.o)
 .rodata        0x00203a68      0x5b8 c:/devkitPro/portlibs/armv6k/lib\libfreetype.a(truetype.o)
                0x00203f58                tt_default_graphics_state
                0x00203f9c                tt_driver_class
 .rodata        0x00204020      0x6b8 c:/devkitPro/portlibs/armv6k/lib\libfreetype.a(type1.o)
                0x00204640                t1_driver_class
 .rodata        0x002046d8      0xf10 c:/devkitPro/portlibs/armv6k/lib\libfreetype.a(cff.o)
                0x00204700                cff_cmap_encoding_class_rec
                0x00204728                cff_cmap_unicode_class_rec
                0x00205550                cff_driver_class
 .rodata        0x002055e8      0x70c c:/devkitPro/portlibs/armv6k/lib\libfreetype.a(type1cid.o)
                0x00205c70                t1cid_driver_class
 .rodata        0x00205cf4      0x148 c:/devkitPro/portlibs/armv6k/lib\libfreetype.a(pfr.o)
                0x00205da8                pfr_cmap_class_rec
                0x00205dd0                pfr_driver_class
 .rodata        0x00205e3c      0x328 c:/devkitPro/portlibs/armv6k/lib\libfreetype.a(type42.o)
                0x002060e4                t42_driver_class
 .rodata        0x00206164      0x204 c:/devkitPro/portlibs/armv6k/lib\libfreetype.a(winfnt.o)
                0x00206304                winfnt_driver_class
 .rodata        0x00206368      0x1bc c:/devkitPro/portlibs/armv6k/lib\libfreetype.a(pcf.o)
                0x002064bc                pcf_driver_class
 .rodata        0x00206524      0x6a4 c:/devkitPro/portlibs/armv6k/lib\libfreetype.a(bdf.o)
                0x00206b60                bdf_driver_class
 .rodata        0x00206bc8      0x664 c:/devkitPro/portlibs/armv6k/lib\libfreetype.a(sfnt.o)
                0x00206f98                sfnt_module_class
                0x00207058                tt_cmap14_class_rec
                0x0020708c                tt_cmap13_class_rec
                0x002070c0                tt_cmap12_class_rec
                0x002070f4                tt_cmap10_class_rec
                0x00207128                tt_cmap8_class_rec
                0x0020715c                tt_cmap6_class_rec
                0x00207190                tt_cmap4_class_rec
                0x002071c4                tt_cmap2_class_rec
                0x002071f8                tt_cmap0_class_rec
 .rodata        0x0020722c     0x1514 c:/devkitPro/portlibs/armv6k/lib\libfreetype.a(autofit.o)
                0x0020732c                af_style_classes
                0x00207400                af_writing_system_classes
                0x00207424                af_script_classes
                0x0020748c                af_blue_stringsets
                0x0020759c                af_blue_strings
                0x002079ac                af_arab_dflt_style_class
                0x002079b4                autofit_module_class
                0x002079d8                af_autofitter_interface
                0x002079f0                af_indic_writing_system_class
                0x00207a0c                af_cjk_writing_system_class
                0x00207a28                af_latin_writing_system_class
                0x00207a44                af_dummy_writing_system_class
                0x00207a60                af_hani_nonbase_uniranges
                0x00207a78                af_hani_uniranges
                0x00207b70                af_tibt_nonbase_uniranges
                0x00207bc0                af_tibt_uniranges
                0x00207bd0                af_taml_nonbase_uniranges
                0x00207bf0                af_taml_uniranges
                0x00207c00                af_sylo_nonbase_uniranges
                0x00207c28                af_sylo_uniranges
                0x00207c38                af_sund_nonbase_uniranges
                0x00207c50                af_sund_uniranges
                0x00207c68                af_sinh_nonbase_uniranges
                0x00207c80                af_sinh_uniranges
                0x00207c90                af_orya_nonbase_uniranges
                0x00207cc8                af_orya_uniranges
                0x00207cd8                af_mlym_nonbase_uniranges
                0x00207cf8                af_mlym_uniranges
                0x00207d08                af_limb_nonbase_uniranges
                0x00207d28                af_limb_uniranges
                0x00207d38                af_knda_nonbase_uniranges
                0x00207d70                af_knda_uniranges
                0x00207d80                af_guru_nonbase_uniranges
                0x00207db0                af_guru_uniranges
                0x00207dc0                af_gujr_nonbase_uniranges
                0x00207df0                af_gujr_uniranges
                0x00207e00                af_beng_nonbase_uniranges
                0x00207e30                af_beng_uniranges
                0x00207e40                af_thai_nonbase_uniranges
                0x00207e60                af_thai_uniranges
                0x00207e70                af_telu_nonbase_uniranges
                0x00207e98                af_telu_uniranges
                0x00207ea8                af_none_nonbase_uniranges
                0x00207eb0                af_none_uniranges
                0x00207eb8                af_latp_nonbase_uniranges
                0x00207ec0                af_latp_uniranges
                0x00207f30                af_latb_nonbase_uniranges
                0x00207f38                af_latb_uniranges
                0x00207f58                af_latn_nonbase_uniranges
                0x00207fe0                af_latn_uniranges
                0x002080e8                af_lao_nonbase_uniranges
                0x00208108                af_lao_uniranges
                0x00208118                af_hebr_nonbase_uniranges
                0x00208148                af_hebr_uniranges
                0x00208160                af_grek_nonbase_uniranges
                0x002081a0                af_grek_uniranges
                0x002081b8                af_deva_nonbase_uniranges
                0x002081f8                af_deva_uniranges
                0x00208230                af_cyrl_nonbase_uniranges
                0x00208258                af_cyrl_uniranges
                0x00208280                af_arab_nonbase_uniranges
                0x00208318                af_arab_uniranges
                0x00208350                af_hani_dflt_style_class
                0x00208358                af_tibt_dflt_style_class
                0x00208360                af_taml_dflt_style_class
                0x00208368                af_sylo_dflt_style_class
                0x00208370                af_sund_dflt_style_class
                0x00208378                af_sinh_dflt_style_class
                0x00208380                af_orya_dflt_style_class
                0x00208388                af_mlym_dflt_style_class
                0x00208390                af_limb_dflt_style_class
                0x00208398                af_knda_dflt_style_class
                0x002083a0                af_guru_dflt_style_class
                0x002083a8                af_gujr_dflt_style_class
                0x002083b0                af_beng_dflt_style_class
                0x002083b8                af_thai_dflt_style_class
                0x002083c0                af_telu_dflt_style_class
                0x002083c8                af_none_dflt_style_class
                0x002083d0                af_latp_dflt_style_class
                0x002083d8                af_latb_dflt_style_class
                0x002083e0                af_latn_dflt_style_class
                0x002083e8                af_latn_titl_style_class
                0x002083f0                af_latn_sups_style_class
                0x002083f8                af_latn_subs_style_class
                0x00208400                af_latn_smcp_style_class
                0x00208408                af_latn_sinf_style_class
                0x00208410                af_latn_pcap_style_class
                0x00208418                af_latn_ordn_style_class
                0x00208420                af_latn_c2sc_style_class
                0x00208428                af_latn_c2cp_style_class
                0x00208430                af_lao_dflt_style_class
                0x00208438                af_hebr_dflt_style_class
                0x00208440                af_grek_dflt_style_class
                0x00208448                af_grek_titl_style_class
                0x00208450                af_grek_sups_style_class
                0x00208458                af_grek_subs_style_class
                0x00208460                af_grek_smcp_style_class
                0x00208468                af_grek_sinf_style_class
                0x00208470                af_grek_pcap_style_class
                0x00208478                af_grek_ordn_style_class
                0x00208480                af_grek_c2sc_style_class
                0x00208488                af_grek_c2cp_style_class
                0x00208490                af_deva_dflt_style_class
                0x00208498                af_cyrl_dflt_style_class
                0x002084a0                af_cyrl_titl_style_class
                0x002084a8                af_cyrl_sups_style_class
                0x002084b0                af_cyrl_subs_style_class
                0x002084b8                af_cyrl_smcp_style_class
                0x002084c0                af_cyrl_sinf_style_class
                0x002084c8                af_cyrl_pcap_style_class
                0x002084d0                af_cyrl_ordn_style_class
                0x002084d8                af_cyrl_c2sc_style_class
                0x002084e0                af_cyrl_c2cp_style_class
                0x002084e8                af_hani_script_class
                0x00208500                af_tibt_script_class
                0x00208518                af_taml_script_class
                0x00208530                af_sylo_script_class
                0x00208548                af_sund_script_class
                0x00208560                af_sinh_script_class
                0x00208578                af_orya_script_class
                0x00208590                af_mlym_script_class
                0x002085a8                af_limb_script_class
                0x002085c0                af_knda_script_class
                0x002085d8                af_guru_script_class
                0x002085f0                af_gujr_script_class
                0x00208608                af_beng_script_class
                0x00208620                af_thai_script_class
                0x00208638                af_telu_script_class
                0x00208650                af_none_script_class
                0x00208668                af_latp_script_class
                0x00208680                af_latb_script_class
                0x00208698                af_latn_script_class
                0x002086b0                af_lao_script_class
                0x002086c8                af_hebr_script_class
                0x002086e0                af_grek_script_class
                0x002086f8                af_deva_script_class
                0x00208710                af_cyrl_script_class
                0x00208728                af_arab_script_class
 .rodata        0x00208740       0x30 c:/devkitPro/portlibs/armv6k/lib\libfreetype.a(pshinter.o)
                0x00208740                pshinter_module_class
 .rodata        0x00208770       0x54 c:/devkitPro/portlibs/armv6k/lib\libfreetype.a(raster.o)
                0x00208770                ft_raster1_renderer_class
                0x002087ac                ft_standard_raster
 .rodata        0x002087c4       0xe4 c:/devkitPro/portlibs/armv6k/lib\libfreetype.a(smooth.o)
                0x002087dc                ft_smooth_lcdv_renderer_class
                0x00208818                ft_smooth_lcd_renderer_class
                0x00208854                ft_smooth_renderer_class
                0x00208890                ft_grays_raster
 .rodata        0x002088a8       0xc4 c:/devkitPro/portlibs/armv6k/lib\libfreetype.a(ftcache.o)
 .rodata        0x0020896c      0x380 c:/devkitPro/portlibs/armv6k/lib\libfreetype.a(psaux.o)
                0x0020896c                ps_parser_funcs
                0x00208a20                ps_table_funcs
                0x00208a30                t1_builder_funcs
                0x00208a50                t1_decoder_funcs
                0x00208bf0                t1_cmap_unicode_class_rec
                0x00208c18                t1_cmap_custom_class_rec
                0x00208c40                t1_cmap_expert_class_rec
                0x00208c68                t1_cmap_standard_class_rec
                0x00208c90                psaux_module_class
                0x00208cd0                t1_cmap_classes
                0x00208ce0                afm_parser_funcs
 .rodata        0x00208cec     0xf2f0 c:/devkitPro/portlibs/armv6k/lib\libfreetype.a(psnames.o)
                0x00217b98                psnames_module_class
 .rodata        0x00217fdc       0x40 c:/devkitPro/portlibs/armv6k/lib\libfreetype.a(ftglyph.o)
                0x00217fdc                ft_outline_glyph_class
                0x00217ffc                ft_bitmap_glyph_class
 .rodata        0x0021801c      0x8a8 c:/devkitPro/portlibs/armv6k/lib\libz.a(inflate.o)
 .rodata        0x002188c4      0x130 c:/devkitPro/portlibs/armv6k/lib\libz.a(inftrees.o)
                0x002189c4                inflate_copyright
 .rodata        0x002189f4       0x28 c:/devkitPro/portlibs/armv6k/lib\libz.a(zutil.o)
                0x002189f4                z_errmsg
 .rodata        0x00218a1c     0x2000 c:/devkitPro/portlibs/armv6k/lib\libz.a(crc32.o)
 .rodata        0x0021aa1c       0x30 c:/devkitPro/libctru/lib\libsf2d.a(sf2d_texture.o)
 .rodata        0x0021aa4c       0xe8 c:/devkitPro/libctru/lib\libsf2d.a(shader.vsh.o)
                0x0021aa4c                shader_vsh_shbin
                0x0021ab30                shader_vsh_shbin_size
                0x0021ab30                shader_vsh_shbin_end
 .rodata        0x0021ab34       0x14 c:/devkitPro/libctru/lib\libctru.a(gfx.o)
 .rodata        0x0021ab48       0x64 c:/devkitPro/libctru/lib\libctru.a(os.o)
 .rodata        0x0021abac       0x30 c:/devkitPro/libctru/lib\libctru.a(romfs_dev.o)
 .rodata        0x0021abdc        0xc c:/devkitPro/libctru/lib\libctru.a(gpu.o)
                0x0021abdc                GPU_FORMATSIZE
                0x0021abe0                GPU_TEVID
 .rodata        0x0021abe8        0x8 c:/devkitPro/libctru/lib\libctru.a(shaderProgram.o)
 .rodata        0x0021abf0       0x24 c:/devkitPro/libctru/lib\libctru.a(shbin.o)
 .rodata        0x0021ac14        0xc c:/devkitPro/libctru/lib\libctru.a(apt.o)
 .rodata        0x0021ac20       0x30 c:/devkitPro/libctru/lib\libctru.a(sdmc_dev.o)
 .rodata        0x0021ac50       0x68 c:/devkitpro/devkitarm/bin/../lib/gcc/arm-none-eabi/4.9.2/../../../../arm-none-eabi/lib/armv6k/fpu\libsysbase.a(iosupport.o)
                0x0021ac50                dotab_stdnull
 .rodata        0x0021acb8        0xc c:/devkitpro/devkitarm/bin/../lib/gcc/arm-none-eabi/4.9.2/../../../../arm-none-eabi/lib/armv6k/fpu\libsysbase.a(chdir.o)
                0x0021acb8                DIRECTORY_PARENT
                0x0021acbc                DIRECTORY_THIS
                0x0021acc0                DIRECTORY_SEPARATOR
 *(.roda)
 *(.rodata.*)
 .rodata.str1.4
                0x0021acc4       0x1b main.o
                                 0x1c (size before relaxing)
 *fill*         0x0021acdf        0x1 
 .rodata.str1.4
                0x0021ace0        0x2 c:/devkitPro/libctru/lib\libsftd.a(sftd.o)
                                  0x4 (size before relaxing)
 *fill*         0x0021ace2        0x2 
 .rodata.str1.4
                0x0021ace4       0xd0 c:/devkitPro/portlibs/armv6k/lib\libfreetype.a(ftbase.o)
                                 0xd8 (size before relaxing)
 .rodata.str1.4
                0x0021adb4       0x70 c:/devkitPro/portlibs/armv6k/lib\libfreetype.a(truetype.o)
                                 0xa0 (size before relaxing)
 .rodata.str1.4
                0x0021ae24      0x2eb c:/devkitPro/portlibs/armv6k/lib\libfreetype.a(type1.o)
                                0x37c (size before relaxing)
 *fill*         0x0021b10f        0x1 
 .rodata.str1.4
                0x0021b110       0x44 c:/devkitPro/portlibs/armv6k/lib\libfreetype.a(cff.o)
                                 0xe0 (size before relaxing)
 .rodata.str1.4
                0x0021b154      0x138 c:/devkitPro/portlibs/armv6k/lib\libfreetype.a(type1cid.o)
                                0x330 (size before relaxing)
 .rodata.str1.4
                0x0021b28c       0x14 c:/devkitPro/portlibs/armv6k/lib\libfreetype.a(pfr.o)
                                 0x20 (size before relaxing)
 .rodata.str1.4
                0x0021b2a0       0x2a c:/devkitPro/portlibs/armv6k/lib\libfreetype.a(type42.o)
                                0x1d0 (size before relaxing)
 *fill*         0x0021b2ca        0x2 
 .rodata.str1.4
                0x0021b2cc       0x2c c:/devkitPro/portlibs/armv6k/lib\libfreetype.a(winfnt.o)
                                 0x48 (size before relaxing)
 .rodata.str1.4
                0x0021b2f8       0xac c:/devkitPro/portlibs/armv6k/lib\libfreetype.a(pcf.o)
                                 0xfc (size before relaxing)
 .rodata.str1.4
                0x0021b3a4      0x3df c:/devkitPro/portlibs/armv6k/lib\libfreetype.a(bdf.o)
                                0x634 (size before relaxing)
 .rodata.str1.4
                0x0021b783       0x84 c:/devkitPro/portlibs/armv6k/lib\libfreetype.a(sfnt.o)
 *fill*         0x0021b783        0x1 
 .rodata.str1.4
                0x0021b784       0x5b c:/devkitPro/portlibs/armv6k/lib\libfreetype.a(autofit.o)
                                 0x68 (size before relaxing)
 .rodata.str1.4
                0x0021b7df        0xc c:/devkitPro/portlibs/armv6k/lib\libfreetype.a(pshinter.o)
 *fill*         0x0021b7df        0x1 
 .rodata.str1.4
                0x0021b7e0        0x8 c:/devkitPro/portlibs/armv6k/lib\libfreetype.a(raster.o)
 .rodata.str1.4
                0x0021b7e8       0x1f c:/devkitPro/portlibs/armv6k/lib\libfreetype.a(smooth.o)
                                 0x20 (size before relaxing)
 *fill*         0x0021b807        0x1 
 .rodata.str1.4
                0x0021b808        0x6 c:/devkitPro/portlibs/armv6k/lib\libfreetype.a(ftgzip.o)
                                  0x8 (size before relaxing)
 *fill*         0x0021b80e        0x2 
 .rodata.str1.4
                0x0021b810      0x260 c:/devkitPro/portlibs/armv6k/lib\libfreetype.a(psaux.o)
                                0x34c (size before relaxing)
 .rodata.str1.4
                0x0021ba70        0x8 c:/devkitPro/portlibs/armv6k/lib\libfreetype.a(psnames.o)
                                 0x1c (size before relaxing)
 .rodata.str1.4
                0x0021ba78        0x4 c:/devkitPro/portlibs/armv6k/lib\libfreetype.a(ftsystem.o)
 .rodata.str1.4
                0x0021ba78      0x1e7 c:/devkitPro/portlibs/armv6k/lib\libz.a(inflate.o)
                                0x1e8 (size before relaxing)
 *fill*         0x0021bc5f        0x1 
 .rodata.str1.4
                0x0021bc60       0x7d c:/devkitPro/portlibs/armv6k/lib\libz.a(zutil.o)
                                 0x8c (size before relaxing)
 .rodata.str1.4
                0x0021bcdd       0x54 c:/devkitPro/portlibs/armv6k/lib\libz.a(inffast.o)
 *fill*         0x0021bcdd        0x3 
 .rodata.str1.4
                0x0021bce0        0xb c:/devkitPro/libctru/lib\libsf2d.a(sf2d.o)
                                  0xc (size before relaxing)
 *fill*         0x0021bceb        0x1 
 .rodata.str1.4
                0x0021bcec       0xe8 c:/devkitPro/libctru/lib\libctru.a(os.o)
                                 0xec (size before relaxing)
 .rodata.str1.4
                0x0021bdd4       0x2a c:/devkitPro/libctru/lib\libctru.a(romfs_dev.o)
                                 0x30 (size before relaxing)
 *fill*         0x0021bdfe        0x2 
 .rodata.str1.4
                0x0021be00        0xf c:/devkitPro/libctru/lib\libctru.a(srv.o)
                                 0x10 (size before relaxing)
 *fill*         0x0021be0f        0x1 
 .rodata.str1.4
                0x0021be10       0x16 c:/devkitPro/libctru/lib\libctru.a(apt.o)
                                 0x18 (size before relaxing)
 *fill*         0x0021be26        0x2 
 .rodata.str1.4
                0x0021be28       0x16 c:/devkitPro/libctru/lib\libctru.a(cfgu.o)
                                 0x18 (size before relaxing)
 *fill*         0x0021be3e        0x2 
 .rodata.str1.4
                0x0021be40        0x9 c:/devkitPro/libctru/lib\libctru.a(csnd.o)
                                  0xc (size before relaxing)
 *fill*         0x0021be49        0x3 
 .rodata.str1.4
                0x0021be4c        0x8 c:/devkitPro/libctru/lib\libctru.a(fs.o)
 .rodata.str1.4
                0x0021be54       0x15 c:/devkitPro/libctru/lib\libctru.a(gsp.o)
                                 0x18 (size before relaxing)
 *fill*         0x0021be69        0x3 
 .rodata.str1.4
                0x0021be6c       0x15 c:/devkitPro/libctru/lib\libctru.a(hid.o)
                                 0x18 (size before relaxing)
 *fill*         0x0021be81        0x3 
 .rodata.str1.4
                0x0021be84        0x7 c:/devkitPro/libctru/lib\libctru.a(irrst.o)
                                  0x8 (size before relaxing)
 *fill*         0x0021be8b        0x1 
 .rodata.str1.4
                0x0021be8c       0x11 c:/devkitPro/libctru/lib\libctru.a(ptm.o)
                                 0x14 (size before relaxing)
 *fill*         0x0021be9d        0x3 
 .rodata.str1.4
                0x0021bea0        0x5 c:/devkitPro/libctru/lib\libctru.a(sdmc_dev.o)
                                  0xc (size before relaxing)
 *fill*         0x0021bea5        0x3 
 .rodata.npio2_hw
                0x0021bea8       0x80 c:/devkitpro/devkitarm/bin/../lib/gcc/arm-none-eabi/4.9.2/../../../../arm-none-eabi/lib/armv6k/fpu\libm.a(lib_a-ef_rem_pio2.o)
 .rodata.two_over_pi
                0x0021bf28      0x318 c:/devkitpro/devkitarm/bin/../lib/gcc/arm-none-eabi/4.9.2/../../../../arm-none-eabi/lib/armv6k/fpu\libm.a(lib_a-ef_rem_pio2.o)
 .rodata.init_jk
                0x0021c240        0xc c:/devkitpro/devkitarm/bin/../lib/gcc/arm-none-eabi/4.9.2/../../../../arm-none-eabi/lib/armv6k/fpu\libm.a(lib_a-kf_rem_pio2.o)
 .rodata.PIo2   0x0021c24c       0x2c c:/devkitpro/devkitarm/bin/../lib/gcc/arm-none-eabi/4.9.2/../../../../arm-none-eabi/lib/armv6k/fpu\libm.a(lib_a-kf_rem_pio2.o)
 .rodata.str1.4
                0x0021c278        0x4 c:/devkitpro/devkitarm/bin/../lib/gcc/arm-none-eabi/4.9.2/../../../../arm-none-eabi/lib/armv6k/fpu\libg.a(lib_a-impure.o)
 .rodata._global_impure_ptr
                0x0021c278        0x4 c:/devkitpro/devkitarm/bin/../lib/gcc/arm-none-eabi/4.9.2/../../../../arm-none-eabi/lib/armv6k/fpu\libg.a(lib_a-impure.o)
                0x0021c278                _global_impure_ptr
 .rodata.zeroes.7037
                0x0021c27c       0x10 c:/devkitpro/devkitarm/bin/../lib/gcc/arm-none-eabi/4.9.2/../../../../arm-none-eabi/lib/armv6k/fpu\libg.a(lib_a-svfprintf.o)
 .rodata.str1.4
                0x0021c28c       0x42 c:/devkitpro/devkitarm/bin/../lib/gcc/arm-none-eabi/4.9.2/../../../../arm-none-eabi/lib/armv6k/fpu\libg.a(lib_a-svfprintf.o)
                                 0x44 (size before relaxing)
 *fill*         0x0021c2ce        0x2 
 .rodata.blanks.7036
                0x0021c2d0       0x10 c:/devkitpro/devkitarm/bin/../lib/gcc/arm-none-eabi/4.9.2/../../../../arm-none-eabi/lib/armv6k/fpu\libg.a(lib_a-svfprintf.o)
 .rodata._ctype_
                0x0021c2e0      0x104 c:/devkitpro/devkitarm/bin/../lib/gcc/arm-none-eabi/4.9.2/../../../../arm-none-eabi/lib/armv6k/fpu\libg.a(lib_a-ctype_.o)
                0x0021c2e0                _ctype_
 .rodata.str1.4
                0x0021c3e4       0x10 c:/devkitpro/devkitarm/bin/../lib/gcc/arm-none-eabi/4.9.2/../../../../arm-none-eabi/lib/armv6k/fpu\libg.a(lib_a-dtoa.o)
                                 0x14 (size before relaxing)
 .rodata.str1.4
                0x0021c3f4      0x118 c:/devkitpro/devkitarm/bin/../lib/gcc/arm-none-eabi/4.9.2/../../../../arm-none-eabi/lib/armv6k/fpu\libg.a(lib_a-locale.o)
                                0x130 (size before relaxing)
 .rodata.categories
                0x0021c50c       0x1c c:/devkitpro/devkitarm/bin/../lib/gcc/arm-none-eabi/4.9.2/../../../../arm-none-eabi/lib/armv6k/fpu\libg.a(lib_a-locale.o)
 .rodata.JIS_state_table
                0x0021c528       0x48 c:/devkitpro/devkitarm/bin/../lib/gcc/arm-none-eabi/4.9.2/../../../../arm-none-eabi/lib/armv6k/fpu\libg.a(lib_a-mbtowc_r.o)
 .rodata.JIS_action_table
                0x0021c570       0x48 c:/devkitpro/devkitarm/bin/../lib/gcc/arm-none-eabi/4.9.2/../../../../arm-none-eabi/lib/armv6k/fpu\libg.a(lib_a-mbtowc_r.o)
 .rodata.p05.5298
                0x0021c5b8        0xc c:/devkitpro/devkitarm/bin/../lib/gcc/arm-none-eabi/4.9.2/../../../../arm-none-eabi/lib/armv6k/fpu\libg.a(lib_a-mprec.o)
 *fill*         0x0021c5c4        0x4 
 .rodata.__mprec_tens
                0x0021c5c8       0xc8 c:/devkitpro/devkitarm/bin/../lib/gcc/arm-none-eabi/4.9.2/../../../../arm-none-eabi/lib/armv6k/fpu\libg.a(lib_a-mprec.o)
                0x0021c5c8                __mprec_tens
 .rodata.__mprec_bigtens
                0x0021c690       0x28 c:/devkitpro/devkitarm/bin/../lib/gcc/arm-none-eabi/4.9.2/../../../../arm-none-eabi/lib/armv6k/fpu\libg.a(lib_a-mprec.o)
                0x0021c690                __mprec_bigtens
 .rodata.__mprec_tinytens
                0x0021c6b8       0x28 c:/devkitpro/devkitarm/bin/../lib/gcc/arm-none-eabi/4.9.2/../../../../arm-none-eabi/lib/armv6k/fpu\libg.a(lib_a-mprec.o)
                0x0021c6b8                __mprec_tinytens
 .rodata.__state_table
                0x0021c6e0       0x6c c:/devkitpro/devkitarm/bin/../lib/gcc/arm-none-eabi/4.9.2/../../../../arm-none-eabi/lib/armv6k/fpu\libg.a(lib_a-svfiprintf.o)
                0x0021c6e0                __state_table
 .rodata.blanks.7015
                0x0021c74c       0x10 c:/devkitpro/devkitarm/bin/../lib/gcc/arm-none-eabi/4.9.2/../../../../arm-none-eabi/lib/armv6k/fpu\libg.a(lib_a-svfiprintf.o)
 .rodata.__chclass
                0x0021c75c      0x100 c:/devkitpro/devkitarm/bin/../lib/gcc/arm-none-eabi/4.9.2/../../../../arm-none-eabi/lib/armv6k/fpu\libg.a(lib_a-svfiprintf.o)
                0x0021c75c                __chclass
 .rodata.str1.4
                0x0021c85c       0x30 c:/devkitpro/devkitarm/bin/../lib/gcc/arm-none-eabi/4.9.2/../../../../arm-none-eabi/lib/armv6k/fpu\libg.a(lib_a-svfiprintf.o)
 .rodata.__action_table
                0x0021c85c       0x6c c:/devkitpro/devkitarm/bin/../lib/gcc/arm-none-eabi/4.9.2/../../../../arm-none-eabi/lib/armv6k/fpu\libg.a(lib_a-svfiprintf.o)
                0x0021c85c                __action_table
 .rodata.zeroes.7016
                0x0021c8c8       0x10 c:/devkitpro/devkitarm/bin/../lib/gcc/arm-none-eabi/4.9.2/../../../../arm-none-eabi/lib/armv6k/fpu\libg.a(lib_a-svfiprintf.o)
 .rodata.zeroes.6918
                0x0021c8d8       0x40 c:/devkitpro/devkitarm/bin/../lib/gcc/arm-none-eabi/4.9.2/../../../../arm-none-eabi/lib/armv6k/fpu\libg.a(lib_a-svfwprintf.o)
 .rodata.blanks.6917
                0x0021c918       0x40 c:/devkitpro/devkitarm/bin/../lib/gcc/arm-none-eabi/4.9.2/../../../../arm-none-eabi/lib/armv6k/fpu\libg.a(lib_a-svfwprintf.o)
 .rodata.str4.4
                0x0021c958       0xec c:/devkitpro/devkitarm/bin/../lib/gcc/arm-none-eabi/4.9.2/../../../../arm-none-eabi/lib/armv6k/fpu\libg.a(lib_a-svfwprintf.o)
 .rodata.str1.4
                0x0021ca44        0x4 c:/devkitpro/devkitarm/bin/../lib/gcc/arm-none-eabi/4.9.2/../../../../arm-none-eabi/lib/armv6k/fpu\libg.a(lib_a-mbrtowc.o)
 .rodata.str1.4
                0x0021ca44        0x8 c:/devkitpro/devkitarm/bin/../lib/gcc/arm-none-eabi/4.9.2/../../../../arm-none-eabi/lib/armv6k/fpu\libsysbase.a(iosupport.o)
 *all.rodata*(*)
 *(.gnu.linkonce.r*)
                0x0021ca4c                . = ALIGN (0x4)

.rel.dyn        0x0021ca4c        0x0
 .rel.iplt      0x0021ca4c        0x0 c:/devkitpro/devkitarm/bin/../lib/gcc/arm-none-eabi/4.9.2/../../../../arm-none-eabi/lib/armv6k/fpu/3dsx_crt0.o

.ARM.extab
 *(.ARM.extab* .gnu.linkonce.armextab.*)
                0x0021ca4c                __exidx_start = .

ARM.exidx
 *(.ARM.exidx* .gnu.linkonce.armexidx.*)
                0x0021ca4c                __exidx_end = .

.data           0x0021d000     0x4078
 *(.data)
 .data          0x0021d000        0x0 c:/devkitpro/devkitarm/bin/../lib/gcc/arm-none-eabi/4.9.2/../../../../arm-none-eabi/lib/armv6k/fpu/3dsx_crt0.o
 .data          0x0021d000        0x0 c:/devkitpro/devkitarm/bin/../lib/gcc/arm-none-eabi/4.9.2/armv6k/fpu/crti.o
 .data          0x0021d000        0x4 c:/devkitpro/devkitarm/bin/../lib/gcc/arm-none-eabi/4.9.2/armv6k/fpu/crtbegin.o
                0x0021d000                __dso_handle
 .data          0x0021d004        0x0 eightbit.ttf.o
 .data          0x0021d004        0x0 friskBack.o
 .data          0x0021d004        0x0 friskFace.o
 .data          0x0021d004        0x0 friskLeft1.o
 .data          0x0021d004        0x0 friskRight1.o
 .data          0x0021d004        0x0 main.o
 .data          0x0021d004        0x0 torielHouse1.o
 .data          0x0021d004        0x0 c:/devkitPro/libctru/lib\libsftd.a(sftd.o)
 .data          0x0021d004        0x0 c:/devkitPro/libctru/lib\libsftd.a(texture_atlas.o)
 .data          0x0021d004        0x0 c:/devkitPro/libctru/lib\libsftd.a(bin_packing_2d.o)
 .data          0x0021d004        0x0 c:/devkitPro/libctru/lib\libsftd.a(int_htab.o)
 .data          0x0021d004        0x0 c:/devkitPro/portlibs/armv6k/lib\libfreetype.a(ftinit.o)
 .data          0x0021d004        0x0 c:/devkitPro/portlibs/armv6k/lib\libfreetype.a(ftbase.o)
 .data          0x0021d004        0x0 c:/devkitPro/portlibs/armv6k/lib\libfreetype.a(truetype.o)
 .data          0x0021d004        0x0 c:/devkitPro/portlibs/armv6k/lib\libfreetype.a(type1.o)
 .data          0x0021d004        0x0 c:/devkitPro/portlibs/armv6k/lib\libfreetype.a(cff.o)
 .data          0x0021d004        0x0 c:/devkitPro/portlibs/armv6k/lib\libfreetype.a(type1cid.o)
 .data          0x0021d004        0x0 c:/devkitPro/portlibs/armv6k/lib\libfreetype.a(pfr.o)
 .data          0x0021d004        0x0 c:/devkitPro/portlibs/armv6k/lib\libfreetype.a(type42.o)
 .data          0x0021d004        0x0 c:/devkitPro/portlibs/armv6k/lib\libfreetype.a(winfnt.o)
 .data          0x0021d004        0x0 c:/devkitPro/portlibs/armv6k/lib\libfreetype.a(pcf.o)
 .data          0x0021d004        0x0 c:/devkitPro/portlibs/armv6k/lib\libfreetype.a(bdf.o)
 .data          0x0021d004        0x0 c:/devkitPro/portlibs/armv6k/lib\libfreetype.a(sfnt.o)
 .data          0x0021d004        0x0 c:/devkitPro/portlibs/armv6k/lib\libfreetype.a(autofit.o)
 .data          0x0021d004        0x0 c:/devkitPro/portlibs/armv6k/lib\libfreetype.a(pshinter.o)
 .data          0x0021d004        0x0 c:/devkitPro/portlibs/armv6k/lib\libfreetype.a(raster.o)
 .data          0x0021d004        0x0 c:/devkitPro/portlibs/armv6k/lib\libfreetype.a(smooth.o)
 .data          0x0021d004        0x0 c:/devkitPro/portlibs/armv6k/lib\libfreetype.a(ftcache.o)
 .data          0x0021d004        0x0 c:/devkitPro/portlibs/armv6k/lib\libfreetype.a(ftgzip.o)
 .data          0x0021d004        0x0 c:/devkitPro/portlibs/armv6k/lib\libfreetype.a(ftlzw.o)
 .data          0x0021d004        0x0 c:/devkitPro/portlibs/armv6k/lib\libfreetype.a(psaux.o)
 .data          0x0021d004        0x0 c:/devkitPro/portlibs/armv6k/lib\libfreetype.a(psnames.o)
 .data          0x0021d004        0x0 c:/devkitPro/portlibs/armv6k/lib\libfreetype.a(ftsystem.o)
 .data          0x0021d004        0x0 c:/devkitPro/portlibs/armv6k/lib\libfreetype.a(ftbitmap.o)
 .data          0x0021d004        0x0 c:/devkitPro/portlibs/armv6k/lib\libfreetype.a(ftglyph.o)
 .data          0x0021d004        0x0 c:/devkitPro/portlibs/armv6k/lib\libz.a(inflate.o)
 .data          0x0021d004        0x0 c:/devkitPro/portlibs/armv6k/lib\libz.a(inftrees.o)
 .data          0x0021d004        0x0 c:/devkitPro/portlibs/armv6k/lib\libz.a(zutil.o)
 .data          0x0021d004        0x0 c:/devkitPro/portlibs/armv6k/lib\libz.a(adler32.o)
 .data          0x0021d004        0x0 c:/devkitPro/portlibs/armv6k/lib\libz.a(crc32.o)
 .data          0x0021d004        0x0 c:/devkitPro/portlibs/armv6k/lib\libz.a(inffast.o)
 .data          0x0021d004        0xc c:/devkitPro/libctru/lib\libsf2d.a(sf2d.o)
 .data          0x0021d010        0x0 c:/devkitPro/libctru/lib\libsf2d.a(sf2d_private.o)
 .data          0x0021d010        0x0 c:/devkitPro/libctru/lib\libsf2d.a(sf2d_texture.o)
 .data          0x0021d010        0x0 c:/devkitPro/libctru/lib\libsf2d.a(shader.vsh.o)
 .data          0x0021d010        0x0 c:/devkitPro/libctru/lib\libctru.a(linear.o)
 .data          0x0021d010        0x0 c:/devkitPro/libctru/lib\libctru.a(mem_pool.o)
 .data          0x0021d010        0x0 c:/devkitPro/libctru/lib\libctru.a(vram.o)
 .data          0x0021d010        0xc c:/devkitPro/libctru/lib\libctru.a(gfx.o)
 .data          0x0021d01c        0x0 c:/devkitPro/libctru/lib\libctru.a(os.o)
 .data          0x0021d01c       0x68 c:/devkitPro/libctru/lib\libctru.a(romfs_dev.o)
 .data          0x0021d084        0x0 c:/devkitPro/libctru/lib\libctru.a(srv.o)
 .data          0x0021d084        0x0 c:/devkitPro/libctru/lib\libctru.a(gpu.o)
 .data          0x0021d084      0x53c c:/devkitPro/libctru/lib\libctru.a(gpuResetSequence.o)
                0x0021d084                gpuResetSequenceLength
                0x0021d088                gpuResetSequence
 .data          0x0021d5c0        0x0 c:/devkitPro/libctru/lib\libctru.a(shaderProgram.o)
 .data          0x0021d5c0        0x0 c:/devkitPro/libctru/lib\libctru.a(shbin.o)
 .data          0x0021d5c0        0x0 c:/devkitPro/libctru/lib\libctru.a(apt.o)
 .data          0x0021d5c0        0x0 c:/devkitPro/libctru/lib\libctru.a(cfgu.o)
 .data          0x0021d5c0        0x0 c:/devkitPro/libctru/lib\libctru.a(csnd.o)
 .data          0x0021d5c0        0x0 c:/devkitPro/libctru/lib\libctru.a(fs.o)
 .data          0x0021d5c0        0x0 c:/devkitPro/libctru/lib\libctru.a(gsp.o)
 .data          0x0021d5c0        0x0 c:/devkitPro/libctru/lib\libctru.a(gx.o)
 .data          0x0021d5c0        0x0 c:/devkitPro/libctru/lib\libctru.a(hid.o)
 .data          0x0021d5c0        0x0 c:/devkitPro/libctru/lib\libctru.a(irrst.o)
 .data          0x0021d5c0        0x0 c:/devkitPro/libctru/lib\libctru.a(ptm.o)
 .data          0x0021d5c0        0x0 c:/devkitPro/libctru/lib\libctru.a(rbtree_find.o)
 .data          0x0021d5c0        0x0 c:/devkitPro/libctru/lib\libctru.a(rbtree_init.o)
 .data          0x0021d5c0        0x0 c:/devkitPro/libctru/lib\libctru.a(rbtree_insert.o)
 .data          0x0021d5c0        0x0 c:/devkitPro/libctru/lib\libctru.a(rbtree_remove.o)
 .data          0x0021d5c0        0x0 c:/devkitPro/libctru/lib\libctru.a(rbtree_rotate.o)
 .data          0x0021d5c0        0x0 c:/devkitPro/libctru/lib\libctru.a(utf8_to_utf16.o)
 .data          0x0021d5c0        0x0 c:/devkitPro/libctru/lib\libctru.a(allocateHeaps.o)
 .data          0x0021d5c0        0x0 c:/devkitPro/libctru/lib\libctru.a(initArgv.o)
 .data          0x0021d5c0        0x0 c:/devkitPro/libctru/lib\libctru.a(initSystem.o)
 .data          0x0021d5c0        0x0 c:/devkitPro/libctru/lib\libctru.a(svc.o)
 .data          0x0021d5c0        0x4 c:/devkitPro/libctru/lib\libctru.a(stack_adjust.o)
                0x0021d5c0                __stacksize__
 .data          0x0021d5c4        0x0 c:/devkitPro/libctru/lib\libctru.a(mappable.o)
 .data          0x0021d5c4        0x0 c:/devkitPro/libctru/lib\libctru.a(rbtree_iterator.o)
 .data          0x0021d5c4        0x0 c:/devkitPro/libctru/lib\libctru.a(decode_utf8.o)
 .data          0x0021d5c4        0x0 c:/devkitPro/libctru/lib\libctru.a(encode_utf16.o)
 .data          0x0021d5c4        0x0 c:/devkitPro/libctru/lib\libctru.a(appExit.o)
 .data          0x0021d5c4        0x0 c:/devkitPro/libctru/lib\libctru.a(appInit.o)
 .data          0x0021d5c4        0x0 c:/devkitPro/libctru/lib\libctru.a(ctru_exit.o)
 .data          0x0021d5c4     0x1084 c:/devkitPro/libctru/lib\libctru.a(sdmc_dev.o)
 .data          0x0021e648        0x0 c:/devkitPro/libctru/lib\libctru.a(utf16_to_utf8.o)
 .data          0x0021e648        0x0 c:/devkitPro/libctru/lib\libctru.a(decode_utf16.o)
 .data          0x0021e648        0x0 c:/devkitPro/libctru/lib\libctru.a(encode_utf8.o)
 .data          0x0021e648        0x0 c:/devkitpro/devkitarm/bin/../lib/gcc/arm-none-eabi/4.9.2/../../../../arm-none-eabi/lib/armv6k/fpu\libm.a(lib_a-sf_cos.o)
 .data          0x0021e648        0x0 c:/devkitpro/devkitarm/bin/../lib/gcc/arm-none-eabi/4.9.2/../../../../arm-none-eabi/lib/armv6k/fpu\libm.a(lib_a-sf_sin.o)
 .data          0x0021e648        0x0 c:/devkitpro/devkitarm/bin/../lib/gcc/arm-none-eabi/4.9.2/../../../../arm-none-eabi/lib/armv6k/fpu\libm.a(lib_a-ef_rem_pio2.o)
 .data          0x0021e648        0x0 c:/devkitpro/devkitarm/bin/../lib/gcc/arm-none-eabi/4.9.2/../../../../arm-none-eabi/lib/armv6k/fpu\libm.a(lib_a-kf_cos.o)
 .data          0x0021e648        0x0 c:/devkitpro/devkitarm/bin/../lib/gcc/arm-none-eabi/4.9.2/../../../../arm-none-eabi/lib/armv6k/fpu\libm.a(lib_a-kf_rem_pio2.o)
 .data          0x0021e648        0x0 c:/devkitpro/devkitarm/bin/../lib/gcc/arm-none-eabi/4.9.2/../../../../arm-none-eabi/lib/armv6k/fpu\libm.a(lib_a-kf_sin.o)
 .data          0x0021e648        0x0 c:/devkitpro/devkitarm/bin/../lib/gcc/arm-none-eabi/4.9.2/../../../../arm-none-eabi/lib/armv6k/fpu\libm.a(lib_a-sf_fabs.o)
 .data          0x0021e648        0x0 c:/devkitpro/devkitarm/bin/../lib/gcc/arm-none-eabi/4.9.2/../../../../arm-none-eabi/lib/armv6k/fpu\libm.a(lib_a-sf_floor.o)
 .data          0x0021e648        0x0 c:/devkitpro/devkitarm/bin/../lib/gcc/arm-none-eabi/4.9.2/../../../../arm-none-eabi/lib/armv6k/fpu\libm.a(lib_a-sf_scalbn.o)
 .data          0x0021e648        0x0 c:/devkitpro/devkitarm/bin/../lib/gcc/arm-none-eabi/4.9.2/../../../../arm-none-eabi/lib/armv6k/fpu\libm.a(lib_a-sf_copysign.o)
 .data          0x0021e648        0x0 c:/devkitpro/devkitarm/bin/../lib/gcc/arm-none-eabi/4.9.2/armv6k/fpu\libgcc.a(_udivsi3.o)
 .data          0x0021e648        0x0 c:/devkitpro/devkitarm/bin/../lib/gcc/arm-none-eabi/4.9.2/armv6k/fpu\libgcc.a(_divsi3.o)
 .data          0x0021e648        0x0 c:/devkitpro/devkitarm/bin/../lib/gcc/arm-none-eabi/4.9.2/armv6k/fpu\libgcc.a(_dvmd_tls.o)
 .data          0x0021e648        0x0 c:/devkitpro/devkitarm/bin/../lib/gcc/arm-none-eabi/4.9.2/armv6k/fpu\libgcc.a(_arm_addsubsf3.o)
 .data          0x0021e648        0x0 c:/devkitpro/devkitarm/bin/../lib/gcc/arm-none-eabi/4.9.2/armv6k/fpu\libgcc.a(_popcountsi2.o)
 .data          0x0021e648        0x0 c:/devkitpro/devkitarm/bin/../lib/gcc/arm-none-eabi/4.9.2/../../../../arm-none-eabi/lib/armv6k/fpu\libg.a(lib_a-atol.o)
 .data          0x0021e648        0x0 c:/devkitpro/devkitarm/bin/../lib/gcc/arm-none-eabi/4.9.2/../../../../arm-none-eabi/lib/armv6k/fpu\libg.a(lib_a-bsearch.o)
 .data          0x0021e648        0x0 c:/devkitpro/devkitarm/bin/../lib/gcc/arm-none-eabi/4.9.2/../../../../arm-none-eabi/lib/armv6k/fpu\libg.a(lib_a-errno.o)
 .data          0x0021e648        0x0 c:/devkitpro/devkitarm/bin/../lib/gcc/arm-none-eabi/4.9.2/../../../../arm-none-eabi/lib/armv6k/fpu\libg.a(lib_a-fclose.o)
 .data          0x0021e648        0x0 c:/devkitpro/devkitarm/bin/../lib/gcc/arm-none-eabi/4.9.2/../../../../arm-none-eabi/lib/armv6k/fpu\libg.a(lib_a-fflush.o)
 .data          0x0021e648        0x0 c:/devkitpro/devkitarm/bin/../lib/gcc/arm-none-eabi/4.9.2/../../../../arm-none-eabi/lib/armv6k/fpu\libg.a(lib_a-findfp.o)
 .data          0x0021e648        0x0 c:/devkitpro/devkitarm/bin/../lib/gcc/arm-none-eabi/4.9.2/../../../../arm-none-eabi/lib/armv6k/fpu\libg.a(lib_a-fini.o)
 .data          0x0021e648        0x0 c:/devkitpro/devkitarm/bin/../lib/gcc/arm-none-eabi/4.9.2/../../../../arm-none-eabi/lib/armv6k/fpu\libg.a(lib_a-fopen.o)
 .data          0x0021e648        0x0 c:/devkitpro/devkitarm/bin/../lib/gcc/arm-none-eabi/4.9.2/../../../../arm-none-eabi/lib/armv6k/fpu\libg.a(lib_a-fread.o)
 .data          0x0021e648        0x0 c:/devkitpro/devkitarm/bin/../lib/gcc/arm-none-eabi/4.9.2/../../../../arm-none-eabi/lib/armv6k/fpu\libg.a(lib_a-freer.o)
 .data          0x0021e648        0x0 c:/devkitpro/devkitarm/bin/../lib/gcc/arm-none-eabi/4.9.2/../../../../arm-none-eabi/lib/armv6k/fpu\libg.a(lib_a-fseek.o)
 .data          0x0021e648        0x0 c:/devkitpro/devkitarm/bin/../lib/gcc/arm-none-eabi/4.9.2/../../../../arm-none-eabi/lib/armv6k/fpu\libg.a(lib_a-fseeko.o)
 .data          0x0021e648        0x0 c:/devkitpro/devkitarm/bin/../lib/gcc/arm-none-eabi/4.9.2/../../../../arm-none-eabi/lib/armv6k/fpu\libg.a(lib_a-ftell.o)
 .data          0x0021e648        0x0 c:/devkitpro/devkitarm/bin/../lib/gcc/arm-none-eabi/4.9.2/../../../../arm-none-eabi/lib/armv6k/fpu\libg.a(lib_a-ftello.o)
 .data          0x0021e648        0x0 c:/devkitpro/devkitarm/bin/../lib/gcc/arm-none-eabi/4.9.2/../../../../arm-none-eabi/lib/armv6k/fpu\libg.a(lib_a-fwalk.o)
 .data          0x0021e648        0x0 c:/devkitpro/devkitarm/bin/../lib/gcc/arm-none-eabi/4.9.2/../../../../arm-none-eabi/lib/armv6k/fpu\libg.a(lib_a-impure.o)
 .data          0x0021e648        0x0 c:/devkitpro/devkitarm/bin/../lib/gcc/arm-none-eabi/4.9.2/../../../../arm-none-eabi/lib/armv6k/fpu\libg.a(lib_a-init.o)
 .data          0x0021e648        0x0 c:/devkitpro/devkitarm/bin/../lib/gcc/arm-none-eabi/4.9.2/../../../../arm-none-eabi/lib/armv6k/fpu\libg.a(lib_a-makebuf.o)
 .data          0x0021e648        0x0 c:/devkitpro/devkitarm/bin/../lib/gcc/arm-none-eabi/4.9.2/../../../../arm-none-eabi/lib/armv6k/fpu\libg.a(lib_a-malloc.o)
 .data          0x0021e648        0x0 c:/devkitpro/devkitarm/bin/../lib/gcc/arm-none-eabi/4.9.2/../../../../arm-none-eabi/lib/armv6k/fpu\libg.a(lib_a-mallocr.o)
 .data          0x0021e648        0x0 c:/devkitpro/devkitarm/bin/../lib/gcc/arm-none-eabi/4.9.2/../../../../arm-none-eabi/lib/armv6k/fpu\libg.a(lib_a-memchr.o)
 .data          0x0021e648        0x0 c:/devkitpro/devkitarm/bin/../lib/gcc/arm-none-eabi/4.9.2/../../../../arm-none-eabi/lib/armv6k/fpu\libg.a(lib_a-memcmp.o)
 .data          0x0021e648        0x0 c:/devkitpro/devkitarm/bin/../lib/gcc/arm-none-eabi/4.9.2/../../../../arm-none-eabi/lib/armv6k/fpu\libg.a(lib_a-memcpy.o)
 .data          0x0021e648        0x0 c:/devkitpro/devkitarm/bin/../lib/gcc/arm-none-eabi/4.9.2/../../../../arm-none-eabi/lib/armv6k/fpu\libg.a(lib_a-memmove.o)
 .data          0x0021e648        0x0 c:/devkitpro/devkitarm/bin/../lib/gcc/arm-none-eabi/4.9.2/../../../../arm-none-eabi/lib/armv6k/fpu\libg.a(lib_a-memset.o)
 .data          0x0021e648        0x0 c:/devkitpro/devkitarm/bin/../lib/gcc/arm-none-eabi/4.9.2/../../../../arm-none-eabi/lib/armv6k/fpu\libg.a(lib_a-mlock.o)
 .data          0x0021e648        0x0 c:/devkitpro/devkitarm/bin/../lib/gcc/arm-none-eabi/4.9.2/../../../../arm-none-eabi/lib/armv6k/fpu\libg.a(lib_a-qsort.o)
 .data          0x0021e648        0x0 c:/devkitpro/devkitarm/bin/../lib/gcc/arm-none-eabi/4.9.2/../../../../arm-none-eabi/lib/armv6k/fpu\libg.a(lib_a-realloc.o)
 .data          0x0021e648        0x0 c:/devkitpro/devkitarm/bin/../lib/gcc/arm-none-eabi/4.9.2/../../../../arm-none-eabi/lib/armv6k/fpu\libg.a(lib_a-reallocr.o)
 .data          0x0021e648        0x0 c:/devkitpro/devkitarm/bin/../lib/gcc/arm-none-eabi/4.9.2/../../../../arm-none-eabi/lib/armv6k/fpu\libg.a(lib_a-refill.o)
 .data          0x0021e648        0x0 c:/devkitpro/devkitarm/bin/../lib/gcc/arm-none-eabi/4.9.2/../../../../arm-none-eabi/lib/armv6k/fpu\libg.a(lib_a-setjmp.o)
 .data          0x0021e648        0x0 c:/devkitpro/devkitarm/bin/../lib/gcc/arm-none-eabi/4.9.2/../../../../arm-none-eabi/lib/armv6k/fpu\libg.a(lib_a-snprintf.o)
 .data          0x0021e648        0x0 c:/devkitpro/devkitarm/bin/../lib/gcc/arm-none-eabi/4.9.2/../../../../arm-none-eabi/lib/armv6k/fpu\libg.a(lib_a-sprintf.o)
 .data          0x0021e648        0x0 c:/devkitpro/devkitarm/bin/../lib/gcc/arm-none-eabi/4.9.2/../../../../arm-none-eabi/lib/armv6k/fpu\libg.a(lib_a-stdio.o)
 .data          0x0021e648        0x0 c:/devkitpro/devkitarm/bin/../lib/gcc/arm-none-eabi/4.9.2/../../../../arm-none-eabi/lib/armv6k/fpu\libg.a(lib_a-strchr.o)
 .data          0x0021e648        0x0 c:/devkitpro/devkitarm/bin/../lib/gcc/arm-none-eabi/4.9.2/../../../../arm-none-eabi/lib/armv6k/fpu\libg.a(lib_a-strcmp.o)
 .data          0x0021e648        0x0 c:/devkitpro/devkitarm/bin/../lib/gcc/arm-none-eabi/4.9.2/../../../../arm-none-eabi/lib/armv6k/fpu\libg.a(lib_a-strcpy.o)
 .data          0x0021e648        0x0 c:/devkitpro/devkitarm/bin/../lib/gcc/arm-none-eabi/4.9.2/../../../../arm-none-eabi/lib/armv6k/fpu\libg.a(lib_a-strlen.o)
 .data          0x0021e648        0x0 c:/devkitpro/devkitarm/bin/../lib/gcc/arm-none-eabi/4.9.2/../../../../arm-none-eabi/lib/armv6k/fpu\libg.a(lib_a-strncat.o)
 .data          0x0021e648        0x0 c:/devkitpro/devkitarm/bin/../lib/gcc/arm-none-eabi/4.9.2/../../../../arm-none-eabi/lib/armv6k/fpu\libg.a(lib_a-strncmp.o)
 .data          0x0021e648        0x0 c:/devkitpro/devkitarm/bin/../lib/gcc/arm-none-eabi/4.9.2/../../../../arm-none-eabi/lib/armv6k/fpu\libg.a(lib_a-strncpy.o)
 .data          0x0021e648        0x0 c:/devkitpro/devkitarm/bin/../lib/gcc/arm-none-eabi/4.9.2/../../../../arm-none-eabi/lib/armv6k/fpu\libg.a(lib_a-strrchr.o)
 .data          0x0021e648        0x0 c:/devkitpro/devkitarm/bin/../lib/gcc/arm-none-eabi/4.9.2/../../../../arm-none-eabi/lib/armv6k/fpu\libg.a(lib_a-strstr.o)
 .data          0x0021e648        0x0 c:/devkitpro/devkitarm/bin/../lib/gcc/arm-none-eabi/4.9.2/../../../../arm-none-eabi/lib/armv6k/fpu\libg.a(lib_a-strtok.o)
 .data          0x0021e648        0x0 c:/devkitpro/devkitarm/bin/../lib/gcc/arm-none-eabi/4.9.2/../../../../arm-none-eabi/lib/armv6k/fpu\libg.a(lib_a-strtok_r.o)
 .data          0x0021e648        0x0 c:/devkitpro/devkitarm/bin/../lib/gcc/arm-none-eabi/4.9.2/../../../../arm-none-eabi/lib/armv6k/fpu\libg.a(lib_a-strtol.o)
 .data          0x0021e648        0x0 c:/devkitpro/devkitarm/bin/../lib/gcc/arm-none-eabi/4.9.2/../../../../arm-none-eabi/lib/armv6k/fpu\libg.a(lib_a-svfprintf.o)
 .data          0x0021e648        0x0 c:/devkitpro/devkitarm/bin/../lib/gcc/arm-none-eabi/4.9.2/../../../../arm-none-eabi/lib/armv6k/fpu\libg.a(lib_a-vsnprintf.o)
 .data          0x0021e648        0x0 c:/devkitpro/devkitarm/bin/../lib/gcc/arm-none-eabi/4.9.2/../../../../arm-none-eabi/lib/armv6k/fpu\libg.a(lib_a-vswprintf.o)
 .data          0x0021e648        0x0 c:/devkitpro/devkitarm/bin/../lib/gcc/arm-none-eabi/4.9.2/../../../../arm-none-eabi/lib/armv6k/fpu\libg.a(lib_a-wcrtomb.o)
 .data          0x0021e648        0x0 c:/devkitpro/devkitarm/bin/../lib/gcc/arm-none-eabi/4.9.2/../../../../arm-none-eabi/lib/armv6k/fpu\libg.a(lib_a-wcsrtombs.o)
 .data          0x0021e648        0x0 c:/devkitpro/devkitarm/bin/../lib/gcc/arm-none-eabi/4.9.2/../../../../arm-none-eabi/lib/armv6k/fpu\libg.a(lib_a-wctomb_r.o)
 .data          0x0021e648        0x0 c:/devkitpro/devkitarm/bin/../lib/gcc/arm-none-eabi/4.9.2/../../../../arm-none-eabi/lib/armv6k/fpu\libg.a(lib_a-ctype_.o)
 .data          0x0021e648        0x0 c:/devkitpro/devkitarm/bin/../lib/gcc/arm-none-eabi/4.9.2/../../../../arm-none-eabi/lib/armv6k/fpu\libg.a(lib_a-dtoa.o)
 .data          0x0021e648        0x0 c:/devkitpro/devkitarm/bin/../lib/gcc/arm-none-eabi/4.9.2/../../../../arm-none-eabi/lib/armv6k/fpu\libg.a(lib_a-flags.o)
 .data          0x0021e648        0x0 c:/devkitpro/devkitarm/bin/../lib/gcc/arm-none-eabi/4.9.2/../../../../arm-none-eabi/lib/armv6k/fpu\libg.a(lib_a-locale.o)
 .data          0x0021e648        0x0 c:/devkitpro/devkitarm/bin/../lib/gcc/arm-none-eabi/4.9.2/../../../../arm-none-eabi/lib/armv6k/fpu\libg.a(lib_a-mbtowc_r.o)
 .data          0x0021e648        0x0 c:/devkitpro/devkitarm/bin/../lib/gcc/arm-none-eabi/4.9.2/../../../../arm-none-eabi/lib/armv6k/fpu\libg.a(lib_a-mprec.o)
 .data          0x0021e648        0x0 c:/devkitpro/devkitarm/bin/../lib/gcc/arm-none-eabi/4.9.2/../../../../arm-none-eabi/lib/armv6k/fpu\libg.a(lib_a-s_fpclassify.o)
 .data          0x0021e648        0x0 c:/devkitpro/devkitarm/bin/../lib/gcc/arm-none-eabi/4.9.2/../../../../arm-none-eabi/lib/armv6k/fpu\libg.a(lib_a-s_frexp.o)
 .data          0x0021e648        0x0 c:/devkitpro/devkitarm/bin/../lib/gcc/arm-none-eabi/4.9.2/../../../../arm-none-eabi/lib/armv6k/fpu\libg.a(lib_a-strcasecmp.o)
 .data          0x0021e648        0x0 c:/devkitpro/devkitarm/bin/../lib/gcc/arm-none-eabi/4.9.2/../../../../arm-none-eabi/lib/armv6k/fpu\libg.a(lib_a-strcat.o)
 .data          0x0021e648        0x0 c:/devkitpro/devkitarm/bin/../lib/gcc/arm-none-eabi/4.9.2/../../../../arm-none-eabi/lib/armv6k/fpu\libg.a(lib_a-strlcpy.o)
 .data          0x0021e648        0x0 c:/devkitpro/devkitarm/bin/../lib/gcc/arm-none-eabi/4.9.2/../../../../arm-none-eabi/lib/armv6k/fpu\libg.a(lib_a-strncasecmp.o)
 .data          0x0021e648        0x0 c:/devkitpro/devkitarm/bin/../lib/gcc/arm-none-eabi/4.9.2/../../../../arm-none-eabi/lib/armv6k/fpu\libg.a(lib_a-svfiprintf.o)
 .data          0x0021e648        0x0 c:/devkitpro/devkitarm/bin/../lib/gcc/arm-none-eabi/4.9.2/../../../../arm-none-eabi/lib/armv6k/fpu\libg.a(lib_a-svfwprintf.o)
 .data          0x0021e648        0x0 c:/devkitpro/devkitarm/bin/../lib/gcc/arm-none-eabi/4.9.2/../../../../arm-none-eabi/lib/armv6k/fpu\libg.a(lib_a-wcslen.o)
 .data          0x0021e648        0x0 c:/devkitpro/devkitarm/bin/../lib/gcc/arm-none-eabi/4.9.2/../../../../arm-none-eabi/lib/armv6k/fpu\libg.a(lib_a-wcsnrtombs.o)
 .data          0x0021e648        0x0 c:/devkitpro/devkitarm/bin/../lib/gcc/arm-none-eabi/4.9.2/../../../../arm-none-eabi/lib/armv6k/fpu\libg.a(lib_a-wmemchr.o)
 .data          0x0021e648        0x0 c:/devkitpro/devkitarm/bin/../lib/gcc/arm-none-eabi/4.9.2/../../../../arm-none-eabi/lib/armv6k/fpu\libg.a(lib_a-btowc.o)
 .data          0x0021e648        0x0 c:/devkitpro/devkitarm/bin/../lib/gcc/arm-none-eabi/4.9.2/../../../../arm-none-eabi/lib/armv6k/fpu\libg.a(lib_a-callocr.o)
 .data          0x0021e648        0x0 c:/devkitpro/devkitarm/bin/../lib/gcc/arm-none-eabi/4.9.2/../../../../arm-none-eabi/lib/armv6k/fpu\libg.a(lib_a-getenv_r.o)
 .data          0x0021e648        0x0 c:/devkitpro/devkitarm/bin/../lib/gcc/arm-none-eabi/4.9.2/../../../../arm-none-eabi/lib/armv6k/fpu\libg.a(lib_a-mbrlen.o)
 .data          0x0021e648        0x0 c:/devkitpro/devkitarm/bin/../lib/gcc/arm-none-eabi/4.9.2/../../../../arm-none-eabi/lib/armv6k/fpu\libg.a(lib_a-mbrtowc.o)
 .data          0x0021e648        0x0 c:/devkitpro/devkitarm/bin/../lib/gcc/arm-none-eabi/4.9.2/../../../../arm-none-eabi/lib/armv6k/fpu\libg.a(lib_a-mbsnrtowcs.o)
 .data          0x0021e648        0x0 c:/devkitpro/devkitarm/bin/../lib/gcc/arm-none-eabi/4.9.2/../../../../arm-none-eabi/lib/armv6k/fpu\libg.a(lib_a-environ.o)
 .data          0x0021e648        0x0 c:/devkitpro/devkitarm/bin/../lib/gcc/arm-none-eabi/4.9.2/../../../../arm-none-eabi/lib/armv6k/fpu\libg.a(lib_a-envlock.o)
 .data          0x0021e648       0x44 c:/devkitpro/devkitarm/bin/../lib/gcc/arm-none-eabi/4.9.2/../../../../arm-none-eabi/lib/armv6k/fpu\libsysbase.a(iosupport.o)
                0x0021e64c                devoptab_list
 .data          0x0021e68c        0x0 c:/devkitpro/devkitarm/bin/../lib/gcc/arm-none-eabi/4.9.2/../../../../arm-none-eabi/lib/armv6k/fpu\libsysbase.a(close.o)
 .data          0x0021e68c        0x0 c:/devkitpro/devkitarm/bin/../lib/gcc/arm-none-eabi/4.9.2/../../../../arm-none-eabi/lib/armv6k/fpu\libsysbase.a(fstat.o)
 .data          0x0021e68c        0x0 c:/devkitpro/devkitarm/bin/../lib/gcc/arm-none-eabi/4.9.2/../../../../arm-none-eabi/lib/armv6k/fpu\libsysbase.a(isatty.o)
 .data          0x0021e68c        0x0 c:/devkitpro/devkitarm/bin/../lib/gcc/arm-none-eabi/4.9.2/../../../../arm-none-eabi/lib/armv6k/fpu\libsysbase.a(lseek.o)
 .data          0x0021e68c        0x0 c:/devkitpro/devkitarm/bin/../lib/gcc/arm-none-eabi/4.9.2/../../../../arm-none-eabi/lib/armv6k/fpu\libsysbase.a(open.o)
 .data          0x0021e68c        0x0 c:/devkitpro/devkitarm/bin/../lib/gcc/arm-none-eabi/4.9.2/../../../../arm-none-eabi/lib/armv6k/fpu\libsysbase.a(read.o)
 .data          0x0021e68c        0x0 c:/devkitpro/devkitarm/bin/../lib/gcc/arm-none-eabi/4.9.2/../../../../arm-none-eabi/lib/armv6k/fpu\libsysbase.a(sbrk.o)
 .data          0x0021e68c        0x0 c:/devkitpro/devkitarm/bin/../lib/gcc/arm-none-eabi/4.9.2/../../../../arm-none-eabi/lib/armv6k/fpu\libsysbase.a(write.o)
 .data          0x0021e68c        0x0 c:/devkitpro/devkitarm/bin/../lib/gcc/arm-none-eabi/4.9.2/../../../../arm-none-eabi/lib/armv6k/fpu\libsysbase.a(malloc_vars.o)
 .data          0x0021e68c     0x1000 c:/devkitpro/devkitarm/bin/../lib/gcc/arm-none-eabi/4.9.2/../../../../arm-none-eabi/lib/armv6k/fpu\libsysbase.a(chdir.o)
 .data          0x0021f68c        0x0 c:/devkitpro/devkitarm/bin/../lib/gcc/arm-none-eabi/4.9.2/../../../../arm-none-eabi/lib/armv6k/fpu\libsysbase.a(flock.o)
 .data          0x0021f68c        0x0 c:/devkitpro/devkitarm/bin/../lib/gcc/arm-none-eabi/4.9.2/../../../../arm-none-eabi/lib/armv6k/fpu\libsysbase.a(syscall_support.o)
 .data          0x0021f68c     0x1024 c:/devkitpro/devkitarm/bin/../lib/gcc/arm-none-eabi/4.9.2/../../../../arm-none-eabi/lib/armv6k/fpu\libsysbase.a(handle_manager.o)
 .data          0x002206b0        0x0 c:/devkitpro/devkitarm/bin/../lib/gcc/arm-none-eabi/4.9.2/../../../../arm-none-eabi/lib/armv6k/fpu\libsysbase.a(getreent.o)
 .data          0x002206b0        0x0 c:/devkitpro/devkitarm/bin/../lib/gcc/arm-none-eabi/4.9.2/armv6k/fpu\libgcc.a(_aeabi_uldivmod.o)
 .data          0x002206b0        0x0 c:/devkitpro/devkitarm/bin/../lib/gcc/arm-none-eabi/4.9.2/armv6k/fpu\libgcc.a(bpabi.o)
 .data          0x002206b0        0x0 c:/devkitpro/devkitarm/bin/../lib/gcc/arm-none-eabi/4.9.2/armv6k/fpu\libgcc.a(_divdi3.o)
 .data          0x002206b0        0x0 c:/devkitpro/devkitarm/bin/../lib/gcc/arm-none-eabi/4.9.2/armv6k/fpu\libgcc.a(_udivdi3.o)
 .data          0x002206b0        0x0 c:/devkitpro/devkitarm/bin/../lib/gcc/arm-none-eabi/4.9.2/../../../../arm-none-eabi/lib/armv6k/fpu\libg.a(lib_a-strnlen.o)
 .data          0x002206b0        0x0 c:/devkitpro/devkitarm/bin/../lib/gcc/arm-none-eabi/4.9.2/armv6k/fpu/crtend.o
 .data          0x002206b0        0x0 c:/devkitpro/devkitarm/bin/../lib/gcc/arm-none-eabi/4.9.2/armv6k/fpu/crtn.o
 *(.data.*)
 .data.impure_data
                0x002206b0      0x428 c:/devkitpro/devkitarm/bin/../lib/gcc/arm-none-eabi/4.9.2/../../../../arm-none-eabi/lib/armv6k/fpu\libg.a(lib_a-impure.o)
 .data._impure_ptr
                0x00220ad8        0x4 c:/devkitpro/devkitarm/bin/../lib/gcc/arm-none-eabi/4.9.2/../../../../arm-none-eabi/lib/armv6k/fpu\libg.a(lib_a-impure.o)
                0x00220ad8                _impure_ptr
 .data.__malloc_av_
                0x00220adc      0x408 c:/devkitpro/devkitarm/bin/../lib/gcc/arm-none-eabi/4.9.2/../../../../arm-none-eabi/lib/armv6k/fpu\libg.a(lib_a-mallocr.o)
                0x00220adc                __malloc_av_
 .data.__malloc_trim_threshold
                0x00220ee4        0x4 c:/devkitpro/devkitarm/bin/../lib/gcc/arm-none-eabi/4.9.2/../../../../arm-none-eabi/lib/armv6k/fpu\libg.a(lib_a-mallocr.o)
                0x00220ee4                __malloc_trim_threshold
 .data.__malloc_sbrk_base
                0x00220ee8        0x4 c:/devkitpro/devkitarm/bin/../lib/gcc/arm-none-eabi/4.9.2/../../../../arm-none-eabi/lib/armv6k/fpu\libg.a(lib_a-mallocr.o)
                0x00220ee8                __malloc_sbrk_base
 .data.__wctomb
                0x00220eec        0x4 c:/devkitpro/devkitarm/bin/../lib/gcc/arm-none-eabi/4.9.2/../../../../arm-none-eabi/lib/armv6k/fpu\libg.a(lib_a-wctomb_r.o)
                0x00220eec                __wctomb
 .data.__ctype_ptr__
                0x00220ef0        0x4 c:/devkitpro/devkitarm/bin/../lib/gcc/arm-none-eabi/4.9.2/../../../../arm-none-eabi/lib/armv6k/fpu\libg.a(lib_a-ctype_.o)
                0x00220ef0                __ctype_ptr__
 .data.lc_message_charset
                0x00220ef4       0x20 c:/devkitpro/devkitarm/bin/../lib/gcc/arm-none-eabi/4.9.2/../../../../arm-none-eabi/lib/armv6k/fpu\libg.a(lib_a-locale.o)
 .data.lconv    0x00220f14       0x38 c:/devkitpro/devkitarm/bin/../lib/gcc/arm-none-eabi/4.9.2/../../../../arm-none-eabi/lib/armv6k/fpu\libg.a(lib_a-locale.o)
 .data.current_categories
                0x00220f4c       0xe0 c:/devkitpro/devkitarm/bin/../lib/gcc/arm-none-eabi/4.9.2/../../../../arm-none-eabi/lib/armv6k/fpu\libg.a(lib_a-locale.o)
 .data.lc_ctype_charset
                0x0022102c       0x20 c:/devkitpro/devkitarm/bin/../lib/gcc/arm-none-eabi/4.9.2/../../../../arm-none-eabi/lib/armv6k/fpu\libg.a(lib_a-locale.o)
 .data.__default_locale
                0x0022104c       0x20 c:/devkitpro/devkitarm/bin/../lib/gcc/arm-none-eabi/4.9.2/../../../../arm-none-eabi/lib/armv6k/fpu\libg.a(lib_a-locale.o)
                0x0022104c                __default_locale
 .data.__mb_cur_max
                0x0022106c        0x4 c:/devkitpro/devkitarm/bin/../lib/gcc/arm-none-eabi/4.9.2/../../../../arm-none-eabi/lib/armv6k/fpu\libg.a(lib_a-locale.o)
                0x0022106c                __mb_cur_max
 .data.__mbtowc
                0x00221070        0x4 c:/devkitpro/devkitarm/bin/../lib/gcc/arm-none-eabi/4.9.2/../../../../arm-none-eabi/lib/armv6k/fpu\libg.a(lib_a-mbtowc_r.o)
                0x00221070                __mbtowc
 .data.environ  0x00221074        0x4 c:/devkitpro/devkitarm/bin/../lib/gcc/arm-none-eabi/4.9.2/../../../../arm-none-eabi/lib/armv6k/fpu\libg.a(lib_a-environ.o)
                0x00221074                environ
 *(.gnu.linkonce.d*)
                0x00221078                . = ALIGN (0x4)

.igot.plt       0x00221078        0x0
 .igot.plt      0x00221078        0x0 c:/devkitpro/devkitarm/bin/../lib/gcc/arm-none-eabi/4.9.2/../../../../arm-none-eabi/lib/armv6k/fpu/3dsx_crt0.o

.eh_frame       0x00221078       0x74
 .eh_frame      0x00221078        0x0 c:/devkitpro/devkitarm/bin/../lib/gcc/arm-none-eabi/4.9.2/armv6k/fpu/crtbegin.o
 .eh_frame      0x00221078       0x70 c:/devkitpro/devkitarm/bin/../lib/gcc/arm-none-eabi/4.9.2/../../../../arm-none-eabi/lib/armv6k/fpu\libg.a(lib_a-strcmp.o)
 .eh_frame      0x002210e8        0x4 c:/devkitpro/devkitarm/bin/../lib/gcc/arm-none-eabi/4.9.2/armv6k/fpu/crtend.o

.jcr            0x002210ec        0x4
 .jcr           0x002210ec        0x0 c:/devkitpro/devkitarm/bin/../lib/gcc/arm-none-eabi/4.9.2/armv6k/fpu/crtbegin.o
 .jcr           0x002210ec        0x4 c:/devkitpro/devkitarm/bin/../lib/gcc/arm-none-eabi/4.9.2/armv6k/fpu/crtend.o

.tm_clone_table
                0x002210f0        0x0
 .tm_clone_table
                0x002210f0        0x0 c:/devkitpro/devkitarm/bin/../lib/gcc/arm-none-eabi/4.9.2/armv6k/fpu/crtbegin.o
 .tm_clone_table
                0x002210f0        0x0 c:/devkitpro/devkitarm/bin/../lib/gcc/arm-none-eabi/4.9.2/armv6k/fpu/crtend.o
                0x002210f0                __TMC_END__

.preinit_array  0x002210f0        0x0
                0x002210f0                PROVIDE (__preinit_array_start, .)
 *(.preinit_array)
                0x002210f0                PROVIDE (__preinit_array_end, .)

.init_array     0x002210f0        0x4
                0x002210f0                PROVIDE (__init_array_start, .)
 *(SORT(.init_array.*))
 *(.init_array)
 .init_array    0x002210f0        0x4 c:/devkitpro/devkitarm/bin/../lib/gcc/arm-none-eabi/4.9.2/armv6k/fpu/crtbegin.o
                0x002210f4                PROVIDE (__init_array_end, .)

.fini_array     0x002210f4        0x4
                0x002210f4                PROVIDE (__fini_array_start, .)
 *(.fini_array)
 .fini_array    0x002210f4        0x4 c:/devkitpro/devkitarm/bin/../lib/gcc/arm-none-eabi/4.9.2/armv6k/fpu/crtbegin.o
 *(SORT(.fini_array.*))
                0x002210f8                PROVIDE (__fini_array_end, .)

.ctors
 *crtbegin.o(.ctors)
 *(EXCLUDE_FILE(*crtend.o) .ctors)
 *(SORT(.ctors.*))
 *(.ctors)

.dtors
 *crtbegin.o(.dtors)
 *(EXCLUDE_FILE(*crtend.o) .dtors)
 *(SORT(.dtors.*))
 *(.dtors)
                0x002210f8                __bss_start__ = .

.bss            0x002210f8     0xeb08
 *(.dynbss)
 *(.bss)
 .bss           0x002210f8        0x0 c:/devkitpro/devkitarm/bin/../lib/gcc/arm-none-eabi/4.9.2/../../../../arm-none-eabi/lib/armv6k/fpu/3dsx_crt0.o
 .bss           0x002210f8        0x0 c:/devkitpro/devkitarm/bin/../lib/gcc/arm-none-eabi/4.9.2/armv6k/fpu/crti.o
 .bss           0x002210f8       0x1c c:/devkitpro/devkitarm/bin/../lib/gcc/arm-none-eabi/4.9.2/armv6k/fpu/crtbegin.o
 .bss           0x00221114        0x0 eightbit.ttf.o
 .bss           0x00221114        0x0 friskBack.o
 .bss           0x00221114        0x0 friskFace.o
 .bss           0x00221114        0x0 friskLeft1.o
 .bss           0x00221114        0x0 friskRight1.o
 .bss           0x00221114       0x10 main.o
                0x00221114                player
                0x00221118                textHeight
                0x0022111c                textWidth
                0x00221120                room
 .bss           0x00221124        0x0 torielHouse1.o
 .bss           0x00221124        0x8 c:/devkitPro/libctru/lib\libsftd.a(sftd.o)
 .bss           0x0022112c        0x0 c:/devkitPro/libctru/lib\libsftd.a(texture_atlas.o)
 .bss           0x0022112c        0x0 c:/devkitPro/libctru/lib\libsftd.a(bin_packing_2d.o)
 .bss           0x0022112c        0x0 c:/devkitPro/libctru/lib\libsftd.a(int_htab.o)
 .bss           0x0022112c        0x0 c:/devkitPro/portlibs/armv6k/lib\libfreetype.a(ftinit.o)
 .bss           0x0022112c        0x0 c:/devkitPro/portlibs/armv6k/lib\libfreetype.a(ftbase.o)
 .bss           0x0022112c        0x0 c:/devkitPro/portlibs/armv6k/lib\libfreetype.a(truetype.o)
 .bss           0x0022112c        0x0 c:/devkitPro/portlibs/armv6k/lib\libfreetype.a(type1.o)
 .bss           0x0022112c        0x0 c:/devkitPro/portlibs/armv6k/lib\libfreetype.a(cff.o)
 .bss           0x0022112c        0x0 c:/devkitPro/portlibs/armv6k/lib\libfreetype.a(type1cid.o)
 .bss           0x0022112c        0x0 c:/devkitPro/portlibs/armv6k/lib\libfreetype.a(pfr.o)
 .bss           0x0022112c        0x0 c:/devkitPro/portlibs/armv6k/lib\libfreetype.a(type42.o)
 .bss           0x0022112c        0x0 c:/devkitPro/portlibs/armv6k/lib\libfreetype.a(winfnt.o)
 .bss           0x0022112c        0x0 c:/devkitPro/portlibs/armv6k/lib\libfreetype.a(pcf.o)
 .bss           0x0022112c        0x0 c:/devkitPro/portlibs/armv6k/lib\libfreetype.a(bdf.o)
 .bss           0x0022112c        0x0 c:/devkitPro/portlibs/armv6k/lib\libfreetype.a(sfnt.o)
 .bss           0x0022112c        0x0 c:/devkitPro/portlibs/armv6k/lib\libfreetype.a(autofit.o)
 .bss           0x0022112c        0x0 c:/devkitPro/portlibs/armv6k/lib\libfreetype.a(pshinter.o)
 .bss           0x0022112c        0x0 c:/devkitPro/portlibs/armv6k/lib\libfreetype.a(raster.o)
 .bss           0x0022112c        0x0 c:/devkitPro/portlibs/armv6k/lib\libfreetype.a(smooth.o)
 .bss           0x0022112c        0x0 c:/devkitPro/portlibs/armv6k/lib\libfreetype.a(ftcache.o)
 .bss           0x0022112c        0x0 c:/devkitPro/portlibs/armv6k/lib\libfreetype.a(ftgzip.o)
 .bss           0x0022112c        0x0 c:/devkitPro/portlibs/armv6k/lib\libfreetype.a(ftlzw.o)
 .bss           0x0022112c        0x0 c:/devkitPro/portlibs/armv6k/lib\libfreetype.a(psaux.o)
 .bss           0x0022112c        0x0 c:/devkitPro/portlibs/armv6k/lib\libfreetype.a(psnames.o)
 .bss           0x0022112c        0x0 c:/devkitPro/portlibs/armv6k/lib\libfreetype.a(ftsystem.o)
 .bss           0x0022112c        0x0 c:/devkitPro/portlibs/armv6k/lib\libfreetype.a(ftbitmap.o)
 .bss           0x0022112c        0x0 c:/devkitPro/portlibs/armv6k/lib\libfreetype.a(ftglyph.o)
 .bss           0x0022112c        0x0 c:/devkitPro/portlibs/armv6k/lib\libz.a(inflate.o)
 .bss           0x0022112c        0x0 c:/devkitPro/portlibs/armv6k/lib\libz.a(inftrees.o)
 .bss           0x0022112c        0x0 c:/devkitPro/portlibs/armv6k/lib\libz.a(zutil.o)
 .bss           0x0022112c        0x0 c:/devkitPro/portlibs/armv6k/lib\libz.a(adler32.o)
 .bss           0x0022112c        0x0 c:/devkitPro/portlibs/armv6k/lib\libz.a(crc32.o)
 .bss           0x0022112c        0x0 c:/devkitPro/portlibs/armv6k/lib\libz.a(inffast.o)
 *fill*         0x0022112c        0x4 
 .bss           0x00221130       0xd8 c:/devkitPro/libctru/lib\libsf2d.a(sf2d.o)
 .bss           0x00221208        0x0 c:/devkitPro/libctru/lib\libsf2d.a(sf2d_private.o)
 .bss           0x00221208        0x0 c:/devkitPro/libctru/lib\libsf2d.a(sf2d_texture.o)
 .bss           0x00221208        0x0 c:/devkitPro/libctru/lib\libsf2d.a(shader.vsh.o)
 .bss           0x00221208       0x14 c:/devkitPro/libctru/lib\libctru.a(linear.o)
 .bss           0x0022121c        0x0 c:/devkitPro/libctru/lib\libctru.a(mem_pool.o)
 .bss           0x0022121c       0x14 c:/devkitPro/libctru/lib\libctru.a(vram.o)
 .bss           0x00221230        0xc c:/devkitPro/libctru/lib\libctru.a(gfx.o)
                0x00221234                screenFree
 .bss           0x0022123c        0x1 c:/devkitPro/libctru/lib\libctru.a(os.o)
                0x0022123c                __ctru_speedup
 *fill*         0x0022123d        0x3 
 .bss           0x00221240     0x3050 c:/devkitPro/libctru/lib\libctru.a(romfs_dev.o)
 .bss           0x00224290        0x4 c:/devkitPro/libctru/lib\libctru.a(srv.o)
 .bss           0x00224294      0x400 c:/devkitPro/libctru/lib\libctru.a(gpu.o)
 .bss           0x00224694        0x0 c:/devkitPro/libctru/lib\libctru.a(gpuResetSequence.o)
 .bss           0x00224694        0x0 c:/devkitPro/libctru/lib\libctru.a(shaderProgram.o)
 .bss           0x00224694        0x0 c:/devkitPro/libctru/lib\libctru.a(shbin.o)
 .bss           0x00224694       0x5c c:/devkitPro/libctru/lib\libctru.a(apt.o)
                0x00224698                aptStatusEvent
                0x002246a8                aptStatus
                0x002246ac                aptStatusPower
                0x002246b0                aptSleepSync
                0x002246d8                aptStatusBeforeSleep
 .bss           0x002246f0        0x4 c:/devkitPro/libctru/lib\libctru.a(cfgu.o)
 .bss           0x002246f4       0x1c c:/devkitPro/libctru/lib\libctru.a(csnd.o)
                0x00224700                csndSharedMem
                0x00224704                csndChannels
 .bss           0x00224710        0x8 c:/devkitPro/libctru/lib\libctru.a(fs.o)
 .bss           0x00224718       0x10 c:/devkitPro/libctru/lib\libctru.a(gsp.o)
                0x00224720                gspGpuHandle
                0x00224724                gspLcdHandle
 .bss           0x00224728        0x0 c:/devkitPro/libctru/lib\libctru.a(gx.o)
 .bss           0x00224728       0x2c c:/devkitPro/libctru/lib\libctru.a(hid.o)
 .bss           0x00224754        0xc c:/devkitPro/libctru/lib\libctru.a(irrst.o)
 .bss           0x00224760        0x8 c:/devkitPro/libctru/lib\libctru.a(ptm.o)
 .bss           0x00224768        0x0 c:/devkitPro/libctru/lib\libctru.a(rbtree_find.o)
 .bss           0x00224768        0x0 c:/devkitPro/libctru/lib\libctru.a(rbtree_init.o)
 .bss           0x00224768        0x0 c:/devkitPro/libctru/lib\libctru.a(rbtree_insert.o)
 .bss           0x00224768        0x0 c:/devkitPro/libctru/lib\libctru.a(rbtree_remove.o)
 .bss           0x00224768        0x0 c:/devkitPro/libctru/lib\libctru.a(rbtree_rotate.o)
 .bss           0x00224768        0x0 c:/devkitPro/libctru/lib\libctru.a(utf8_to_utf16.o)
 .bss           0x00224768        0x0 c:/devkitPro/libctru/lib\libctru.a(allocateHeaps.o)
 .bss           0x00224768        0x0 c:/devkitPro/libctru/lib\libctru.a(initArgv.o)
 .bss           0x00224768        0x0 c:/devkitPro/libctru/lib\libctru.a(initSystem.o)
 .bss           0x00224768        0x0 c:/devkitPro/libctru/lib\libctru.a(svc.o)
 .bss           0x00224768        0x8 c:/devkitPro/libctru/lib\libctru.a(stack_adjust.o)
 .bss           0x00224770       0x14 c:/devkitPro/libctru/lib\libctru.a(mappable.o)
 .bss           0x00224784        0x0 c:/devkitPro/libctru/lib\libctru.a(rbtree_iterator.o)
 .bss           0x00224784        0x0 c:/devkitPro/libctru/lib\libctru.a(decode_utf8.o)
 .bss           0x00224784        0x0 c:/devkitPro/libctru/lib\libctru.a(encode_utf16.o)
 .bss           0x00224784        0x0 c:/devkitPro/libctru/lib\libctru.a(appExit.o)
 .bss           0x00224784        0x0 c:/devkitPro/libctru/lib\libctru.a(appInit.o)
 .bss           0x00224784        0x0 c:/devkitPro/libctru/lib\libctru.a(ctru_exit.o)
 .bss           0x00224784     0x700c c:/devkitPro/libctru/lib\libctru.a(sdmc_dev.o)
 .bss           0x0022b790        0x0 c:/devkitPro/libctru/lib\libctru.a(utf16_to_utf8.o)
 .bss           0x0022b790        0x0 c:/devkitPro/libctru/lib\libctru.a(decode_utf16.o)
 .bss           0x0022b790        0x0 c:/devkitPro/libctru/lib\libctru.a(encode_utf8.o)
 .bss           0x0022b790        0x0 c:/devkitpro/devkitarm/bin/../lib/gcc/arm-none-eabi/4.9.2/../../../../arm-none-eabi/lib/armv6k/fpu\libm.a(lib_a-sf_cos.o)
 .bss           0x0022b790        0x0 c:/devkitpro/devkitarm/bin/../lib/gcc/arm-none-eabi/4.9.2/../../../../arm-none-eabi/lib/armv6k/fpu\libm.a(lib_a-sf_sin.o)
 .bss           0x0022b790        0x0 c:/devkitpro/devkitarm/bin/../lib/gcc/arm-none-eabi/4.9.2/../../../../arm-none-eabi/lib/armv6k/fpu\libm.a(lib_a-ef_rem_pio2.o)
 .bss           0x0022b790        0x0 c:/devkitpro/devkitarm/bin/../lib/gcc/arm-none-eabi/4.9.2/../../../../arm-none-eabi/lib/armv6k/fpu\libm.a(lib_a-kf_cos.o)
 .bss           0x0022b790        0x0 c:/devkitpro/devkitarm/bin/../lib/gcc/arm-none-eabi/4.9.2/../../../../arm-none-eabi/lib/armv6k/fpu\libm.a(lib_a-kf_rem_pio2.o)
 .bss           0x0022b790        0x0 c:/devkitpro/devkitarm/bin/../lib/gcc/arm-none-eabi/4.9.2/../../../../arm-none-eabi/lib/armv6k/fpu\libm.a(lib_a-kf_sin.o)
 .bss           0x0022b790        0x0 c:/devkitpro/devkitarm/bin/../lib/gcc/arm-none-eabi/4.9.2/../../../../arm-none-eabi/lib/armv6k/fpu\libm.a(lib_a-sf_fabs.o)
 .bss           0x0022b790        0x0 c:/devkitpro/devkitarm/bin/../lib/gcc/arm-none-eabi/4.9.2/../../../../arm-none-eabi/lib/armv6k/fpu\libm.a(lib_a-sf_floor.o)
 .bss           0x0022b790        0x0 c:/devkitpro/devkitarm/bin/../lib/gcc/arm-none-eabi/4.9.2/../../../../arm-none-eabi/lib/armv6k/fpu\libm.a(lib_a-sf_scalbn.o)
 .bss           0x0022b790        0x0 c:/devkitpro/devkitarm/bin/../lib/gcc/arm-none-eabi/4.9.2/../../../../arm-none-eabi/lib/armv6k/fpu\libm.a(lib_a-sf_copysign.o)
 .bss           0x0022b790        0x0 c:/devkitpro/devkitarm/bin/../lib/gcc/arm-none-eabi/4.9.2/armv6k/fpu\libgcc.a(_udivsi3.o)
 .bss           0x0022b790        0x0 c:/devkitpro/devkitarm/bin/../lib/gcc/arm-none-eabi/4.9.2/armv6k/fpu\libgcc.a(_divsi3.o)
 .bss           0x0022b790        0x0 c:/devkitpro/devkitarm/bin/../lib/gcc/arm-none-eabi/4.9.2/armv6k/fpu\libgcc.a(_dvmd_tls.o)
 .bss           0x0022b790        0x0 c:/devkitpro/devkitarm/bin/../lib/gcc/arm-none-eabi/4.9.2/armv6k/fpu\libgcc.a(_arm_addsubsf3.o)
 .bss           0x0022b790        0x0 c:/devkitpro/devkitarm/bin/../lib/gcc/arm-none-eabi/4.9.2/armv6k/fpu\libgcc.a(_popcountsi2.o)
 .bss           0x0022b790        0x0 c:/devkitpro/devkitarm/bin/../lib/gcc/arm-none-eabi/4.9.2/../../../../arm-none-eabi/lib/armv6k/fpu\libg.a(lib_a-atol.o)
 .bss           0x0022b790        0x0 c:/devkitpro/devkitarm/bin/../lib/gcc/arm-none-eabi/4.9.2/../../../../arm-none-eabi/lib/armv6k/fpu\libg.a(lib_a-bsearch.o)
 .bss           0x0022b790        0x0 c:/devkitpro/devkitarm/bin/../lib/gcc/arm-none-eabi/4.9.2/../../../../arm-none-eabi/lib/armv6k/fpu\libg.a(lib_a-errno.o)
 .bss           0x0022b790        0x0 c:/devkitpro/devkitarm/bin/../lib/gcc/arm-none-eabi/4.9.2/../../../../arm-none-eabi/lib/armv6k/fpu\libg.a(lib_a-fclose.o)
 .bss           0x0022b790        0x0 c:/devkitpro/devkitarm/bin/../lib/gcc/arm-none-eabi/4.9.2/../../../../arm-none-eabi/lib/armv6k/fpu\libg.a(lib_a-fflush.o)
 .bss           0x0022b790        0x0 c:/devkitpro/devkitarm/bin/../lib/gcc/arm-none-eabi/4.9.2/../../../../arm-none-eabi/lib/armv6k/fpu\libg.a(lib_a-findfp.o)
 .bss           0x0022b790        0x0 c:/devkitpro/devkitarm/bin/../lib/gcc/arm-none-eabi/4.9.2/../../../../arm-none-eabi/lib/armv6k/fpu\libg.a(lib_a-fini.o)
 .bss           0x0022b790        0x0 c:/devkitpro/devkitarm/bin/../lib/gcc/arm-none-eabi/4.9.2/../../../../arm-none-eabi/lib/armv6k/fpu\libg.a(lib_a-fopen.o)
 .bss           0x0022b790        0x0 c:/devkitpro/devkitarm/bin/../lib/gcc/arm-none-eabi/4.9.2/../../../../arm-none-eabi/lib/armv6k/fpu\libg.a(lib_a-fread.o)
 .bss           0x0022b790        0x0 c:/devkitpro/devkitarm/bin/../lib/gcc/arm-none-eabi/4.9.2/../../../../arm-none-eabi/lib/armv6k/fpu\libg.a(lib_a-freer.o)
 .bss           0x0022b790        0x0 c:/devkitpro/devkitarm/bin/../lib/gcc/arm-none-eabi/4.9.2/../../../../arm-none-eabi/lib/armv6k/fpu\libg.a(lib_a-fseek.o)
 .bss           0x0022b790        0x0 c:/devkitpro/devkitarm/bin/../lib/gcc/arm-none-eabi/4.9.2/../../../../arm-none-eabi/lib/armv6k/fpu\libg.a(lib_a-fseeko.o)
 .bss           0x0022b790        0x0 c:/devkitpro/devkitarm/bin/../lib/gcc/arm-none-eabi/4.9.2/../../../../arm-none-eabi/lib/armv6k/fpu\libg.a(lib_a-ftell.o)
 .bss           0x0022b790        0x0 c:/devkitpro/devkitarm/bin/../lib/gcc/arm-none-eabi/4.9.2/../../../../arm-none-eabi/lib/armv6k/fpu\libg.a(lib_a-ftello.o)
 .bss           0x0022b790        0x0 c:/devkitpro/devkitarm/bin/../lib/gcc/arm-none-eabi/4.9.2/../../../../arm-none-eabi/lib/armv6k/fpu\libg.a(lib_a-fwalk.o)
 .bss           0x0022b790        0x0 c:/devkitpro/devkitarm/bin/../lib/gcc/arm-none-eabi/4.9.2/../../../../arm-none-eabi/lib/armv6k/fpu\libg.a(lib_a-impure.o)
 .bss           0x0022b790        0x0 c:/devkitpro/devkitarm/bin/../lib/gcc/arm-none-eabi/4.9.2/../../../../arm-none-eabi/lib/armv6k/fpu\libg.a(lib_a-init.o)
 .bss           0x0022b790        0x0 c:/devkitpro/devkitarm/bin/../lib/gcc/arm-none-eabi/4.9.2/../../../../arm-none-eabi/lib/armv6k/fpu\libg.a(lib_a-makebuf.o)
 .bss           0x0022b790        0x0 c:/devkitpro/devkitarm/bin/../lib/gcc/arm-none-eabi/4.9.2/../../../../arm-none-eabi/lib/armv6k/fpu\libg.a(lib_a-malloc.o)
 .bss           0x0022b790        0x0 c:/devkitpro/devkitarm/bin/../lib/gcc/arm-none-eabi/4.9.2/../../../../arm-none-eabi/lib/armv6k/fpu\libg.a(lib_a-mallocr.o)
 .bss           0x0022b790        0x0 c:/devkitpro/devkitarm/bin/../lib/gcc/arm-none-eabi/4.9.2/../../../../arm-none-eabi/lib/armv6k/fpu\libg.a(lib_a-memchr.o)
 .bss           0x0022b790        0x0 c:/devkitpro/devkitarm/bin/../lib/gcc/arm-none-eabi/4.9.2/../../../../arm-none-eabi/lib/armv6k/fpu\libg.a(lib_a-memcmp.o)
 .bss           0x0022b790        0x0 c:/devkitpro/devkitarm/bin/../lib/gcc/arm-none-eabi/4.9.2/../../../../arm-none-eabi/lib/armv6k/fpu\libg.a(lib_a-memcpy.o)
 .bss           0x0022b790        0x0 c:/devkitpro/devkitarm/bin/../lib/gcc/arm-none-eabi/4.9.2/../../../../arm-none-eabi/lib/armv6k/fpu\libg.a(lib_a-memmove.o)
 .bss           0x0022b790        0x0 c:/devkitpro/devkitarm/bin/../lib/gcc/arm-none-eabi/4.9.2/../../../../arm-none-eabi/lib/armv6k/fpu\libg.a(lib_a-memset.o)
 .bss           0x0022b790        0x0 c:/devkitpro/devkitarm/bin/../lib/gcc/arm-none-eabi/4.9.2/../../../../arm-none-eabi/lib/armv6k/fpu\libg.a(lib_a-mlock.o)
 .bss           0x0022b790        0x0 c:/devkitpro/devkitarm/bin/../lib/gcc/arm-none-eabi/4.9.2/../../../../arm-none-eabi/lib/armv6k/fpu\libg.a(lib_a-qsort.o)
 .bss           0x0022b790        0x0 c:/devkitpro/devkitarm/bin/../lib/gcc/arm-none-eabi/4.9.2/../../../../arm-none-eabi/lib/armv6k/fpu\libg.a(lib_a-realloc.o)
 .bss           0x0022b790        0x0 c:/devkitpro/devkitarm/bin/../lib/gcc/arm-none-eabi/4.9.2/../../../../arm-none-eabi/lib/armv6k/fpu\libg.a(lib_a-reallocr.o)
 .bss           0x0022b790        0x0 c:/devkitpro/devkitarm/bin/../lib/gcc/arm-none-eabi/4.9.2/../../../../arm-none-eabi/lib/armv6k/fpu\libg.a(lib_a-refill.o)
 .bss           0x0022b790        0x0 c:/devkitpro/devkitarm/bin/../lib/gcc/arm-none-eabi/4.9.2/../../../../arm-none-eabi/lib/armv6k/fpu\libg.a(lib_a-setjmp.o)
 .bss           0x0022b790        0x0 c:/devkitpro/devkitarm/bin/../lib/gcc/arm-none-eabi/4.9.2/../../../../arm-none-eabi/lib/armv6k/fpu\libg.a(lib_a-snprintf.o)
 .bss           0x0022b790        0x0 c:/devkitpro/devkitarm/bin/../lib/gcc/arm-none-eabi/4.9.2/../../../../arm-none-eabi/lib/armv6k/fpu\libg.a(lib_a-sprintf.o)
 .bss           0x0022b790        0x0 c:/devkitpro/devkitarm/bin/../lib/gcc/arm-none-eabi/4.9.2/../../../../arm-none-eabi/lib/armv6k/fpu\libg.a(lib_a-stdio.o)
 .bss           0x0022b790        0x0 c:/devkitpro/devkitarm/bin/../lib/gcc/arm-none-eabi/4.9.2/../../../../arm-none-eabi/lib/armv6k/fpu\libg.a(lib_a-strchr.o)
 .bss           0x0022b790        0x0 c:/devkitpro/devkitarm/bin/../lib/gcc/arm-none-eabi/4.9.2/../../../../arm-none-eabi/lib/armv6k/fpu\libg.a(lib_a-strcmp.o)
 .bss           0x0022b790        0x0 c:/devkitpro/devkitarm/bin/../lib/gcc/arm-none-eabi/4.9.2/../../../../arm-none-eabi/lib/armv6k/fpu\libg.a(lib_a-strcpy.o)
 .bss           0x0022b790        0x0 c:/devkitpro/devkitarm/bin/../lib/gcc/arm-none-eabi/4.9.2/../../../../arm-none-eabi/lib/armv6k/fpu\libg.a(lib_a-strlen.o)
 .bss           0x0022b790        0x0 c:/devkitpro/devkitarm/bin/../lib/gcc/arm-none-eabi/4.9.2/../../../../arm-none-eabi/lib/armv6k/fpu\libg.a(lib_a-strncat.o)
 .bss           0x0022b790        0x0 c:/devkitpro/devkitarm/bin/../lib/gcc/arm-none-eabi/4.9.2/../../../../arm-none-eabi/lib/armv6k/fpu\libg.a(lib_a-strncmp.o)
 .bss           0x0022b790        0x0 c:/devkitpro/devkitarm/bin/../lib/gcc/arm-none-eabi/4.9.2/../../../../arm-none-eabi/lib/armv6k/fpu\libg.a(lib_a-strncpy.o)
 .bss           0x0022b790        0x0 c:/devkitpro/devkitarm/bin/../lib/gcc/arm-none-eabi/4.9.2/../../../../arm-none-eabi/lib/armv6k/fpu\libg.a(lib_a-strrchr.o)
 .bss           0x0022b790        0x0 c:/devkitpro/devkitarm/bin/../lib/gcc/arm-none-eabi/4.9.2/../../../../arm-none-eabi/lib/armv6k/fpu\libg.a(lib_a-strstr.o)
 .bss           0x0022b790        0x0 c:/devkitpro/devkitarm/bin/../lib/gcc/arm-none-eabi/4.9.2/../../../../arm-none-eabi/lib/armv6k/fpu\libg.a(lib_a-strtok.o)
 .bss           0x0022b790        0x0 c:/devkitpro/devkitarm/bin/../lib/gcc/arm-none-eabi/4.9.2/../../../../arm-none-eabi/lib/armv6k/fpu\libg.a(lib_a-strtok_r.o)
 .bss           0x0022b790        0x0 c:/devkitpro/devkitarm/bin/../lib/gcc/arm-none-eabi/4.9.2/../../../../arm-none-eabi/lib/armv6k/fpu\libg.a(lib_a-strtol.o)
 .bss           0x0022b790        0x0 c:/devkitpro/devkitarm/bin/../lib/gcc/arm-none-eabi/4.9.2/../../../../arm-none-eabi/lib/armv6k/fpu\libg.a(lib_a-svfprintf.o)
 .bss           0x0022b790        0x0 c:/devkitpro/devkitarm/bin/../lib/gcc/arm-none-eabi/4.9.2/../../../../arm-none-eabi/lib/armv6k/fpu\libg.a(lib_a-vsnprintf.o)
 .bss           0x0022b790        0x0 c:/devkitpro/devkitarm/bin/../lib/gcc/arm-none-eabi/4.9.2/../../../../arm-none-eabi/lib/armv6k/fpu\libg.a(lib_a-vswprintf.o)
 .bss           0x0022b790        0x0 c:/devkitpro/devkitarm/bin/../lib/gcc/arm-none-eabi/4.9.2/../../../../arm-none-eabi/lib/armv6k/fpu\libg.a(lib_a-wcrtomb.o)
 .bss           0x0022b790        0x0 c:/devkitpro/devkitarm/bin/../lib/gcc/arm-none-eabi/4.9.2/../../../../arm-none-eabi/lib/armv6k/fpu\libg.a(lib_a-wcsrtombs.o)
 .bss           0x0022b790        0x0 c:/devkitpro/devkitarm/bin/../lib/gcc/arm-none-eabi/4.9.2/../../../../arm-none-eabi/lib/armv6k/fpu\libg.a(lib_a-wctomb_r.o)
 .bss           0x0022b790        0x0 c:/devkitpro/devkitarm/bin/../lib/gcc/arm-none-eabi/4.9.2/../../../../arm-none-eabi/lib/armv6k/fpu\libg.a(lib_a-ctype_.o)
 .bss           0x0022b790        0x0 c:/devkitpro/devkitarm/bin/../lib/gcc/arm-none-eabi/4.9.2/../../../../arm-none-eabi/lib/armv6k/fpu\libg.a(lib_a-dtoa.o)
 .bss           0x0022b790        0x0 c:/devkitpro/devkitarm/bin/../lib/gcc/arm-none-eabi/4.9.2/../../../../arm-none-eabi/lib/armv6k/fpu\libg.a(lib_a-flags.o)
 .bss           0x0022b790        0x0 c:/devkitpro/devkitarm/bin/../lib/gcc/arm-none-eabi/4.9.2/../../../../arm-none-eabi/lib/armv6k/fpu\libg.a(lib_a-locale.o)
 .bss           0x0022b790        0x0 c:/devkitpro/devkitarm/bin/../lib/gcc/arm-none-eabi/4.9.2/../../../../arm-none-eabi/lib/armv6k/fpu\libg.a(lib_a-mbtowc_r.o)
 .bss           0x0022b790        0x0 c:/devkitpro/devkitarm/bin/../lib/gcc/arm-none-eabi/4.9.2/../../../../arm-none-eabi/lib/armv6k/fpu\libg.a(lib_a-mprec.o)
 .bss           0x0022b790        0x0 c:/devkitpro/devkitarm/bin/../lib/gcc/arm-none-eabi/4.9.2/../../../../arm-none-eabi/lib/armv6k/fpu\libg.a(lib_a-s_fpclassify.o)
 .bss           0x0022b790        0x0 c:/devkitpro/devkitarm/bin/../lib/gcc/arm-none-eabi/4.9.2/../../../../arm-none-eabi/lib/armv6k/fpu\libg.a(lib_a-s_frexp.o)
 .bss           0x0022b790        0x0 c:/devkitpro/devkitarm/bin/../lib/gcc/arm-none-eabi/4.9.2/../../../../arm-none-eabi/lib/armv6k/fpu\libg.a(lib_a-strcasecmp.o)
 .bss           0x0022b790        0x0 c:/devkitpro/devkitarm/bin/../lib/gcc/arm-none-eabi/4.9.2/../../../../arm-none-eabi/lib/armv6k/fpu\libg.a(lib_a-strcat.o)
 .bss           0x0022b790        0x0 c:/devkitpro/devkitarm/bin/../lib/gcc/arm-none-eabi/4.9.2/../../../../arm-none-eabi/lib/armv6k/fpu\libg.a(lib_a-strlcpy.o)
 .bss           0x0022b790        0x0 c:/devkitpro/devkitarm/bin/../lib/gcc/arm-none-eabi/4.9.2/../../../../arm-none-eabi/lib/armv6k/fpu\libg.a(lib_a-strncasecmp.o)
 .bss           0x0022b790        0x0 c:/devkitpro/devkitarm/bin/../lib/gcc/arm-none-eabi/4.9.2/../../../../arm-none-eabi/lib/armv6k/fpu\libg.a(lib_a-svfiprintf.o)
 .bss           0x0022b790        0x0 c:/devkitpro/devkitarm/bin/../lib/gcc/arm-none-eabi/4.9.2/../../../../arm-none-eabi/lib/armv6k/fpu\libg.a(lib_a-svfwprintf.o)
 .bss           0x0022b790        0x0 c:/devkitpro/devkitarm/bin/../lib/gcc/arm-none-eabi/4.9.2/../../../../arm-none-eabi/lib/armv6k/fpu\libg.a(lib_a-wcslen.o)
 .bss           0x0022b790        0x0 c:/devkitpro/devkitarm/bin/../lib/gcc/arm-none-eabi/4.9.2/../../../../arm-none-eabi/lib/armv6k/fpu\libg.a(lib_a-wcsnrtombs.o)
 .bss           0x0022b790        0x0 c:/devkitpro/devkitarm/bin/../lib/gcc/arm-none-eabi/4.9.2/../../../../arm-none-eabi/lib/armv6k/fpu\libg.a(lib_a-wmemchr.o)
 .bss           0x0022b790        0x0 c:/devkitpro/devkitarm/bin/../lib/gcc/arm-none-eabi/4.9.2/../../../../arm-none-eabi/lib/armv6k/fpu\libg.a(lib_a-btowc.o)
 .bss           0x0022b790        0x0 c:/devkitpro/devkitarm/bin/../lib/gcc/arm-none-eabi/4.9.2/../../../../arm-none-eabi/lib/armv6k/fpu\libg.a(lib_a-callocr.o)
 .bss           0x0022b790        0x0 c:/devkitpro/devkitarm/bin/../lib/gcc/arm-none-eabi/4.9.2/../../../../arm-none-eabi/lib/armv6k/fpu\libg.a(lib_a-getenv_r.o)
 .bss           0x0022b790        0x0 c:/devkitpro/devkitarm/bin/../lib/gcc/arm-none-eabi/4.9.2/../../../../arm-none-eabi/lib/armv6k/fpu\libg.a(lib_a-mbrlen.o)
 .bss           0x0022b790        0x0 c:/devkitpro/devkitarm/bin/../lib/gcc/arm-none-eabi/4.9.2/../../../../arm-none-eabi/lib/armv6k/fpu\libg.a(lib_a-mbrtowc.o)
 .bss           0x0022b790        0x0 c:/devkitpro/devkitarm/bin/../lib/gcc/arm-none-eabi/4.9.2/../../../../arm-none-eabi/lib/armv6k/fpu\libg.a(lib_a-mbsnrtowcs.o)
 .bss           0x0022b790        0x0 c:/devkitpro/devkitarm/bin/../lib/gcc/arm-none-eabi/4.9.2/../../../../arm-none-eabi/lib/armv6k/fpu\libg.a(lib_a-environ.o)
 .bss           0x0022b790        0x0 c:/devkitpro/devkitarm/bin/../lib/gcc/arm-none-eabi/4.9.2/../../../../arm-none-eabi/lib/armv6k/fpu\libg.a(lib_a-envlock.o)
 .bss           0x0022b790        0x0 c:/devkitpro/devkitarm/bin/../lib/gcc/arm-none-eabi/4.9.2/../../../../arm-none-eabi/lib/armv6k/fpu\libsysbase.a(iosupport.o)
 .bss           0x0022b790        0x0 c:/devkitpro/devkitarm/bin/../lib/gcc/arm-none-eabi/4.9.2/../../../../arm-none-eabi/lib/armv6k/fpu\libsysbase.a(close.o)
 .bss           0x0022b790        0x0 c:/devkitpro/devkitarm/bin/../lib/gcc/arm-none-eabi/4.9.2/../../../../arm-none-eabi/lib/armv6k/fpu\libsysbase.a(fstat.o)
 .bss           0x0022b790        0x0 c:/devkitpro/devkitarm/bin/../lib/gcc/arm-none-eabi/4.9.2/../../../../arm-none-eabi/lib/armv6k/fpu\libsysbase.a(isatty.o)
 .bss           0x0022b790        0x0 c:/devkitpro/devkitarm/bin/../lib/gcc/arm-none-eabi/4.9.2/../../../../arm-none-eabi/lib/armv6k/fpu\libsysbase.a(lseek.o)
 .bss           0x0022b790        0x0 c:/devkitpro/devkitarm/bin/../lib/gcc/arm-none-eabi/4.9.2/../../../../arm-none-eabi/lib/armv6k/fpu\libsysbase.a(open.o)
 .bss           0x0022b790        0x0 c:/devkitpro/devkitarm/bin/../lib/gcc/arm-none-eabi/4.9.2/../../../../arm-none-eabi/lib/armv6k/fpu\libsysbase.a(read.o)
 .bss           0x0022b790        0x4 c:/devkitpro/devkitarm/bin/../lib/gcc/arm-none-eabi/4.9.2/../../../../arm-none-eabi/lib/armv6k/fpu\libsysbase.a(sbrk.o)
 .bss           0x0022b794        0x0 c:/devkitpro/devkitarm/bin/../lib/gcc/arm-none-eabi/4.9.2/../../../../arm-none-eabi/lib/armv6k/fpu\libsysbase.a(write.o)
 .bss           0x0022b794        0x8 c:/devkitpro/devkitarm/bin/../lib/gcc/arm-none-eabi/4.9.2/../../../../arm-none-eabi/lib/armv6k/fpu\libsysbase.a(malloc_vars.o)
                0x0022b794                fake_heap_start
                0x0022b798                fake_heap_end
 .bss           0x0022b79c     0x1000 c:/devkitpro/devkitarm/bin/../lib/gcc/arm-none-eabi/4.9.2/../../../../arm-none-eabi/lib/armv6k/fpu\libsysbase.a(chdir.o)
 .bss           0x0022c79c        0x0 c:/devkitpro/devkitarm/bin/../lib/gcc/arm-none-eabi/4.9.2/../../../../arm-none-eabi/lib/armv6k/fpu\libsysbase.a(flock.o)
 .bss           0x0022c79c       0x40 c:/devkitpro/devkitarm/bin/../lib/gcc/arm-none-eabi/4.9.2/../../../../arm-none-eabi/lib/armv6k/fpu\libsysbase.a(syscall_support.o)
                0x0022c79c                __syscalls
 .bss           0x0022c7dc        0x0 c:/devkitpro/devkitarm/bin/../lib/gcc/arm-none-eabi/4.9.2/../../../../arm-none-eabi/lib/armv6k/fpu\libsysbase.a(handle_manager.o)
 .bss           0x0022c7dc        0x0 c:/devkitpro/devkitarm/bin/../lib/gcc/arm-none-eabi/4.9.2/../../../../arm-none-eabi/lib/armv6k/fpu\libsysbase.a(getreent.o)
 .bss           0x0022c7dc        0x0 c:/devkitpro/devkitarm/bin/../lib/gcc/arm-none-eabi/4.9.2/armv6k/fpu\libgcc.a(_aeabi_uldivmod.o)
 .bss           0x0022c7dc        0x0 c:/devkitpro/devkitarm/bin/../lib/gcc/arm-none-eabi/4.9.2/armv6k/fpu\libgcc.a(bpabi.o)
 .bss           0x0022c7dc        0x0 c:/devkitpro/devkitarm/bin/../lib/gcc/arm-none-eabi/4.9.2/armv6k/fpu\libgcc.a(_divdi3.o)
 .bss           0x0022c7dc        0x0 c:/devkitpro/devkitarm/bin/../lib/gcc/arm-none-eabi/4.9.2/armv6k/fpu\libgcc.a(_udivdi3.o)
 .bss           0x0022c7dc        0x0 c:/devkitpro/devkitarm/bin/../lib/gcc/arm-none-eabi/4.9.2/../../../../arm-none-eabi/lib/armv6k/fpu\libg.a(lib_a-strnlen.o)
 .bss           0x0022c7dc        0x0 c:/devkitpro/devkitarm/bin/../lib/gcc/arm-none-eabi/4.9.2/armv6k/fpu/crtend.o
 .bss           0x0022c7dc        0x0 c:/devkitpro/devkitarm/bin/../lib/gcc/arm-none-eabi/4.9.2/armv6k/fpu/crtn.o
 *(.bss.*)
 .bss.__malloc_max_total_mem
                0x0022c7dc        0x4 c:/devkitpro/devkitarm/bin/../lib/gcc/arm-none-eabi/4.9.2/../../../../arm-none-eabi/lib/armv6k/fpu\libg.a(lib_a-mallocr.o)
                0x0022c7dc                __malloc_max_total_mem
 .bss.__malloc_max_sbrked_mem
                0x0022c7e0        0x4 c:/devkitpro/devkitarm/bin/../lib/gcc/arm-none-eabi/4.9.2/../../../../arm-none-eabi/lib/armv6k/fpu\libg.a(lib_a-mallocr.o)
                0x0022c7e0                __malloc_max_sbrked_mem
 .bss.__malloc_top_pad
                0x0022c7e4        0x4 c:/devkitpro/devkitarm/bin/../lib/gcc/arm-none-eabi/4.9.2/../../../../arm-none-eabi/lib/armv6k/fpu\libg.a(lib_a-mallocr.o)
                0x0022c7e4                __malloc_top_pad
 .bss.__malloc_current_mallinfo
                0x0022c7e8       0x28 c:/devkitpro/devkitarm/bin/../lib/gcc/arm-none-eabi/4.9.2/../../../../arm-none-eabi/lib/armv6k/fpu\libg.a(lib_a-mallocr.o)
                0x0022c7e8                __malloc_current_mallinfo
 .bss._PathLocale
                0x0022c810        0x4 c:/devkitpro/devkitarm/bin/../lib/gcc/arm-none-eabi/4.9.2/../../../../arm-none-eabi/lib/armv6k/fpu\libg.a(lib_a-locale.o)
                0x0022c810                _PathLocale
 .bss.__nlocale_changed
                0x0022c814        0x4 c:/devkitpro/devkitarm/bin/../lib/gcc/arm-none-eabi/4.9.2/../../../../arm-none-eabi/lib/armv6k/fpu\libg.a(lib_a-locale.o)
                0x0022c814                __nlocale_changed
 .bss.__mlocale_changed
                0x0022c818        0x4 c:/devkitpro/devkitarm/bin/../lib/gcc/arm-none-eabi/4.9.2/../../../../arm-none-eabi/lib/armv6k/fpu\libg.a(lib_a-locale.o)
                0x0022c818                __mlocale_changed
 .bss.lc_ctype_cjk_lang
                0x0022c81c        0x4 c:/devkitpro/devkitarm/bin/../lib/gcc/arm-none-eabi/4.9.2/../../../../arm-none-eabi/lib/armv6k/fpu\libg.a(lib_a-locale.o)
 .bss.new_categories
                0x0022c820       0xe0 c:/devkitpro/devkitarm/bin/../lib/gcc/arm-none-eabi/4.9.2/../../../../arm-none-eabi/lib/armv6k/fpu\libg.a(lib_a-locale.o)
 .bss.current_locale_string
                0x0022c900       0xe8 c:/devkitpro/devkitarm/bin/../lib/gcc/arm-none-eabi/4.9.2/../../../../arm-none-eabi/lib/armv6k/fpu\libg.a(lib_a-locale.o)
 .bss.saved_categories
                0x0022c9e8       0xe0 c:/devkitpro/devkitarm/bin/../lib/gcc/arm-none-eabi/4.9.2/../../../../arm-none-eabi/lib/armv6k/fpu\libg.a(lib_a-locale.o)
 .bss.initial_env
                0x0022cac8        0x4 c:/devkitpro/devkitarm/bin/../lib/gcc/arm-none-eabi/4.9.2/../../../../arm-none-eabi/lib/armv6k/fpu\libg.a(lib_a-environ.o)
 *(.gnu.linkonce.b*)
 *(COMMON)
 COMMON         0x0022cacc        0x8 main.o
                0x0022cacc                buffer
                0x0022cad0                size
 COMMON         0x0022cad4       0x60 c:/devkitPro/libctru/lib\libctru.a(gfx.o)
                0x0022cad4                gfxBottomFramebuffers
                0x0022cadc                gspSharedMemHandle
                0x0022cae0                bottomFramebufferInfo
                0x0022cafc                gspEvent
                0x0022cb00                gfxTopLeftFramebuffers
                0x0022cb08                gfxTopRightFramebuffers
                0x0022cb10                topFramebufferInfo
                0x0022cb2c                gfxThreadID
                0x0022cb30                gfxSharedMemory
 COMMON         0x0022cb34        0xc c:/devkitPro/libctru/lib\libctru.a(gpu.o)
                0x0022cb34                gpuCmdBuf
                0x0022cb38                gpuCmdBufOffset
                0x0022cb3c                gpuCmdBufSize
 COMMON         0x0022cb40     0x2022 c:/devkitPro/libctru/lib\libctru.a(apt.o)
                0x0022cb40                aptEventHandlerThread
                0x0022cb44                aptParameters
                0x0022db48                aptEventHandlerStack
                0x0022eb48                aptuHandle
                0x0022eb4c                aptEvents
                0x0022eb58                aptStatusMutex
                0x0022eb5c                aptLockHandle
                0x0022eb60                currentAppId
 *fill*         0x0022eb62        0x2 
 COMMON         0x0022eb64       0x14 c:/devkitPro/libctru/lib\libctru.a(csnd.o)
                0x0022eb64                csndSharedMemSize
                0x0022eb68                csndOffsets
 COMMON         0x0022eb78     0x103d c:/devkitPro/libctru/lib\libctru.a(gsp.o)
                0x0022eb78                gspEventStack
                0x0022fb78                gspEventThread
                0x0022fb7c                gspEventCounts
                0x0022fb98                gspEvents
                0x0022fbb4                gspRunEvents
 *fill*         0x0022fbb5        0x3 
 COMMON         0x0022fbb8        0x4 c:/devkitPro/libctru/lib\libctru.a(gx.o)
                0x0022fbb8                gxCmdBuf
 COMMON         0x0022fbbc       0x20 c:/devkitPro/libctru/lib\libctru.a(hid.o)
                0x0022fbbc                hidMemHandle
                0x0022fbc0                hidHandle
                0x0022fbc4                hidSharedMem
                0x0022fbc8                hidEvents
 COMMON         0x0022fbdc       0x10 c:/devkitPro/libctru/lib\libctru.a(irrst.o)
                0x0022fbdc                irrstHandle
                0x0022fbe0                irrstEvent
                0x0022fbe4                irrstMemHandle
                0x0022fbe8                irrstSharedMem
 COMMON         0x0022fbec        0x8 c:/devkitPro/libctru/lib\libctru.a(allocateHeaps.o)
                0x0022fbec                __heapBase
                0x0022fbf0                __linear_heap
 COMMON         0x0022fbf4        0x8 c:/devkitPro/libctru/lib\libctru.a(initArgv.o)
                0x0022fbf4                __system_argv
                0x0022fbf8                __system_argc
 COMMON         0x0022fbfc        0x4 c:/devkitPro/libctru/lib\libctru.a(initSystem.o)
                0x0022fbfc                __system_retAddr
                0x0022fc00                . = ALIGN (0x4)
                0x0022fc00                __bss_end__ = .
                0x0022fc00                __end__ = ABSOLUTE (.)

/DISCARD/
 *(.group .comment .note)

.stab
 *(.stab)

.stabstr
 *(.stabstr)

.stab.excl
 *(.stab.excl)

.stab.exclstr
 *(.stab.exclstr)

.stab.index
 *(.stab.index)

.stab.indexstr
 *(.stab.indexstr)

.debug
 *(.debug)

.line
 *(.line)

.debug_srcinfo
 *(.debug_srcinfo)

.debug_sfnames
 *(.debug_sfnames)

.debug_aranges  0x00000000      0x6b0
 *(.debug_aranges)
 .debug_aranges
                0x00000000       0x18 friskBack.o
 .debug_aranges
                0x00000018       0x18 friskFace.o
 .debug_aranges
                0x00000030       0x18 friskLeft1.o
 .debug_aranges
                0x00000048       0x18 friskRight1.o
 .debug_aranges
                0x00000060       0x20 main.o
 .debug_aranges
                0x00000080       0x18 torielHouse1.o
 .debug_aranges
                0x00000098       0x20 c:/devkitPro/libctru/lib\libsftd.a(sftd.o)
 .debug_aranges
                0x000000b8       0x20 c:/devkitPro/libctru/lib\libsftd.a(texture_atlas.o)
 .debug_aranges
                0x000000d8       0x20 c:/devkitPro/libctru/lib\libsftd.a(bin_packing_2d.o)
 .debug_aranges
                0x000000f8       0x20 c:/devkitPro/libctru/lib\libsftd.a(int_htab.o)
 .debug_aranges
                0x00000118       0x20 c:/devkitPro/libctru/lib\libsf2d.a(sf2d.o)
 .debug_aranges
                0x00000138       0x20 c:/devkitPro/libctru/lib\libsf2d.a(sf2d_private.o)
 .debug_aranges
                0x00000158       0x20 c:/devkitPro/libctru/lib\libsf2d.a(sf2d_texture.o)
 .debug_aranges
                0x00000178       0x20 c:/devkitPro/libctru/lib\libctru.a(linear.o)
 .debug_aranges
                0x00000198       0x20 c:/devkitPro/libctru/lib\libctru.a(mem_pool.o)
 .debug_aranges
                0x000001b8       0x20 c:/devkitPro/libctru/lib\libctru.a(vram.o)
 .debug_aranges
                0x000001d8       0x20 c:/devkitPro/libctru/lib\libctru.a(gfx.o)
 .debug_aranges
                0x000001f8       0x20 c:/devkitPro/libctru/lib\libctru.a(os.o)
 .debug_aranges
                0x00000218       0x20 c:/devkitPro/libctru/lib\libctru.a(romfs_dev.o)
 .debug_aranges
                0x00000238       0x20 c:/devkitPro/libctru/lib\libctru.a(srv.o)
 .debug_aranges
                0x00000258       0x20 c:/devkitPro/libctru/lib\libctru.a(gpu.o)
 .debug_aranges
                0x00000278       0x18 c:/devkitPro/libctru/lib\libctru.a(gpuResetSequence.o)
 .debug_aranges
                0x00000290       0x20 c:/devkitPro/libctru/lib\libctru.a(shaderProgram.o)
 .debug_aranges
                0x000002b0       0x20 c:/devkitPro/libctru/lib\libctru.a(shbin.o)
 .debug_aranges
                0x000002d0       0x20 c:/devkitPro/libctru/lib\libctru.a(apt.o)
 .debug_aranges
                0x000002f0       0x20 c:/devkitPro/libctru/lib\libctru.a(cfgu.o)
 .debug_aranges
                0x00000310       0x20 c:/devkitPro/libctru/lib\libctru.a(csnd.o)
 .debug_aranges
                0x00000330       0x20 c:/devkitPro/libctru/lib\libctru.a(fs.o)
 .debug_aranges
                0x00000350       0x20 c:/devkitPro/libctru/lib\libctru.a(gsp.o)
 .debug_aranges
                0x00000370       0x20 c:/devkitPro/libctru/lib\libctru.a(gx.o)
 .debug_aranges
                0x00000390       0x20 c:/devkitPro/libctru/lib\libctru.a(hid.o)
 .debug_aranges
                0x000003b0       0x20 c:/devkitPro/libctru/lib\libctru.a(irrst.o)
 .debug_aranges
                0x000003d0       0x20 c:/devkitPro/libctru/lib\libctru.a(ptm.o)
 .debug_aranges
                0x000003f0       0x20 c:/devkitPro/libctru/lib\libctru.a(rbtree_find.o)
 .debug_aranges
                0x00000410       0x20 c:/devkitPro/libctru/lib\libctru.a(rbtree_init.o)
 .debug_aranges
                0x00000430       0x20 c:/devkitPro/libctru/lib\libctru.a(rbtree_insert.o)
 .debug_aranges
                0x00000450       0x20 c:/devkitPro/libctru/lib\libctru.a(rbtree_remove.o)
 .debug_aranges
                0x00000470       0x20 c:/devkitPro/libctru/lib\libctru.a(rbtree_rotate.o)
 .debug_aranges
                0x00000490       0x20 c:/devkitPro/libctru/lib\libctru.a(utf8_to_utf16.o)
 .debug_aranges
                0x000004b0       0x20 c:/devkitPro/libctru/lib\libctru.a(allocateHeaps.o)
 .debug_aranges
                0x000004d0       0x20 c:/devkitPro/libctru/lib\libctru.a(initArgv.o)
 .debug_aranges
                0x000004f0       0x20 c:/devkitPro/libctru/lib\libctru.a(initSystem.o)
 .debug_aranges
                0x00000510       0x20 c:/devkitPro/libctru/lib\libctru.a(svc.o)
 .debug_aranges
                0x00000530       0x20 c:/devkitPro/libctru/lib\libctru.a(stack_adjust.o)
 .debug_aranges
                0x00000550       0x20 c:/devkitPro/libctru/lib\libctru.a(mappable.o)
 .debug_aranges
                0x00000570       0x20 c:/devkitPro/libctru/lib\libctru.a(rbtree_iterator.o)
 .debug_aranges
                0x00000590       0x20 c:/devkitPro/libctru/lib\libctru.a(decode_utf8.o)
 .debug_aranges
                0x000005b0       0x20 c:/devkitPro/libctru/lib\libctru.a(encode_utf16.o)
 .debug_aranges
                0x000005d0       0x20 c:/devkitPro/libctru/lib\libctru.a(appExit.o)
 .debug_aranges
                0x000005f0       0x20 c:/devkitPro/libctru/lib\libctru.a(appInit.o)
 .debug_aranges
                0x00000610       0x20 c:/devkitPro/libctru/lib\libctru.a(ctru_exit.o)
 .debug_aranges
                0x00000630       0x20 c:/devkitPro/libctru/lib\libctru.a(sdmc_dev.o)
 .debug_aranges
                0x00000650       0x20 c:/devkitPro/libctru/lib\libctru.a(utf16_to_utf8.o)
 .debug_aranges
                0x00000670       0x20 c:/devkitPro/libctru/lib\libctru.a(decode_utf16.o)
 .debug_aranges
                0x00000690       0x20 c:/devkitPro/libctru/lib\libctru.a(encode_utf8.o)

.debug_pubnames
 *(.debug_pubnames)

.debug_info     0x00000000    0x2607f
 *(.debug_info)
 .debug_info    0x00000000       0x90 friskBack.o
 .debug_info    0x00000090       0x90 friskFace.o
 .debug_info    0x00000120       0x90 friskLeft1.o
 .debug_info    0x000001b0       0x90 friskRight1.o
 .debug_info    0x00000240     0x1727 main.o
 .debug_info    0x00001967       0x94 torielHouse1.o
 .debug_info    0x000019fb     0x317e c:/devkitPro/libctru/lib\libsftd.a(sftd.o)
 .debug_info    0x00004b79      0x92e c:/devkitPro/libctru/lib\libsftd.a(texture_atlas.o)
 .debug_info    0x000054a7      0x346 c:/devkitPro/libctru/lib\libsftd.a(bin_packing_2d.o)
 .debug_info    0x000057ed      0x49c c:/devkitPro/libctru/lib\libsftd.a(int_htab.o)
 .debug_info    0x00005c89     0x17d0 c:/devkitPro/libctru/lib\libsf2d.a(sf2d.o)
 .debug_info    0x00007459      0x7a2 c:/devkitPro/libctru/lib\libsf2d.a(sf2d_private.o)
 .debug_info    0x00007bfb     0x34a2 c:/devkitPro/libctru/lib\libsf2d.a(sf2d_texture.o)
 .debug_info    0x0000b09d      0x975 c:/devkitPro/libctru/lib\libctru.a(linear.o)
 .debug_info    0x0000ba12      0x8ed c:/devkitPro/libctru/lib\libctru.a(mem_pool.o)
 .debug_info    0x0000c2ff      0x95f c:/devkitPro/libctru/lib\libctru.a(vram.o)
 .debug_info    0x0000cc5e      0xdb0 c:/devkitPro/libctru/lib\libctru.a(gfx.o)
 .debug_info    0x0000da0e     0x1273 c:/devkitPro/libctru/lib\libctru.a(os.o)
 .debug_info    0x0000ec81     0x2397 c:/devkitPro/libctru/lib\libctru.a(romfs_dev.o)
 .debug_info    0x00011018      0x828 c:/devkitPro/libctru/lib\libctru.a(srv.o)
 .debug_info    0x00011840     0x28dc c:/devkitPro/libctru/lib\libctru.a(gpu.o)
 .debug_info    0x0001411c       0xbb c:/devkitPro/libctru/lib\libctru.a(gpuResetSequence.o)
 .debug_info    0x000141d7      0xc8d c:/devkitPro/libctru/lib\libctru.a(shaderProgram.o)
 .debug_info    0x00014e64      0x6ef c:/devkitPro/libctru/lib\libctru.a(shbin.o)
 .debug_info    0x00015553     0x3840 c:/devkitPro/libctru/lib\libctru.a(apt.o)
 .debug_info    0x00018d93      0x726 c:/devkitPro/libctru/lib\libctru.a(cfgu.o)
 .debug_info    0x000194b9     0x197c c:/devkitPro/libctru/lib\libctru.a(csnd.o)
 .debug_info    0x0001ae35     0x18a0 c:/devkitPro/libctru/lib\libctru.a(fs.o)
 .debug_info    0x0001c6d5     0x1313 c:/devkitPro/libctru/lib\libctru.a(gsp.o)
 .debug_info    0x0001d9e8      0x4e7 c:/devkitPro/libctru/lib\libctru.a(gx.o)
 .debug_info    0x0001decf      0xe5d c:/devkitPro/libctru/lib\libctru.a(hid.o)
 .debug_info    0x0001ed2c      0x7bb c:/devkitPro/libctru/lib\libctru.a(irrst.o)
 .debug_info    0x0001f4e7      0x59c c:/devkitPro/libctru/lib\libctru.a(ptm.o)
 .debug_info    0x0001fa83      0x1c9 c:/devkitPro/libctru/lib\libctru.a(rbtree_find.o)
 .debug_info    0x0001fc4c      0x178 c:/devkitPro/libctru/lib\libctru.a(rbtree_init.o)
 .debug_info    0x0001fdc4      0x60c c:/devkitPro/libctru/lib\libctru.a(rbtree_insert.o)
 .debug_info    0x000203d0      0x838 c:/devkitPro/libctru/lib\libctru.a(rbtree_remove.o)
 .debug_info    0x00020c08      0x2ec c:/devkitPro/libctru/lib\libctru.a(rbtree_rotate.o)
 .debug_info    0x00020ef4      0x1d9 c:/devkitPro/libctru/lib\libctru.a(utf8_to_utf16.o)
 .debug_info    0x000210cd      0x269 c:/devkitPro/libctru/lib\libctru.a(allocateHeaps.o)
 .debug_info    0x00021336      0x165 c:/devkitPro/libctru/lib\libctru.a(initArgv.o)
 .debug_info    0x0002149b      0xacb c:/devkitPro/libctru/lib\libctru.a(initSystem.o)
 .debug_info    0x00021f66       0x63 c:/devkitPro/libctru/lib\libctru.a(svc.o)
 .debug_info    0x00021fc9       0x73 c:/devkitPro/libctru/lib\libctru.a(stack_adjust.o)
 .debug_info    0x0002203c      0x8d0 c:/devkitPro/libctru/lib\libctru.a(mappable.o)
 .debug_info    0x0002290c      0x2a3 c:/devkitPro/libctru/lib\libctru.a(rbtree_iterator.o)
 .debug_info    0x00022baf      0x13c c:/devkitPro/libctru/lib\libctru.a(decode_utf8.o)
 .debug_info    0x00022ceb       0xf5 c:/devkitPro/libctru/lib\libctru.a(encode_utf16.o)
 .debug_info    0x00022de0      0x122 c:/devkitPro/libctru/lib\libctru.a(appExit.o)
 .debug_info    0x00022f02      0x12e c:/devkitPro/libctru/lib\libctru.a(appInit.o)
 .debug_info    0x00023030      0x26e c:/devkitPro/libctru/lib\libctru.a(ctru_exit.o)
 .debug_info    0x0002329e     0x29f7 c:/devkitPro/libctru/lib\libctru.a(sdmc_dev.o)
 .debug_info    0x00025c95      0x1d9 c:/devkitPro/libctru/lib\libctru.a(utf16_to_utf8.o)
 .debug_info    0x00025e6e      0x11c c:/devkitPro/libctru/lib\libctru.a(decode_utf16.o)
 .debug_info    0x00025f8a       0xf5 c:/devkitPro/libctru/lib\libctru.a(encode_utf8.o)

.debug_abbrev   0x00000000     0x6c40
 *(.debug_abbrev)
 .debug_abbrev  0x00000000       0x5f friskBack.o
 .debug_abbrev  0x0000005f       0x5f friskFace.o
 .debug_abbrev  0x000000be       0x5f friskLeft1.o
 .debug_abbrev  0x0000011d       0x5f friskRight1.o
 .debug_abbrev  0x0000017c      0x352 main.o
 .debug_abbrev  0x000004ce       0x5f torielHouse1.o
 .debug_abbrev  0x0000052d      0x46d c:/devkitPro/libctru/lib\libsftd.a(sftd.o)
 .debug_abbrev  0x0000099a      0x1d2 c:/devkitPro/libctru/lib\libsftd.a(texture_atlas.o)
 .debug_abbrev  0x00000b6c      0x156 c:/devkitPro/libctru/lib\libsftd.a(bin_packing_2d.o)
 .debug_abbrev  0x00000cc2      0x228 c:/devkitPro/libctru/lib\libsftd.a(int_htab.o)
 .debug_abbrev  0x00000eea      0x3ed c:/devkitPro/libctru/lib\libsf2d.a(sf2d.o)
 .debug_abbrev  0x000012d7      0x236 c:/devkitPro/libctru/lib\libsf2d.a(sf2d_private.o)
 .debug_abbrev  0x0000150d      0x3ff c:/devkitPro/libctru/lib\libsf2d.a(sf2d_texture.o)
 .debug_abbrev  0x0000190c      0x30f c:/devkitPro/libctru/lib\libctru.a(linear.o)
 .debug_abbrev  0x00001c1b      0x286 c:/devkitPro/libctru/lib\libctru.a(mem_pool.o)
 .debug_abbrev  0x00001ea1      0x2fe c:/devkitPro/libctru/lib\libctru.a(vram.o)
 .debug_abbrev  0x0000219f      0x320 c:/devkitPro/libctru/lib\libctru.a(gfx.o)
 .debug_abbrev  0x000024bf      0x40a c:/devkitPro/libctru/lib\libctru.a(os.o)
 .debug_abbrev  0x000028c9      0x47f c:/devkitPro/libctru/lib\libctru.a(romfs_dev.o)
 .debug_abbrev  0x00002d48      0x26d c:/devkitPro/libctru/lib\libctru.a(srv.o)
 .debug_abbrev  0x00002fb5      0x37c c:/devkitPro/libctru/lib\libctru.a(gpu.o)
 .debug_abbrev  0x00003331       0x61 c:/devkitPro/libctru/lib\libctru.a(gpuResetSequence.o)
 .debug_abbrev  0x00003392      0x25f c:/devkitPro/libctru/lib\libctru.a(shaderProgram.o)
 .debug_abbrev  0x000035f1      0x246 c:/devkitPro/libctru/lib\libctru.a(shbin.o)
 .debug_abbrev  0x00003837      0x4bb c:/devkitPro/libctru/lib\libctru.a(apt.o)
 .debug_abbrev  0x00003cf2      0x197 c:/devkitPro/libctru/lib\libctru.a(cfgu.o)
 .debug_abbrev  0x00003e89      0x469 c:/devkitPro/libctru/lib\libctru.a(csnd.o)
 .debug_abbrev  0x000042f2      0x2d3 c:/devkitPro/libctru/lib\libctru.a(fs.o)
 .debug_abbrev  0x000045c5      0x3c5 c:/devkitPro/libctru/lib\libctru.a(gsp.o)
 .debug_abbrev  0x0000498a       0xf9 c:/devkitPro/libctru/lib\libctru.a(gx.o)
 .debug_abbrev  0x00004a83      0x38a c:/devkitPro/libctru/lib\libctru.a(hid.o)
 .debug_abbrev  0x00004e0d      0x2e2 c:/devkitPro/libctru/lib\libctru.a(irrst.o)
 .debug_abbrev  0x000050ef      0x1b2 c:/devkitPro/libctru/lib\libctru.a(ptm.o)
 .debug_abbrev  0x000052a1       0xec c:/devkitPro/libctru/lib\libctru.a(rbtree_find.o)
 .debug_abbrev  0x0000538d       0xb0 c:/devkitPro/libctru/lib\libctru.a(rbtree_init.o)
 .debug_abbrev  0x0000543d      0x21d c:/devkitPro/libctru/lib\libctru.a(rbtree_insert.o)
 .debug_abbrev  0x0000565a      0x205 c:/devkitPro/libctru/lib\libctru.a(rbtree_remove.o)
 .debug_abbrev  0x0000585f      0x170 c:/devkitPro/libctru/lib\libctru.a(rbtree_rotate.o)
 .debug_abbrev  0x000059cf      0x102 c:/devkitPro/libctru/lib\libctru.a(utf8_to_utf16.o)
 .debug_abbrev  0x00005ad1       0xea c:/devkitPro/libctru/lib\libctru.a(allocateHeaps.o)
 .debug_abbrev  0x00005bbb       0xdb c:/devkitPro/libctru/lib\libctru.a(initArgv.o)
 .debug_abbrev  0x00005c96      0x1f4 c:/devkitPro/libctru/lib\libctru.a(initSystem.o)
 .debug_abbrev  0x00005e8a       0x14 c:/devkitPro/libctru/lib\libctru.a(svc.o)
 .debug_abbrev  0x00005e9e       0x14 c:/devkitPro/libctru/lib\libctru.a(stack_adjust.o)
 .debug_abbrev  0x00005eb2      0x2ef c:/devkitPro/libctru/lib\libctru.a(mappable.o)
 .debug_abbrev  0x000061a1      0x163 c:/devkitPro/libctru/lib\libctru.a(rbtree_iterator.o)
 .debug_abbrev  0x00006304       0x7f c:/devkitPro/libctru/lib\libctru.a(decode_utf8.o)
 .debug_abbrev  0x00006383       0x69 c:/devkitPro/libctru/lib\libctru.a(encode_utf16.o)
 .debug_abbrev  0x000063ec       0xad c:/devkitPro/libctru/lib\libctru.a(appExit.o)
 .debug_abbrev  0x00006499       0x9e c:/devkitPro/libctru/lib\libctru.a(appInit.o)
 .debug_abbrev  0x00006537      0x116 c:/devkitPro/libctru/lib\libctru.a(ctru_exit.o)
 .debug_abbrev  0x0000664d      0x3fa c:/devkitPro/libctru/lib\libctru.a(sdmc_dev.o)
 .debug_abbrev  0x00006a47      0x102 c:/devkitPro/libctru/lib\libctru.a(utf16_to_utf8.o)
 .debug_abbrev  0x00006b49       0x8e c:/devkitPro/libctru/lib\libctru.a(decode_utf16.o)
 .debug_abbrev  0x00006bd7       0x69 c:/devkitPro/libctru/lib\libctru.a(encode_utf8.o)

.debug_line     0x00000000     0x84f7
 *(.debug_line)
 .debug_line    0x00000000       0x4a friskBack.o
 .debug_line    0x0000004a       0x4a friskFace.o
 .debug_line    0x00000094       0x4b friskLeft1.o
 .debug_line    0x000000df       0x4c friskRight1.o
 .debug_line    0x0000012b      0x32f main.o
 .debug_line    0x0000045a       0x4d torielHouse1.o
 .debug_line    0x000004a7      0x5f5 c:/devkitPro/libctru/lib\libsftd.a(sftd.o)
 .debug_line    0x00000a9c      0x277 c:/devkitPro/libctru/lib\libsftd.a(texture_atlas.o)
 .debug_line    0x00000d13      0x17b c:/devkitPro/libctru/lib\libsftd.a(bin_packing_2d.o)
 .debug_line    0x00000e8e      0x1af c:/devkitPro/libctru/lib\libsftd.a(int_htab.o)
 .debug_line    0x0000103d      0x373 c:/devkitPro/libctru/lib\libsf2d.a(sf2d.o)
 .debug_line    0x000013b0      0x26b c:/devkitPro/libctru/lib\libsf2d.a(sf2d_private.o)
 .debug_line    0x0000161b      0xa0f c:/devkitPro/libctru/lib\libsf2d.a(sf2d_texture.o)
 .debug_line    0x0000202a      0x233 c:/devkitPro/libctru/lib\libctru.a(linear.o)
 .debug_line    0x0000225d      0x2d4 c:/devkitPro/libctru/lib\libctru.a(mem_pool.o)
 .debug_line    0x00002531      0x230 c:/devkitPro/libctru/lib\libctru.a(vram.o)
 .debug_line    0x00002761      0x2bb c:/devkitPro/libctru/lib\libctru.a(gfx.o)
 .debug_line    0x00002a1c      0x31f c:/devkitPro/libctru/lib\libctru.a(os.o)
 .debug_line    0x00002d3b      0x458 c:/devkitPro/libctru/lib\libctru.a(romfs_dev.o)
 .debug_line    0x00003193      0x24e c:/devkitPro/libctru/lib\libctru.a(srv.o)
 .debug_line    0x000033e1      0x46f c:/devkitPro/libctru/lib\libctru.a(gpu.o)
 .debug_line    0x00003850      0x101 c:/devkitPro/libctru/lib\libctru.a(gpuResetSequence.o)
 .debug_line    0x00003951      0x305 c:/devkitPro/libctru/lib\libctru.a(shaderProgram.o)
 .debug_line    0x00003c56      0x2b0 c:/devkitPro/libctru/lib\libctru.a(shbin.o)
 .debug_line    0x00003f06      0x838 c:/devkitPro/libctru/lib\libctru.a(apt.o)
 .debug_line    0x0000473e      0x1f5 c:/devkitPro/libctru/lib\libctru.a(cfgu.o)
 .debug_line    0x00004933      0x44e c:/devkitPro/libctru/lib\libctru.a(csnd.o)
 .debug_line    0x00004d81      0x5fb c:/devkitPro/libctru/lib\libctru.a(fs.o)
 .debug_line    0x0000537c      0x39e c:/devkitPro/libctru/lib\libctru.a(gsp.o)
 .debug_line    0x0000571a      0x1dd c:/devkitPro/libctru/lib\libctru.a(gx.o)
 .debug_line    0x000058f7      0x318 c:/devkitPro/libctru/lib\libctru.a(hid.o)
 .debug_line    0x00005c0f      0x270 c:/devkitPro/libctru/lib\libctru.a(irrst.o)
 .debug_line    0x00005e7f      0x1ac c:/devkitPro/libctru/lib\libctru.a(ptm.o)
 .debug_line    0x0000602b      0x174 c:/devkitPro/libctru/lib\libctru.a(rbtree_find.o)
 .debug_line    0x0000619f      0x162 c:/devkitPro/libctru/lib\libctru.a(rbtree_init.o)
 .debug_line    0x00006301      0x22c c:/devkitPro/libctru/lib\libctru.a(rbtree_insert.o)
 .debug_line    0x0000652d      0x2cd c:/devkitPro/libctru/lib\libctru.a(rbtree_remove.o)
 .debug_line    0x000067fa      0x1bd c:/devkitPro/libctru/lib\libctru.a(rbtree_rotate.o)
 .debug_line    0x000069b7      0x1c5 c:/devkitPro/libctru/lib\libctru.a(utf8_to_utf16.o)
 .debug_line    0x00006b7c      0x12c c:/devkitPro/libctru/lib\libctru.a(allocateHeaps.o)
 .debug_line    0x00006ca8      0x159 c:/devkitPro/libctru/lib\libctru.a(initArgv.o)
 .debug_line    0x00006e01      0x126 c:/devkitPro/libctru/lib\libctru.a(initSystem.o)
 .debug_line    0x00006f27      0x164 c:/devkitPro/libctru/lib\libctru.a(svc.o)
 .debug_line    0x0000708b       0x79 c:/devkitPro/libctru/lib\libctru.a(stack_adjust.o)
 .debug_line    0x00007104      0x218 c:/devkitPro/libctru/lib\libctru.a(mappable.o)
 .debug_line    0x0000731c      0x159 c:/devkitPro/libctru/lib\libctru.a(rbtree_iterator.o)
 .debug_line    0x00007475      0x163 c:/devkitPro/libctru/lib\libctru.a(decode_utf8.o)
 .debug_line    0x000075d8      0x140 c:/devkitPro/libctru/lib\libctru.a(encode_utf16.o)
 .debug_line    0x00007718      0x165 c:/devkitPro/libctru/lib\libctru.a(appExit.o)
 .debug_line    0x0000787d      0x165 c:/devkitPro/libctru/lib\libctru.a(appInit.o)
 .debug_line    0x000079e2      0x122 c:/devkitPro/libctru/lib\libctru.a(ctru_exit.o)
 .debug_line    0x00007b04      0x587 c:/devkitPro/libctru/lib\libctru.a(sdmc_dev.o)
 .debug_line    0x0000808b      0x1cf c:/devkitPro/libctru/lib\libctru.a(utf16_to_utf8.o)
 .debug_line    0x0000825a      0x136 c:/devkitPro/libctru/lib\libctru.a(decode_utf16.o)
 .debug_line    0x00008390      0x167 c:/devkitPro/libctru/lib\libctru.a(encode_utf8.o)

.debug_frame    0x00000000     0x3e88
 *(.debug_frame)
 .debug_frame   0x00000000       0x40 main.o
 .debug_frame   0x00000040      0x2ec c:/devkitPro/libctru/lib\libsftd.a(sftd.o)
 .debug_frame   0x0000032c       0xc4 c:/devkitPro/libctru/lib\libsftd.a(texture_atlas.o)
 .debug_frame   0x000003f0       0x70 c:/devkitPro/libctru/lib\libsftd.a(bin_packing_2d.o)
 .debug_frame   0x00000460       0xf0 c:/devkitPro/libctru/lib\libsftd.a(int_htab.o)
 .debug_frame   0x00000550      0x1ec c:/devkitPro/libctru/lib\libsf2d.a(sf2d.o)
 .debug_frame   0x0000073c      0x148 c:/devkitPro/libctru/lib\libsf2d.a(sf2d_private.o)
 .debug_frame   0x00000884      0x5d4 c:/devkitPro/libctru/lib\libsf2d.a(sf2d_texture.o)
 .debug_frame   0x00000e58       0xc0 c:/devkitPro/libctru/lib\libctru.a(linear.o)
 .debug_frame   0x00000f18       0xa8 c:/devkitPro/libctru/lib\libctru.a(mem_pool.o)
 .debug_frame   0x00000fc0       0xb4 c:/devkitPro/libctru/lib\libctru.a(vram.o)
 .debug_frame   0x00001074      0x170 c:/devkitPro/libctru/lib\libctru.a(gfx.o)
 .debug_frame   0x000011e4      0x18c c:/devkitPro/libctru/lib\libctru.a(os.o)
 .debug_frame   0x00001370      0x208 c:/devkitPro/libctru/lib\libctru.a(romfs_dev.o)
 .debug_frame   0x00001578      0x158 c:/devkitPro/libctru/lib\libctru.a(srv.o)
 .debug_frame   0x000016d0      0x4f0 c:/devkitPro/libctru/lib\libctru.a(gpu.o)
 .debug_frame   0x00001bc0      0x16c c:/devkitPro/libctru/lib\libctru.a(shaderProgram.o)
 .debug_frame   0x00001d2c       0xa4 c:/devkitPro/libctru/lib\libctru.a(shbin.o)
 .debug_frame   0x00001dd0      0x6f0 c:/devkitPro/libctru/lib\libctru.a(apt.o)
 .debug_frame   0x000024c0      0x134 c:/devkitPro/libctru/lib\libctru.a(cfgu.o)
 .debug_frame   0x000025f4      0x474 c:/devkitPro/libctru/lib\libctru.a(csnd.o)
 .debug_frame   0x00002a68      0x4bc c:/devkitPro/libctru/lib\libctru.a(fs.o)
 .debug_frame   0x00002f24      0x2c4 c:/devkitPro/libctru/lib\libctru.a(gsp.o)
 .debug_frame   0x000031e8       0xf0 c:/devkitPro/libctru/lib\libctru.a(gx.o)
 .debug_frame   0x000032d8      0x200 c:/devkitPro/libctru/lib\libctru.a(hid.o)
 .debug_frame   0x000034d8      0x11c c:/devkitPro/libctru/lib\libctru.a(irrst.o)
 .debug_frame   0x000035f4       0xf4 c:/devkitPro/libctru/lib\libctru.a(ptm.o)
 .debug_frame   0x000036e8       0x30 c:/devkitPro/libctru/lib\libctru.a(rbtree_find.o)
 .debug_frame   0x00003718       0x20 c:/devkitPro/libctru/lib\libctru.a(rbtree_init.o)
 .debug_frame   0x00003738       0x54 c:/devkitPro/libctru/lib\libctru.a(rbtree_insert.o)
 .debug_frame   0x0000378c       0x38 c:/devkitPro/libctru/lib\libctru.a(rbtree_remove.o)
 .debug_frame   0x000037c4       0x2c c:/devkitPro/libctru/lib\libctru.a(rbtree_rotate.o)
 .debug_frame   0x000037f0       0x3c c:/devkitPro/libctru/lib\libctru.a(utf8_to_utf16.o)
 .debug_frame   0x0000382c       0x34 c:/devkitPro/libctru/lib\libctru.a(allocateHeaps.o)
 .debug_frame   0x00003860       0x2c c:/devkitPro/libctru/lib\libctru.a(initArgv.o)
 .debug_frame   0x0000388c       0x2c c:/devkitPro/libctru/lib\libctru.a(initSystem.o)
 .debug_frame   0x000038b8       0x88 c:/devkitPro/libctru/lib\libctru.a(mappable.o)
 .debug_frame   0x00003940       0x30 c:/devkitPro/libctru/lib\libctru.a(rbtree_iterator.o)
 .debug_frame   0x00003970       0x30 c:/devkitPro/libctru/lib\libctru.a(decode_utf8.o)
 .debug_frame   0x000039a0       0x20 c:/devkitPro/libctru/lib\libctru.a(encode_utf16.o)
 .debug_frame   0x000039c0       0x2c c:/devkitPro/libctru/lib\libctru.a(appExit.o)
 .debug_frame   0x000039ec       0x2c c:/devkitPro/libctru/lib\libctru.a(appInit.o)
 .debug_frame   0x00003a18       0x28 c:/devkitPro/libctru/lib\libctru.a(ctru_exit.o)
 .debug_frame   0x00003a40      0x3c4 c:/devkitPro/libctru/lib\libctru.a(sdmc_dev.o)
 .debug_frame   0x00003e04       0x3c c:/devkitPro/libctru/lib\libctru.a(utf16_to_utf8.o)
 .debug_frame   0x00003e40       0x28 c:/devkitPro/libctru/lib\libctru.a(decode_utf16.o)
 .debug_frame   0x00003e68       0x20 c:/devkitPro/libctru/lib\libctru.a(encode_utf8.o)

.debug_str      0x00000000     0x837e
 *(.debug_str)
 .debug_str     0x00000000       0xc0 friskBack.o
                                 0xf4 (size before relaxing)
 .debug_str     0x000000c0       0x2a friskFace.o
                                 0xf4 (size before relaxing)
 .debug_str     0x000000ea       0x2b friskLeft1.o
                                 0xf6 (size before relaxing)
 .debug_str     0x00000115       0x2c friskRight1.o
                                 0xf8 (size before relaxing)
 .debug_str     0x00000141      0xa53 main.o
                                0xc53 (size before relaxing)
 .debug_str     0x00000b94       0x2d torielHouse1.o
                                 0xfa (size before relaxing)
 .debug_str     0x00000bc1     0x19bc c:/devkitPro/libctru/lib\libsftd.a(sftd.o)
                               0x1da9 (size before relaxing)
 .debug_str     0x0000257d       0xfa c:/devkitPro/libctru/lib\libsftd.a(texture_atlas.o)
                                0x4b8 (size before relaxing)
 .debug_str     0x00002677       0x4a c:/devkitPro/libctru/lib\libsftd.a(bin_packing_2d.o)
                                0x1a6 (size before relaxing)
 .debug_str     0x000026c1       0x76 c:/devkitPro/libctru/lib\libsftd.a(int_htab.o)
                                0x1d8 (size before relaxing)
 .debug_str     0x00002737      0xbc0 c:/devkitPro/libctru/lib\libsf2d.a(sf2d.o)
                                0xf05 (size before relaxing)
 .debug_str     0x000032f7      0x220 c:/devkitPro/libctru/lib\libsf2d.a(sf2d_private.o)
                                0x3cf (size before relaxing)
 .debug_str     0x00003517      0x6d3 c:/devkitPro/libctru/lib\libsf2d.a(sf2d_texture.o)
                                0xca2 (size before relaxing)
 .debug_str     0x00003bea      0x444 c:/devkitPro/libctru/lib\libctru.a(linear.o)
                                0x59f (size before relaxing)
 .debug_str     0x0000402e       0x70 c:/devkitPro/libctru/lib\libctru.a(mem_pool.o)
                                0x433 (size before relaxing)
 .debug_str     0x0000409e       0x58 c:/devkitPro/libctru/lib\libctru.a(vram.o)
                                0x56e (size before relaxing)
 .debug_str     0x000040f6      0x50c c:/devkitPro/libctru/lib\libctru.a(gfx.o)
                                0x759 (size before relaxing)
 .debug_str     0x00004602      0x3e7 c:/devkitPro/libctru/lib\libctru.a(os.o)
                                0x9d5 (size before relaxing)
 .debug_str     0x000049e9      0x71a c:/devkitPro/libctru/lib\libctru.a(romfs_dev.o)
                                0xe0e (size before relaxing)
 .debug_str     0x00005103      0x1ad c:/devkitPro/libctru/lib\libctru.a(srv.o)
                                0x35b (size before relaxing)
 .debug_str     0x000052b0      0x546 c:/devkitPro/libctru/lib\libctru.a(gpu.o)
                                0xe5e (size before relaxing)
 .debug_str     0x000057f6       0x33 c:/devkitPro/libctru/lib\libctru.a(gpuResetSequence.o)
                                0x185 (size before relaxing)
 .debug_str     0x00005829      0x11d c:/devkitPro/libctru/lib\libctru.a(shaderProgram.o)
                                0x5b4 (size before relaxing)
 .debug_str     0x00005946      0x118 c:/devkitPro/libctru/lib\libctru.a(shbin.o)
                                0x456 (size before relaxing)
 .debug_str     0x00005a5e      0xc2a c:/devkitPro/libctru/lib\libctru.a(apt.o)
                                0xff8 (size before relaxing)
 .debug_str     0x00006688      0x123 c:/devkitPro/libctru/lib\libctru.a(cfgu.o)
                                0x35d (size before relaxing)
 .debug_str     0x000067ab      0x4dd c:/devkitPro/libctru/lib\libctru.a(csnd.o)
                                0x966 (size before relaxing)
 .debug_str     0x00006c88      0x3fa c:/devkitPro/libctru/lib\libctru.a(fs.o)
                                0x722 (size before relaxing)
 .debug_str     0x00007082      0x2d7 c:/devkitPro/libctru/lib\libctru.a(gsp.o)
                                0x7eb (size before relaxing)
 .debug_str     0x00007359       0xb2 c:/devkitPro/libctru/lib\libctru.a(gx.o)
                                0x2bf (size before relaxing)
 .debug_str     0x0000740b      0x2e9 c:/devkitPro/libctru/lib\libctru.a(hid.o)
                                0x740 (size before relaxing)
 .debug_str     0x000076f4       0xfa c:/devkitPro/libctru/lib\libctru.a(irrst.o)
                                0x45d (size before relaxing)
 .debug_str     0x000077ee       0xd5 c:/devkitPro/libctru/lib\libctru.a(ptm.o)
                                0x2d9 (size before relaxing)
 .debug_str     0x000078c3       0x3b c:/devkitPro/libctru/lib\libctru.a(rbtree_find.o)
                                0x1ef (size before relaxing)
 .debug_str     0x000078fe       0x36 c:/devkitPro/libctru/lib\libctru.a(rbtree_init.o)
                                0x1e5 (size before relaxing)
 .debug_str     0x00007934       0xda c:/devkitPro/libctru/lib\libctru.a(rbtree_insert.o)
                                0x2a7 (size before relaxing)
 .debug_str     0x00007a0e       0x65 c:/devkitPro/libctru/lib\libctru.a(rbtree_remove.o)
                                0x2c5 (size before relaxing)
 .debug_str     0x00007a73       0x38 c:/devkitPro/libctru/lib\libctru.a(rbtree_rotate.o)
                                0x23c (size before relaxing)
 .debug_str     0x00007aab       0x56 c:/devkitPro/libctru/lib\libctru.a(utf8_to_utf16.o)
                                0x1dc (size before relaxing)
 .debug_str     0x00007b01      0x158 c:/devkitPro/libctru/lib\libctru.a(allocateHeaps.o)
                                0x305 (size before relaxing)
 .debug_str     0x00007c59       0x66 c:/devkitPro/libctru/lib\libctru.a(initArgv.o)
                                0x1c8 (size before relaxing)
 .debug_str     0x00007cbf      0x14e c:/devkitPro/libctru/lib\libctru.a(initSystem.o)
                                0x6c1 (size before relaxing)
 .debug_str     0x00007e0d       0x60 c:/devkitPro/libctru/lib\libctru.a(mappable.o)
                                0x55d (size before relaxing)
 .debug_str     0x00007e6d       0x56 c:/devkitPro/libctru/lib\libctru.a(rbtree_iterator.o)
                                0x1ef (size before relaxing)
 .debug_str     0x00007ec3       0x4b c:/devkitPro/libctru/lib\libctru.a(decode_utf8.o)
                                0x1a9 (size before relaxing)
 .debug_str     0x00007f0e       0x34 c:/devkitPro/libctru/lib\libctru.a(encode_utf16.o)
                                0x195 (size before relaxing)
 .debug_str     0x00007f42       0x40 c:/devkitPro/libctru/lib\libctru.a(appExit.o)
                                0x193 (size before relaxing)
 .debug_str     0x00007f82       0x40 c:/devkitPro/libctru/lib\libctru.a(appInit.o)
                                0x193 (size before relaxing)
 .debug_str     0x00007fc2       0x4d c:/devkitPro/libctru/lib\libctru.a(ctru_exit.o)
                                0x30c (size before relaxing)
 .debug_str     0x0000800f      0x2ba c:/devkitPro/libctru/lib\libctru.a(sdmc_dev.o)
                                0xed3 (size before relaxing)
 .debug_str     0x000082c9       0x4e c:/devkitPro/libctru/lib\libctru.a(utf16_to_utf8.o)
                                0x1dc (size before relaxing)
 .debug_str     0x00008317       0x34 c:/devkitPro/libctru/lib\libctru.a(decode_utf16.o)
                                0x1a1 (size before relaxing)
 .debug_str     0x0000834b       0x33 c:/devkitPro/libctru/lib\libctru.a(encode_utf8.o)
                                0x191 (size before relaxing)

.debug_loc      0x00000000    0x13838
 *(.debug_loc)
 .debug_loc     0x00000000      0x172 main.o
 .debug_loc     0x00000172     0x134d c:/devkitPro/libctru/lib\libsftd.a(sftd.o)
 .debug_loc     0x000014bf      0x2b3 c:/devkitPro/libctru/lib\libsftd.a(texture_atlas.o)
 .debug_loc     0x00001772      0x17b c:/devkitPro/libctru/lib\libsftd.a(bin_packing_2d.o)
 .debug_loc     0x000018ed      0x464 c:/devkitPro/libctru/lib\libsftd.a(int_htab.o)
 .debug_loc     0x00001d51      0x26d c:/devkitPro/libctru/lib\libsf2d.a(sf2d.o)
 .debug_loc     0x00001fbe      0x3f3 c:/devkitPro/libctru/lib\libsf2d.a(sf2d_private.o)
 .debug_loc     0x000023b1     0x3ce2 c:/devkitPro/libctru/lib\libsf2d.a(sf2d_texture.o)
 .debug_loc     0x00006093      0x309 c:/devkitPro/libctru/lib\libctru.a(linear.o)
 .debug_loc     0x0000639c      0x95b c:/devkitPro/libctru/lib\libctru.a(mem_pool.o)
 .debug_loc     0x00006cf7      0x304 c:/devkitPro/libctru/lib\libctru.a(vram.o)
 .debug_loc     0x00006ffb      0x464 c:/devkitPro/libctru/lib\libctru.a(gfx.o)
 .debug_loc     0x0000745f      0x457 c:/devkitPro/libctru/lib\libctru.a(os.o)
 .debug_loc     0x000078b6      0xd42 c:/devkitPro/libctru/lib\libctru.a(romfs_dev.o)
 .debug_loc     0x000085f8      0x41e c:/devkitPro/libctru/lib\libctru.a(srv.o)
 .debug_loc     0x00008a16     0x140a c:/devkitPro/libctru/lib\libctru.a(gpu.o)
 .debug_loc     0x00009e20      0x67f c:/devkitPro/libctru/lib\libctru.a(shaderProgram.o)
 .debug_loc     0x0000a49f      0x410 c:/devkitPro/libctru/lib\libctru.a(shbin.o)
 .debug_loc     0x0000a8af     0x1a3a c:/devkitPro/libctru/lib\libctru.a(apt.o)
 .debug_loc     0x0000c2e9      0x30b c:/devkitPro/libctru/lib\libctru.a(cfgu.o)
 .debug_loc     0x0000c5f4     0x1788 c:/devkitPro/libctru/lib\libctru.a(csnd.o)
 .debug_loc     0x0000dd7c     0x1220 c:/devkitPro/libctru/lib\libctru.a(fs.o)
 .debug_loc     0x0000ef9c      0xd96 c:/devkitPro/libctru/lib\libctru.a(gsp.o)
 .debug_loc     0x0000fd32      0x38a c:/devkitPro/libctru/lib\libctru.a(gx.o)
 .debug_loc     0x000100bc      0x7d2 c:/devkitPro/libctru/lib\libctru.a(hid.o)
 .debug_loc     0x0001088e      0x35a c:/devkitPro/libctru/lib\libctru.a(irrst.o)
 .debug_loc     0x00010be8      0x28c c:/devkitPro/libctru/lib\libctru.a(ptm.o)
 .debug_loc     0x00010e74      0x10d c:/devkitPro/libctru/lib\libctru.a(rbtree_find.o)
 .debug_loc     0x00010f81      0x382 c:/devkitPro/libctru/lib\libctru.a(rbtree_insert.o)
 .debug_loc     0x00011303      0x506 c:/devkitPro/libctru/lib\libctru.a(rbtree_remove.o)
 .debug_loc     0x00011809       0x8e c:/devkitPro/libctru/lib\libctru.a(rbtree_rotate.o)
 .debug_loc     0x00011897       0xf3 c:/devkitPro/libctru/lib\libctru.a(utf8_to_utf16.o)
 .debug_loc     0x0001198a       0xfb c:/devkitPro/libctru/lib\libctru.a(initArgv.o)
 .debug_loc     0x00011a85       0x21 c:/devkitPro/libctru/lib\libctru.a(initSystem.o)
 .debug_loc     0x00011aa6      0x1d1 c:/devkitPro/libctru/lib\libctru.a(mappable.o)
 .debug_loc     0x00011c77      0x2b2 c:/devkitPro/libctru/lib\libctru.a(rbtree_iterator.o)
 .debug_loc     0x00011f29      0x232 c:/devkitPro/libctru/lib\libctru.a(decode_utf8.o)
 .debug_loc     0x0001215b       0xdc c:/devkitPro/libctru/lib\libctru.a(encode_utf16.o)
 .debug_loc     0x00012237       0x21 c:/devkitPro/libctru/lib\libctru.a(ctru_exit.o)
 .debug_loc     0x00012258     0x124d c:/devkitPro/libctru/lib\libctru.a(sdmc_dev.o)
 .debug_loc     0x000134a5      0x125 c:/devkitPro/libctru/lib\libctru.a(utf16_to_utf8.o)
 .debug_loc     0x000135ca       0xc4 c:/devkitPro/libctru/lib\libctru.a(decode_utf16.o)
 .debug_loc     0x0001368e      0x1aa c:/devkitPro/libctru/lib\libctru.a(encode_utf8.o)

.debug_macinfo
 *(.debug_macinfo)
LOAD c:/devkitpro/devkitarm/bin/../lib/gcc/arm-none-eabi/4.9.2/../../../../arm-none-eabi/lib/armv6k/fpu/3dsx_crt0.o
LOAD c:/devkitpro/devkitarm/bin/../lib/gcc/arm-none-eabi/4.9.2/armv6k/fpu/crti.o
LOAD c:/devkitpro/devkitarm/bin/../lib/gcc/arm-none-eabi/4.9.2/armv6k/fpu/crtbegin.o
LOAD eightbit.ttf.o
LOAD friskBack.o
LOAD friskFace.o
LOAD friskLeft1.o
LOAD friskRight1.o
LOAD main.o
LOAD torielHouse1.o
LOAD c:/devkitPro/libctru/lib\libsftd.a
LOAD c:/devkitPro/portlibs/armv6k/lib\libfreetype.a
LOAD c:/devkitPro/portlibs/armv6k/lib\libpng.a
LOAD c:/devkitPro/portlibs/armv6k/lib\libz.a
LOAD c:/devkitPro/libctru/lib\libsf2d.a
LOAD c:/devkitPro/libctru/lib\libctru.a
LOAD c:/devkitpro/devkitarm/bin/../lib/gcc/arm-none-eabi/4.9.2/../../../../arm-none-eabi/lib/armv6k/fpu\libm.a
START GROUP
LOAD c:/devkitpro/devkitarm/bin/../lib/gcc/arm-none-eabi/4.9.2/armv6k/fpu\libgcc.a
LOAD c:/devkitpro/devkitarm/bin/../lib/gcc/arm-none-eabi/4.9.2/../../../../arm-none-eabi/lib/armv6k/fpu\libg.a
LOAD c:/devkitpro/devkitarm/bin/../lib/gcc/arm-none-eabi/4.9.2/../../../../arm-none-eabi/lib/armv6k/fpu\libc.a
LOAD c:/devkitpro/devkitarm/bin/../lib/gcc/arm-none-eabi/4.9.2/../../../../arm-none-eabi/lib/armv6k/fpu\libsysbase.a
END GROUP
LOAD c:/devkitpro/devkitarm/bin/../lib/gcc/arm-none-eabi/4.9.2/armv6k/fpu/crtend.o
LOAD c:/devkitpro/devkitarm/bin/../lib/gcc/arm-none-eabi/4.9.2/armv6k/fpu/crtn.o
OUTPUT(c:/3DS/Games/UNDERTALE/undertale_techdemo.elf elf32-littlearm)

.ARM.attributes
                0x00000000       0x32
 .ARM.attributes
                0x00000000       0x1e c:/devkitpro/devkitarm/bin/../lib/gcc/arm-none-eabi/4.9.2/../../../../arm-none-eabi/lib/armv6k/fpu/3dsx_crt0.o
 .ARM.attributes
                0x0000001e       0x1c c:/devkitpro/devkitarm/bin/../lib/gcc/arm-none-eabi/4.9.2/armv6k/fpu/crti.o
 .ARM.attributes
                0x0000003a       0x32 c:/devkitpro/devkitarm/bin/../lib/gcc/arm-none-eabi/4.9.2/armv6k/fpu/crtbegin.o
 .ARM.attributes
                0x0000006c       0x14 eightbit.ttf.o
 .ARM.attributes
                0x00000080       0x2e friskBack.o
 .ARM.attributes
                0x000000ae       0x2e friskFace.o
 .ARM.attributes
                0x000000dc       0x2e friskLeft1.o
 .ARM.attributes
                0x0000010a       0x2e friskRight1.o
 .ARM.attributes
                0x00000138       0x2e main.o
 .ARM.attributes
                0x00000166       0x2e torielHouse1.o
 .ARM.attributes
                0x00000194       0x32 c:/devkitPro/libctru/lib\libsftd.a(sftd.o)
 .ARM.attributes
                0x000001c6       0x32 c:/devkitPro/libctru/lib\libsftd.a(texture_atlas.o)
 .ARM.attributes
                0x000001f8       0x32 c:/devkitPro/libctru/lib\libsftd.a(bin_packing_2d.o)
 .ARM.attributes
                0x0000022a       0x32 c:/devkitPro/libctru/lib\libsftd.a(int_htab.o)
 .ARM.attributes
                0x0000025c       0x2e c:/devkitPro/portlibs/armv6k/lib\libfreetype.a(ftinit.o)
 .ARM.attributes
                0x0000028a       0x2e c:/devkitPro/portlibs/armv6k/lib\libfreetype.a(ftbase.o)
 .ARM.attributes
                0x000002b8       0x2e c:/devkitPro/portlibs/armv6k/lib\libfreetype.a(truetype.o)
 .ARM.attributes
                0x000002e6       0x2e c:/devkitPro/portlibs/armv6k/lib\libfreetype.a(type1.o)
 .ARM.attributes
                0x00000314       0x2e c:/devkitPro/portlibs/armv6k/lib\libfreetype.a(cff.o)
 .ARM.attributes
                0x00000342       0x2e c:/devkitPro/portlibs/armv6k/lib\libfreetype.a(type1cid.o)
 .ARM.attributes
                0x00000370       0x2e c:/devkitPro/portlibs/armv6k/lib\libfreetype.a(pfr.o)
 .ARM.attributes
                0x0000039e       0x2e c:/devkitPro/portlibs/armv6k/lib\libfreetype.a(type42.o)
 .ARM.attributes
                0x000003cc       0x2e c:/devkitPro/portlibs/armv6k/lib\libfreetype.a(winfnt.o)
 .ARM.attributes
                0x000003fa       0x2e c:/devkitPro/portlibs/armv6k/lib\libfreetype.a(pcf.o)
 .ARM.attributes
                0x00000428       0x2e c:/devkitPro/portlibs/armv6k/lib\libfreetype.a(bdf.o)
 .ARM.attributes
                0x00000456       0x2e c:/devkitPro/portlibs/armv6k/lib\libfreetype.a(sfnt.o)
 .ARM.attributes
                0x00000484       0x2e c:/devkitPro/portlibs/armv6k/lib\libfreetype.a(autofit.o)
 .ARM.attributes
                0x000004b2       0x2e c:/devkitPro/portlibs/armv6k/lib\libfreetype.a(pshinter.o)
 .ARM.attributes
                0x000004e0       0x2e c:/devkitPro/portlibs/armv6k/lib\libfreetype.a(raster.o)
 .ARM.attributes
                0x0000050e       0x2e c:/devkitPro/portlibs/armv6k/lib\libfreetype.a(smooth.o)
 .ARM.attributes
                0x0000053c       0x2e c:/devkitPro/portlibs/armv6k/lib\libfreetype.a(ftcache.o)
 .ARM.attributes
                0x0000056a       0x2e c:/devkitPro/portlibs/armv6k/lib\libfreetype.a(ftgzip.o)
 .ARM.attributes
                0x00000598       0x2e c:/devkitPro/portlibs/armv6k/lib\libfreetype.a(ftlzw.o)
 .ARM.attributes
                0x000005c6       0x2e c:/devkitPro/portlibs/armv6k/lib\libfreetype.a(psaux.o)
 .ARM.attributes
                0x000005f4       0x2e c:/devkitPro/portlibs/armv6k/lib\libfreetype.a(psnames.o)
 .ARM.attributes
                0x00000622       0x2e c:/devkitPro/portlibs/armv6k/lib\libfreetype.a(ftsystem.o)
 .ARM.attributes
                0x00000650       0x2e c:/devkitPro/portlibs/armv6k/lib\libfreetype.a(ftbitmap.o)
 .ARM.attributes
                0x0000067e       0x2e c:/devkitPro/portlibs/armv6k/lib\libfreetype.a(ftglyph.o)
 .ARM.attributes
                0x000006ac       0x2e c:/devkitPro/portlibs/armv6k/lib\libz.a(inflate.o)
 .ARM.attributes
                0x000006da       0x2e c:/devkitPro/portlibs/armv6k/lib\libz.a(inftrees.o)
 .ARM.attributes
                0x00000708       0x2e c:/devkitPro/portlibs/armv6k/lib\libz.a(zutil.o)
 .ARM.attributes
                0x00000736       0x2e c:/devkitPro/portlibs/armv6k/lib\libz.a(adler32.o)
 .ARM.attributes
                0x00000764       0x2e c:/devkitPro/portlibs/armv6k/lib\libz.a(crc32.o)
 .ARM.attributes
                0x00000792       0x2e c:/devkitPro/portlibs/armv6k/lib\libz.a(inffast.o)
 .ARM.attributes
                0x000007c0       0x32 c:/devkitPro/libctru/lib\libsf2d.a(sf2d.o)
 .ARM.attributes
                0x000007f2       0x32 c:/devkitPro/libctru/lib\libsf2d.a(sf2d_private.o)
 .ARM.attributes
                0x00000824       0x32 c:/devkitPro/libctru/lib\libsf2d.a(sf2d_texture.o)
 .ARM.attributes
                0x00000856       0x14 c:/devkitPro/libctru/lib\libsf2d.a(shader.vsh.o)
 .ARM.attributes
                0x0000086a       0x2e c:/devkitPro/libctru/lib\libctru.a(linear.o)
 .ARM.attributes
                0x00000898       0x2e c:/devkitPro/libctru/lib\libctru.a(mem_pool.o)
 .ARM.attributes
                0x000008c6       0x2e c:/devkitPro/libctru/lib\libctru.a(vram.o)
 .ARM.attributes
                0x000008f4       0x2e c:/devkitPro/libctru/lib\libctru.a(gfx.o)
 .ARM.attributes
                0x00000922       0x2e c:/devkitPro/libctru/lib\libctru.a(os.o)
 .ARM.attributes
                0x00000950       0x2e c:/devkitPro/libctru/lib\libctru.a(romfs_dev.o)
 .ARM.attributes
                0x0000097e       0x2e c:/devkitPro/libctru/lib\libctru.a(srv.o)
 .ARM.attributes
                0x000009ac       0x2e c:/devkitPro/libctru/lib\libctru.a(gpu.o)
 .ARM.attributes
                0x000009da       0x2e c:/devkitPro/libctru/lib\libctru.a(gpuResetSequence.o)
 .ARM.attributes
                0x00000a08       0x2e c:/devkitPro/libctru/lib\libctru.a(shaderProgram.o)
 .ARM.attributes
                0x00000a36       0x2e c:/devkitPro/libctru/lib\libctru.a(shbin.o)
 .ARM.attributes
                0x00000a64       0x2e c:/devkitPro/libctru/lib\libctru.a(apt.o)
 .ARM.attributes
                0x00000a92       0x2e c:/devkitPro/libctru/lib\libctru.a(cfgu.o)
 .ARM.attributes
                0x00000ac0       0x2e c:/devkitPro/libctru/lib\libctru.a(csnd.o)
 .ARM.attributes
                0x00000aee       0x2e c:/devkitPro/libctru/lib\libctru.a(fs.o)
 .ARM.attributes
                0x00000b1c       0x2e c:/devkitPro/libctru/lib\libctru.a(gsp.o)
 .ARM.attributes
                0x00000b4a       0x2e c:/devkitPro/libctru/lib\libctru.a(gx.o)
 .ARM.attributes
                0x00000b78       0x2e c:/devkitPro/libctru/lib\libctru.a(hid.o)
 .ARM.attributes
                0x00000ba6       0x2e c:/devkitPro/libctru/lib\libctru.a(irrst.o)
 .ARM.attributes
                0x00000bd4       0x2e c:/devkitPro/libctru/lib\libctru.a(ptm.o)
 .ARM.attributes
                0x00000c02       0x2e c:/devkitPro/libctru/lib\libctru.a(rbtree_find.o)
 .ARM.attributes
                0x00000c30       0x2e c:/devkitPro/libctru/lib\libctru.a(rbtree_init.o)
 .ARM.attributes
                0x00000c5e       0x2e c:/devkitPro/libctru/lib\libctru.a(rbtree_insert.o)
 .ARM.attributes
                0x00000c8c       0x2e c:/devkitPro/libctru/lib\libctru.a(rbtree_remove.o)
 .ARM.attributes
                0x00000cba       0x2e c:/devkitPro/libctru/lib\libctru.a(rbtree_rotate.o)
 .ARM.attributes
                0x00000ce8       0x2e c:/devkitPro/libctru/lib\libctru.a(utf8_to_utf16.o)
 .ARM.attributes
                0x00000d16       0x2e c:/devkitPro/libctru/lib\libctru.a(allocateHeaps.o)
 .ARM.attributes
                0x00000d44       0x2e c:/devkitPro/libctru/lib\libctru.a(initArgv.o)
 .ARM.attributes
                0x00000d72       0x2e c:/devkitPro/libctru/lib\libctru.a(initSystem.o)
 .ARM.attributes
                0x00000da0       0x1a c:/devkitPro/libctru/lib\libctru.a(svc.o)
 .ARM.attributes
                0x00000dba       0x1a c:/devkitPro/libctru/lib\libctru.a(stack_adjust.o)
 .ARM.attributes
                0x00000dd4       0x2e c:/devkitPro/libctru/lib\libctru.a(mappable.o)
 .ARM.attributes
                0x00000e02       0x2e c:/devkitPro/libctru/lib\libctru.a(rbtree_iterator.o)
 .ARM.attributes
                0x00000e30       0x2e c:/devkitPro/libctru/lib\libctru.a(decode_utf8.o)
 .ARM.attributes
                0x00000e5e       0x2e c:/devkitPro/libctru/lib\libctru.a(encode_utf16.o)
 .ARM.attributes
                0x00000e8c       0x2e c:/devkitPro/libctru/lib\libctru.a(appExit.o)
 .ARM.attributes
                0x00000eba       0x2e c:/devkitPro/libctru/lib\libctru.a(appInit.o)
 .ARM.attributes
                0x00000ee8       0x2e c:/devkitPro/libctru/lib\libctru.a(ctru_exit.o)
 .ARM.attributes
                0x00000f16       0x2e c:/devkitPro/libctru/lib\libctru.a(sdmc_dev.o)
 .ARM.attributes
                0x00000f44       0x2e c:/devkitPro/libctru/lib\libctru.a(utf16_to_utf8.o)
 .ARM.attributes
                0x00000f72       0x2e c:/devkitPro/libctru/lib\libctru.a(decode_utf16.o)
 .ARM.attributes
                0x00000fa0       0x2e c:/devkitPro/libctru/lib\libctru.a(encode_utf8.o)
 .ARM.attributes
                0x00000fce       0x32 c:/devkitpro/devkitarm/bin/../lib/gcc/arm-none-eabi/4.9.2/../../../../arm-none-eabi/lib/armv6k/fpu\libm.a(lib_a-sf_cos.o)
 .ARM.attributes
                0x00001000       0x32 c:/devkitpro/devkitarm/bin/../lib/gcc/arm-none-eabi/4.9.2/../../../../arm-none-eabi/lib/armv6k/fpu\libm.a(lib_a-sf_sin.o)
 .ARM.attributes
                0x00001032       0x32 c:/devkitpro/devkitarm/bin/../lib/gcc/arm-none-eabi/4.9.2/../../../../arm-none-eabi/lib/armv6k/fpu\libm.a(lib_a-ef_rem_pio2.o)
 .ARM.attributes
                0x00001064       0x32 c:/devkitpro/devkitarm/bin/../lib/gcc/arm-none-eabi/4.9.2/../../../../arm-none-eabi/lib/armv6k/fpu\libm.a(lib_a-kf_cos.o)
 .ARM.attributes
                0x00001096       0x32 c:/devkitpro/devkitarm/bin/../lib/gcc/arm-none-eabi/4.9.2/../../../../arm-none-eabi/lib/armv6k/fpu\libm.a(lib_a-kf_rem_pio2.o)
 .ARM.attributes
                0x000010c8       0x32 c:/devkitpro/devkitarm/bin/../lib/gcc/arm-none-eabi/4.9.2/../../../../arm-none-eabi/lib/armv6k/fpu\libm.a(lib_a-kf_sin.o)
 .ARM.attributes
                0x000010fa       0x32 c:/devkitpro/devkitarm/bin/../lib/gcc/arm-none-eabi/4.9.2/../../../../arm-none-eabi/lib/armv6k/fpu\libm.a(lib_a-sf_fabs.o)
 .ARM.attributes
                0x0000112c       0x32 c:/devkitpro/devkitarm/bin/../lib/gcc/arm-none-eabi/4.9.2/../../../../arm-none-eabi/lib/armv6k/fpu\libm.a(lib_a-sf_floor.o)
 .ARM.attributes
                0x0000115e       0x32 c:/devkitpro/devkitarm/bin/../lib/gcc/arm-none-eabi/4.9.2/../../../../arm-none-eabi/lib/armv6k/fpu\libm.a(lib_a-sf_scalbn.o)
 .ARM.attributes
                0x00001190       0x32 c:/devkitpro/devkitarm/bin/../lib/gcc/arm-none-eabi/4.9.2/../../../../arm-none-eabi/lib/armv6k/fpu\libm.a(lib_a-sf_copysign.o)
 .ARM.attributes
                0x000011c2       0x1c c:/devkitpro/devkitarm/bin/../lib/gcc/arm-none-eabi/4.9.2/armv6k/fpu\libgcc.a(_udivsi3.o)
 .ARM.attributes
                0x000011de       0x1c c:/devkitpro/devkitarm/bin/../lib/gcc/arm-none-eabi/4.9.2/armv6k/fpu\libgcc.a(_divsi3.o)
 .ARM.attributes
                0x000011fa       0x1c c:/devkitpro/devkitarm/bin/../lib/gcc/arm-none-eabi/4.9.2/armv6k/fpu\libgcc.a(_dvmd_tls.o)
 .ARM.attributes
                0x00001216       0x1c c:/devkitpro/devkitarm/bin/../lib/gcc/arm-none-eabi/4.9.2/armv6k/fpu\libgcc.a(_arm_addsubsf3.o)
 .ARM.attributes
                0x00001232       0x32 c:/devkitpro/devkitarm/bin/../lib/gcc/arm-none-eabi/4.9.2/armv6k/fpu\libgcc.a(_popcountsi2.o)
 .ARM.attributes
                0x00001264       0x32 c:/devkitpro/devkitarm/bin/../lib/gcc/arm-none-eabi/4.9.2/../../../../arm-none-eabi/lib/armv6k/fpu\libg.a(lib_a-atol.o)
 .ARM.attributes
                0x00001296       0x32 c:/devkitpro/devkitarm/bin/../lib/gcc/arm-none-eabi/4.9.2/../../../../arm-none-eabi/lib/armv6k/fpu\libg.a(lib_a-bsearch.o)
 .ARM.attributes
                0x000012c8       0x32 c:/devkitpro/devkitarm/bin/../lib/gcc/arm-none-eabi/4.9.2/../../../../arm-none-eabi/lib/armv6k/fpu\libg.a(lib_a-errno.o)
 .ARM.attributes
                0x000012fa       0x32 c:/devkitpro/devkitarm/bin/../lib/gcc/arm-none-eabi/4.9.2/../../../../arm-none-eabi/lib/armv6k/fpu\libg.a(lib_a-fclose.o)
 .ARM.attributes
                0x0000132c       0x32 c:/devkitpro/devkitarm/bin/../lib/gcc/arm-none-eabi/4.9.2/../../../../arm-none-eabi/lib/armv6k/fpu\libg.a(lib_a-fflush.o)
 .ARM.attributes
                0x0000135e       0x32 c:/devkitpro/devkitarm/bin/../lib/gcc/arm-none-eabi/4.9.2/../../../../arm-none-eabi/lib/armv6k/fpu\libg.a(lib_a-findfp.o)
 .ARM.attributes
                0x00001390       0x32 c:/devkitpro/devkitarm/bin/../lib/gcc/arm-none-eabi/4.9.2/../../../../arm-none-eabi/lib/armv6k/fpu\libg.a(lib_a-fini.o)
 .ARM.attributes
                0x000013c2       0x32 c:/devkitpro/devkitarm/bin/../lib/gcc/arm-none-eabi/4.9.2/../../../../arm-none-eabi/lib/armv6k/fpu\libg.a(lib_a-fopen.o)
 .ARM.attributes
                0x000013f4       0x32 c:/devkitpro/devkitarm/bin/../lib/gcc/arm-none-eabi/4.9.2/../../../../arm-none-eabi/lib/armv6k/fpu\libg.a(lib_a-fread.o)
 .ARM.attributes
                0x00001426       0x32 c:/devkitpro/devkitarm/bin/../lib/gcc/arm-none-eabi/4.9.2/../../../../arm-none-eabi/lib/armv6k/fpu\libg.a(lib_a-freer.o)
 .ARM.attributes
                0x00001458       0x32 c:/devkitpro/devkitarm/bin/../lib/gcc/arm-none-eabi/4.9.2/../../../../arm-none-eabi/lib/armv6k/fpu\libg.a(lib_a-fseek.o)
 .ARM.attributes
                0x0000148a       0x32 c:/devkitpro/devkitarm/bin/../lib/gcc/arm-none-eabi/4.9.2/../../../../arm-none-eabi/lib/armv6k/fpu\libg.a(lib_a-fseeko.o)
 .ARM.attributes
                0x000014bc       0x32 c:/devkitpro/devkitarm/bin/../lib/gcc/arm-none-eabi/4.9.2/../../../../arm-none-eabi/lib/armv6k/fpu\libg.a(lib_a-ftell.o)
 .ARM.attributes
                0x000014ee       0x32 c:/devkitpro/devkitarm/bin/../lib/gcc/arm-none-eabi/4.9.2/../../../../arm-none-eabi/lib/armv6k/fpu\libg.a(lib_a-ftello.o)
 .ARM.attributes
                0x00001520       0x32 c:/devkitpro/devkitarm/bin/../lib/gcc/arm-none-eabi/4.9.2/../../../../arm-none-eabi/lib/armv6k/fpu\libg.a(lib_a-fwalk.o)
 .ARM.attributes
                0x00001552       0x32 c:/devkitpro/devkitarm/bin/../lib/gcc/arm-none-eabi/4.9.2/../../../../arm-none-eabi/lib/armv6k/fpu\libg.a(lib_a-impure.o)
 .ARM.attributes
                0x00001584       0x32 c:/devkitpro/devkitarm/bin/../lib/gcc/arm-none-eabi/4.9.2/../../../../arm-none-eabi/lib/armv6k/fpu\libg.a(lib_a-init.o)
 .ARM.attributes
                0x000015b6       0x32 c:/devkitpro/devkitarm/bin/../lib/gcc/arm-none-eabi/4.9.2/../../../../arm-none-eabi/lib/armv6k/fpu\libg.a(lib_a-makebuf.o)
 .ARM.attributes
                0x000015e8       0x32 c:/devkitpro/devkitarm/bin/../lib/gcc/arm-none-eabi/4.9.2/../../../../arm-none-eabi/lib/armv6k/fpu\libg.a(lib_a-malloc.o)
 .ARM.attributes
                0x0000161a       0x32 c:/devkitpro/devkitarm/bin/../lib/gcc/arm-none-eabi/4.9.2/../../../../arm-none-eabi/lib/armv6k/fpu\libg.a(lib_a-mallocr.o)
 .ARM.attributes
                0x0000164c       0x32 c:/devkitpro/devkitarm/bin/../lib/gcc/arm-none-eabi/4.9.2/../../../../arm-none-eabi/lib/armv6k/fpu\libg.a(lib_a-memchr.o)
 .ARM.attributes
                0x0000167e       0x32 c:/devkitpro/devkitarm/bin/../lib/gcc/arm-none-eabi/4.9.2/../../../../arm-none-eabi/lib/armv6k/fpu\libg.a(lib_a-memcmp.o)
 .ARM.attributes
                0x000016b0       0x32 c:/devkitpro/devkitarm/bin/../lib/gcc/arm-none-eabi/4.9.2/../../../../arm-none-eabi/lib/armv6k/fpu\libg.a(lib_a-memcpy.o)
 .ARM.attributes
                0x000016e2       0x32 c:/devkitpro/devkitarm/bin/../lib/gcc/arm-none-eabi/4.9.2/../../../../arm-none-eabi/lib/armv6k/fpu\libg.a(lib_a-memmove.o)
 .ARM.attributes
                0x00001714       0x32 c:/devkitpro/devkitarm/bin/../lib/gcc/arm-none-eabi/4.9.2/../../../../arm-none-eabi/lib/armv6k/fpu\libg.a(lib_a-memset.o)
 .ARM.attributes
                0x00001746       0x32 c:/devkitpro/devkitarm/bin/../lib/gcc/arm-none-eabi/4.9.2/../../../../arm-none-eabi/lib/armv6k/fpu\libg.a(lib_a-mlock.o)
 .ARM.attributes
                0x00001778       0x32 c:/devkitpro/devkitarm/bin/../lib/gcc/arm-none-eabi/4.9.2/../../../../arm-none-eabi/lib/armv6k/fpu\libg.a(lib_a-qsort.o)
 .ARM.attributes
                0x000017aa       0x32 c:/devkitpro/devkitarm/bin/../lib/gcc/arm-none-eabi/4.9.2/../../../../arm-none-eabi/lib/armv6k/fpu\libg.a(lib_a-realloc.o)
 .ARM.attributes
                0x000017dc       0x32 c:/devkitpro/devkitarm/bin/../lib/gcc/arm-none-eabi/4.9.2/../../../../arm-none-eabi/lib/armv6k/fpu\libg.a(lib_a-reallocr.o)
 .ARM.attributes
                0x0000180e       0x32 c:/devkitpro/devkitarm/bin/../lib/gcc/arm-none-eabi/4.9.2/../../../../arm-none-eabi/lib/armv6k/fpu\libg.a(lib_a-refill.o)
 .ARM.attributes
                0x00001840       0x1a c:/devkitpro/devkitarm/bin/../lib/gcc/arm-none-eabi/4.9.2/../../../../arm-none-eabi/lib/armv6k/fpu\libg.a(lib_a-setjmp.o)
 .ARM.attributes
                0x0000185a       0x32 c:/devkitpro/devkitarm/bin/../lib/gcc/arm-none-eabi/4.9.2/../../../../arm-none-eabi/lib/armv6k/fpu\libg.a(lib_a-snprintf.o)
 .ARM.attributes
                0x0000188c       0x32 c:/devkitpro/devkitarm/bin/../lib/gcc/arm-none-eabi/4.9.2/../../../../arm-none-eabi/lib/armv6k/fpu\libg.a(lib_a-sprintf.o)
 .ARM.attributes
                0x000018be       0x32 c:/devkitpro/devkitarm/bin/../lib/gcc/arm-none-eabi/4.9.2/../../../../arm-none-eabi/lib/armv6k/fpu\libg.a(lib_a-stdio.o)
 .ARM.attributes
                0x000018f0       0x32 c:/devkitpro/devkitarm/bin/../lib/gcc/arm-none-eabi/4.9.2/../../../../arm-none-eabi/lib/armv6k/fpu\libg.a(lib_a-strchr.o)
 .ARM.attributes
                0x00001922       0x1a c:/devkitpro/devkitarm/bin/../lib/gcc/arm-none-eabi/4.9.2/../../../../arm-none-eabi/lib/armv6k/fpu\libg.a(lib_a-strcmp.o)
 .ARM.attributes
                0x0000193c       0x32 c:/devkitpro/devkitarm/bin/../lib/gcc/arm-none-eabi/4.9.2/../../../../arm-none-eabi/lib/armv6k/fpu\libg.a(lib_a-strcpy.o)
 .ARM.attributes
                0x0000196e       0x32 c:/devkitpro/devkitarm/bin/../lib/gcc/arm-none-eabi/4.9.2/../../../../arm-none-eabi/lib/armv6k/fpu\libg.a(lib_a-strlen.o)
 .ARM.attributes
                0x000019a0       0x32 c:/devkitpro/devkitarm/bin/../lib/gcc/arm-none-eabi/4.9.2/../../../../arm-none-eabi/lib/armv6k/fpu\libg.a(lib_a-strncat.o)
 .ARM.attributes
                0x000019d2       0x32 c:/devkitpro/devkitarm/bin/../lib/gcc/arm-none-eabi/4.9.2/../../../../arm-none-eabi/lib/armv6k/fpu\libg.a(lib_a-strncmp.o)
 .ARM.attributes
                0x00001a04       0x32 c:/devkitpro/devkitarm/bin/../lib/gcc/arm-none-eabi/4.9.2/../../../../arm-none-eabi/lib/armv6k/fpu\libg.a(lib_a-strncpy.o)
 .ARM.attributes
                0x00001a36       0x32 c:/devkitpro/devkitarm/bin/../lib/gcc/arm-none-eabi/4.9.2/../../../../arm-none-eabi/lib/armv6k/fpu\libg.a(lib_a-strrchr.o)
 .ARM.attributes
                0x00001a68       0x32 c:/devkitpro/devkitarm/bin/../lib/gcc/arm-none-eabi/4.9.2/../../../../arm-none-eabi/lib/armv6k/fpu\libg.a(lib_a-strstr.o)
 .ARM.attributes
                0x00001a9a       0x32 c:/devkitpro/devkitarm/bin/../lib/gcc/arm-none-eabi/4.9.2/../../../../arm-none-eabi/lib/armv6k/fpu\libg.a(lib_a-strtok.o)
 .ARM.attributes
                0x00001acc       0x32 c:/devkitpro/devkitarm/bin/../lib/gcc/arm-none-eabi/4.9.2/../../../../arm-none-eabi/lib/armv6k/fpu\libg.a(lib_a-strtok_r.o)
 .ARM.attributes
                0x00001afe       0x32 c:/devkitpro/devkitarm/bin/../lib/gcc/arm-none-eabi/4.9.2/../../../../arm-none-eabi/lib/armv6k/fpu\libg.a(lib_a-strtol.o)
 .ARM.attributes
                0x00001b30       0x32 c:/devkitpro/devkitarm/bin/../lib/gcc/arm-none-eabi/4.9.2/../../../../arm-none-eabi/lib/armv6k/fpu\libg.a(lib_a-svfprintf.o)
 .ARM.attributes
                0x00001b62       0x32 c:/devkitpro/devkitarm/bin/../lib/gcc/arm-none-eabi/4.9.2/../../../../arm-none-eabi/lib/armv6k/fpu\libg.a(lib_a-vsnprintf.o)
 .ARM.attributes
                0x00001b94       0x32 c:/devkitpro/devkitarm/bin/../lib/gcc/arm-none-eabi/4.9.2/../../../../arm-none-eabi/lib/armv6k/fpu\libg.a(lib_a-vswprintf.o)
 .ARM.attributes
                0x00001bc6       0x32 c:/devkitpro/devkitarm/bin/../lib/gcc/arm-none-eabi/4.9.2/../../../../arm-none-eabi/lib/armv6k/fpu\libg.a(lib_a-wcrtomb.o)
 .ARM.attributes
                0x00001bf8       0x32 c:/devkitpro/devkitarm/bin/../lib/gcc/arm-none-eabi/4.9.2/../../../../arm-none-eabi/lib/armv6k/fpu\libg.a(lib_a-wcsrtombs.o)
 .ARM.attributes
                0x00001c2a       0x32 c:/devkitpro/devkitarm/bin/../lib/gcc/arm-none-eabi/4.9.2/../../../../arm-none-eabi/lib/armv6k/fpu\libg.a(lib_a-wctomb_r.o)
 .ARM.attributes
                0x00001c5c       0x32 c:/devkitpro/devkitarm/bin/../lib/gcc/arm-none-eabi/4.9.2/../../../../arm-none-eabi/lib/armv6k/fpu\libg.a(lib_a-ctype_.o)
 .ARM.attributes
                0x00001c8e       0x32 c:/devkitpro/devkitarm/bin/../lib/gcc/arm-none-eabi/4.9.2/../../../../arm-none-eabi/lib/armv6k/fpu\libg.a(lib_a-dtoa.o)
 .ARM.attributes
                0x00001cc0       0x32 c:/devkitpro/devkitarm/bin/../lib/gcc/arm-none-eabi/4.9.2/../../../../arm-none-eabi/lib/armv6k/fpu\libg.a(lib_a-flags.o)
 .ARM.attributes
                0x00001cf2       0x32 c:/devkitpro/devkitarm/bin/../lib/gcc/arm-none-eabi/4.9.2/../../../../arm-none-eabi/lib/armv6k/fpu\libg.a(lib_a-locale.o)
 .ARM.attributes
                0x00001d24       0x32 c:/devkitpro/devkitarm/bin/../lib/gcc/arm-none-eabi/4.9.2/../../../../arm-none-eabi/lib/armv6k/fpu\libg.a(lib_a-mbtowc_r.o)
 .ARM.attributes
                0x00001d56       0x32 c:/devkitpro/devkitarm/bin/../lib/gcc/arm-none-eabi/4.9.2/../../../../arm-none-eabi/lib/armv6k/fpu\libg.a(lib_a-mprec.o)
 .ARM.attributes
                0x00001d88       0x32 c:/devkitpro/devkitarm/bin/../lib/gcc/arm-none-eabi/4.9.2/../../../../arm-none-eabi/lib/armv6k/fpu\libg.a(lib_a-s_fpclassify.o)
 .ARM.attributes
                0x00001dba       0x32 c:/devkitpro/devkitarm/bin/../lib/gcc/arm-none-eabi/4.9.2/../../../../arm-none-eabi/lib/armv6k/fpu\libg.a(lib_a-s_frexp.o)
 .ARM.attributes
                0x00001dec       0x32 c:/devkitpro/devkitarm/bin/../lib/gcc/arm-none-eabi/4.9.2/../../../../arm-none-eabi/lib/armv6k/fpu\libg.a(lib_a-strcasecmp.o)
 .ARM.attributes
                0x00001e1e       0x32 c:/devkitpro/devkitarm/bin/../lib/gcc/arm-none-eabi/4.9.2/../../../../arm-none-eabi/lib/armv6k/fpu\libg.a(lib_a-strcat.o)
 .ARM.attributes
                0x00001e50       0x32 c:/devkitpro/devkitarm/bin/../lib/gcc/arm-none-eabi/4.9.2/../../../../arm-none-eabi/lib/armv6k/fpu\libg.a(lib_a-strlcpy.o)
 .ARM.attributes
                0x00001e82       0x32 c:/devkitpro/devkitarm/bin/../lib/gcc/arm-none-eabi/4.9.2/../../../../arm-none-eabi/lib/armv6k/fpu\libg.a(lib_a-strncasecmp.o)
 .ARM.attributes
                0x00001eb4       0x32 c:/devkitpro/devkitarm/bin/../lib/gcc/arm-none-eabi/4.9.2/../../../../arm-none-eabi/lib/armv6k/fpu\libg.a(lib_a-svfiprintf.o)
 .ARM.attributes
                0x00001ee6       0x32 c:/devkitpro/devkitarm/bin/../lib/gcc/arm-none-eabi/4.9.2/../../../../arm-none-eabi/lib/armv6k/fpu\libg.a(lib_a-svfwprintf.o)
 .ARM.attributes
                0x00001f18       0x32 c:/devkitpro/devkitarm/bin/../lib/gcc/arm-none-eabi/4.9.2/../../../../arm-none-eabi/lib/armv6k/fpu\libg.a(lib_a-wcslen.o)
 .ARM.attributes
                0x00001f4a       0x32 c:/devkitpro/devkitarm/bin/../lib/gcc/arm-none-eabi/4.9.2/../../../../arm-none-eabi/lib/armv6k/fpu\libg.a(lib_a-wcsnrtombs.o)
 .ARM.attributes
                0x00001f7c       0x32 c:/devkitpro/devkitarm/bin/../lib/gcc/arm-none-eabi/4.9.2/../../../../arm-none-eabi/lib/armv6k/fpu\libg.a(lib_a-wmemchr.o)
 .ARM.attributes
                0x00001fae       0x32 c:/devkitpro/devkitarm/bin/../lib/gcc/arm-none-eabi/4.9.2/../../../../arm-none-eabi/lib/armv6k/fpu\libg.a(lib_a-btowc.o)
 .ARM.attributes
                0x00001fe0       0x32 c:/devkitpro/devkitarm/bin/../lib/gcc/arm-none-eabi/4.9.2/../../../../arm-none-eabi/lib/armv6k/fpu\libg.a(lib_a-callocr.o)
 .ARM.attributes
                0x00002012       0x32 c:/devkitpro/devkitarm/bin/../lib/gcc/arm-none-eabi/4.9.2/../../../../arm-none-eabi/lib/armv6k/fpu\libg.a(lib_a-getenv_r.o)
 .ARM.attributes
                0x00002044       0x32 c:/devkitpro/devkitarm/bin/../lib/gcc/arm-none-eabi/4.9.2/../../../../arm-none-eabi/lib/armv6k/fpu\libg.a(lib_a-mbrlen.o)
 .ARM.attributes
                0x00002076       0x32 c:/devkitpro/devkitarm/bin/../lib/gcc/arm-none-eabi/4.9.2/../../../../arm-none-eabi/lib/armv6k/fpu\libg.a(lib_a-mbrtowc.o)
 .ARM.attributes
                0x000020a8       0x32 c:/devkitpro/devkitarm/bin/../lib/gcc/arm-none-eabi/4.9.2/../../../../arm-none-eabi/lib/armv6k/fpu\libg.a(lib_a-mbsnrtowcs.o)
 .ARM.attributes
                0x000020da       0x32 c:/devkitpro/devkitarm/bin/../lib/gcc/arm-none-eabi/4.9.2/../../../../arm-none-eabi/lib/armv6k/fpu\libg.a(lib_a-environ.o)
 .ARM.attributes
                0x0000210c       0x32 c:/devkitpro/devkitarm/bin/../lib/gcc/arm-none-eabi/4.9.2/../../../../arm-none-eabi/lib/armv6k/fpu\libg.a(lib_a-envlock.o)
 .ARM.attributes
                0x0000213e       0x32 c:/devkitpro/devkitarm/bin/../lib/gcc/arm-none-eabi/4.9.2/../../../../arm-none-eabi/lib/armv6k/fpu\libsysbase.a(iosupport.o)
 .ARM.attributes
                0x00002170       0x32 c:/devkitpro/devkitarm/bin/../lib/gcc/arm-none-eabi/4.9.2/../../../../arm-none-eabi/lib/armv6k/fpu\libsysbase.a(close.o)
 .ARM.attributes
                0x000021a2       0x32 c:/devkitpro/devkitarm/bin/../lib/gcc/arm-none-eabi/4.9.2/../../../../arm-none-eabi/lib/armv6k/fpu\libsysbase.a(fstat.o)
 .ARM.attributes
                0x000021d4       0x32 c:/devkitpro/devkitarm/bin/../lib/gcc/arm-none-eabi/4.9.2/../../../../arm-none-eabi/lib/armv6k/fpu\libsysbase.a(isatty.o)
 .ARM.attributes
                0x00002206       0x32 c:/devkitpro/devkitarm/bin/../lib/gcc/arm-none-eabi/4.9.2/../../../../arm-none-eabi/lib/armv6k/fpu\libsysbase.a(lseek.o)
 .ARM.attributes
                0x00002238       0x32 c:/devkitpro/devkitarm/bin/../lib/gcc/arm-none-eabi/4.9.2/../../../../arm-none-eabi/lib/armv6k/fpu\libsysbase.a(open.o)
 .ARM.attributes
                0x0000226a       0x32 c:/devkitpro/devkitarm/bin/../lib/gcc/arm-none-eabi/4.9.2/../../../../arm-none-eabi/lib/armv6k/fpu\libsysbase.a(read.o)
 .ARM.attributes
                0x0000229c       0x32 c:/devkitpro/devkitarm/bin/../lib/gcc/arm-none-eabi/4.9.2/../../../../arm-none-eabi/lib/armv6k/fpu\libsysbase.a(sbrk.o)
 .ARM.attributes
                0x000022ce       0x32 c:/devkitpro/devkitarm/bin/../lib/gcc/arm-none-eabi/4.9.2/../../../../arm-none-eabi/lib/armv6k/fpu\libsysbase.a(write.o)
 .ARM.attributes
                0x00002300       0x32 c:/devkitpro/devkitarm/bin/../lib/gcc/arm-none-eabi/4.9.2/../../../../arm-none-eabi/lib/armv6k/fpu\libsysbase.a(malloc_vars.o)
 .ARM.attributes
                0x00002332       0x32 c:/devkitpro/devkitarm/bin/../lib/gcc/arm-none-eabi/4.9.2/../../../../arm-none-eabi/lib/armv6k/fpu\libsysbase.a(chdir.o)
 .ARM.attributes
                0x00002364       0x32 c:/devkitpro/devkitarm/bin/../lib/gcc/arm-none-eabi/4.9.2/../../../../arm-none-eabi/lib/armv6k/fpu\libsysbase.a(flock.o)
 .ARM.attributes
                0x00002396       0x32 c:/devkitpro/devkitarm/bin/../lib/gcc/arm-none-eabi/4.9.2/../../../../arm-none-eabi/lib/armv6k/fpu\libsysbase.a(syscall_support.o)
 .ARM.attributes
                0x000023c8       0x32 c:/devkitpro/devkitarm/bin/../lib/gcc/arm-none-eabi/4.9.2/../../../../arm-none-eabi/lib/armv6k/fpu\libsysbase.a(handle_manager.o)
 .ARM.attributes
                0x000023fa       0x32 c:/devkitpro/devkitarm/bin/../lib/gcc/arm-none-eabi/4.9.2/../../../../arm-none-eabi/lib/armv6k/fpu\libsysbase.a(getreent.o)
 .ARM.attributes
                0x0000242c       0x1c c:/devkitpro/devkitarm/bin/../lib/gcc/arm-none-eabi/4.9.2/armv6k/fpu\libgcc.a(_aeabi_uldivmod.o)
 .ARM.attributes
                0x00002448       0x32 c:/devkitpro/devkitarm/bin/../lib/gcc/arm-none-eabi/4.9.2/armv6k/fpu\libgcc.a(bpabi.o)
 .ARM.attributes
                0x0000247a       0x32 c:/devkitpro/devkitarm/bin/../lib/gcc/arm-none-eabi/4.9.2/armv6k/fpu\libgcc.a(_divdi3.o)
 .ARM.attributes
                0x000024ac       0x32 c:/devkitpro/devkitarm/bin/../lib/gcc/arm-none-eabi/4.9.2/armv6k/fpu\libgcc.a(_udivdi3.o)
 .ARM.attributes
                0x000024de       0x32 c:/devkitpro/devkitarm/bin/../lib/gcc/arm-none-eabi/4.9.2/../../../../arm-none-eabi/lib/armv6k/fpu\libg.a(lib_a-strnlen.o)
 .ARM.attributes
                0x00002510       0x32 c:/devkitpro/devkitarm/bin/../lib/gcc/arm-none-eabi/4.9.2/armv6k/fpu/crtend.o
 .ARM.attributes
                0x00002542       0x1c c:/devkitpro/devkitarm/bin/../lib/gcc/arm-none-eabi/4.9.2/armv6k/fpu/crtn.o

.debug_ranges   0x00000000      0xef8
 .debug_ranges  0x00000000       0x58 main.o
 .debug_ranges  0x00000058       0xe8 c:/devkitPro/libctru/lib\libsftd.a(sftd.o)
 .debug_ranges  0x00000140       0x30 c:/devkitPro/libctru/lib\libsftd.a(bin_packing_2d.o)
 .debug_ranges  0x00000170       0x48 c:/devkitPro/libctru/lib\libsftd.a(int_htab.o)
 .debug_ranges  0x000001b8       0x50 c:/devkitPro/libctru/lib\libsf2d.a(sf2d.o)
 .debug_ranges  0x00000208       0x80 c:/devkitPro/libctru/lib\libsf2d.a(sf2d_private.o)
 .debug_ranges  0x00000288      0x140 c:/devkitPro/libctru/lib\libsf2d.a(sf2d_texture.o)
 .debug_ranges  0x000003c8       0x70 c:/devkitPro/libctru/lib\libctru.a(linear.o)
 .debug_ranges  0x00000438      0x1d8 c:/devkitPro/libctru/lib\libctru.a(mem_pool.o)
 .debug_ranges  0x00000610       0x78 c:/devkitPro/libctru/lib\libctru.a(vram.o)
 .debug_ranges  0x00000688       0x90 c:/devkitPro/libctru/lib\libctru.a(gfx.o)
 .debug_ranges  0x00000718       0x48 c:/devkitPro/libctru/lib\libctru.a(os.o)
 .debug_ranges  0x00000760       0xd0 c:/devkitPro/libctru/lib\libctru.a(romfs_dev.o)
 .debug_ranges  0x00000830       0x58 c:/devkitPro/libctru/lib\libctru.a(gpu.o)
 .debug_ranges  0x00000888       0x58 c:/devkitPro/libctru/lib\libctru.a(shaderProgram.o)
 .debug_ranges  0x000008e0       0x38 c:/devkitPro/libctru/lib\libctru.a(shbin.o)
 .debug_ranges  0x00000918       0xf8 c:/devkitPro/libctru/lib\libctru.a(apt.o)
 .debug_ranges  0x00000a10      0x110 c:/devkitPro/libctru/lib\libctru.a(csnd.o)
 .debug_ranges  0x00000b20       0x60 c:/devkitPro/libctru/lib\libctru.a(gsp.o)
 .debug_ranges  0x00000b80       0x18 c:/devkitPro/libctru/lib\libctru.a(irrst.o)
 .debug_ranges  0x00000b98       0x20 c:/devkitPro/libctru/lib\libctru.a(rbtree_find.o)
 .debug_ranges  0x00000bb8      0x110 c:/devkitPro/libctru/lib\libctru.a(rbtree_insert.o)
 .debug_ranges  0x00000cc8       0xf8 c:/devkitPro/libctru/lib\libctru.a(rbtree_remove.o)
 .debug_ranges  0x00000dc0       0x30 c:/devkitPro/libctru/lib\libctru.a(rbtree_rotate.o)
 .debug_ranges  0x00000df0       0x70 c:/devkitPro/libctru/lib\libctru.a(mappable.o)
 .debug_ranges  0x00000e60       0x30 c:/devkitPro/libctru/lib\libctru.a(rbtree_iterator.o)
 .debug_ranges  0x00000e90       0x10 c:/devkitPro/libctru/lib\libctru.a(decode_utf8.o)
 .debug_ranges  0x00000ea0       0x48 c:/devkitPro/libctru/lib\libctru.a(sdmc_dev.o)
 .debug_ranges  0x00000ee8       0x10 c:/devkitPro/libctru/lib\libctru.a(decode_utf16.o)
